
build.riscv.amiga_mpu_bios/amiga_mpu_bios:     file format elf32-littleriscv


Disassembly of section .text:

00000000 <boot_vector>:
       0:	01c0006f          	j	1c <boot_vector2>
       4:	0000                	unimp
	...

00000008 <ipc_vector>:
	...
      10:	1300006f          	j	140 <isr_vector>

00000014 <ipc_request>:
      14:	0000                	unimp
	...

00000018 <ipc_frame>:
      18:	0000                	unimp
	...

0000001c <boot_vector2>:
      1c:	aac9                	j	1ee <start>
	...

0000003c <arg_argc>:
      3c:	00000000          	.word	0x00000000

00000040 <arg_argv>:
	...

00000140 <isr_vector>:
     140:	f7410113          	addi	sp,sp,-140
     144:	c57e                	sw	t6,136(sp)
     146:	c37a                	sw	t5,132(sp)
     148:	c176                	sw	t4,128(sp)
     14a:	def2                	sw	t3,124(sp)
     14c:	dcee                	sw	s11,120(sp)
     14e:	daea                	sw	s10,116(sp)
     150:	d8e6                	sw	s9,112(sp)
     152:	d6e2                	sw	s8,108(sp)
     154:	d4de                	sw	s7,104(sp)
     156:	d2da                	sw	s6,100(sp)
     158:	d0d6                	sw	s5,96(sp)
     15a:	ced2                	sw	s4,92(sp)
     15c:	ccce                	sw	s3,88(sp)
     15e:	caca                	sw	s2,84(sp)
     160:	c8c6                	sw	a7,80(sp)
     162:	c6c2                	sw	a6,76(sp)
     164:	c4be                	sw	a5,72(sp)
     166:	c2ba                	sw	a4,68(sp)
     168:	c0b6                	sw	a3,64(sp)
     16a:	de32                	sw	a2,60(sp)
     16c:	dc2e                	sw	a1,56(sp)
     16e:	da2a                	sw	a0,52(sp)
     170:	d826                	sw	s1,48(sp)
     172:	d622                	sw	s0,44(sp)
     174:	d41e                	sw	t2,40(sp)
     176:	d21a                	sw	t1,36(sp)
     178:	d016                	sw	t0,32(sp)
     17a:	ce12                	sw	tp,28(sp)
     17c:	cc0e                	sw	gp,24(sp)
     17e:	ca0a                	sw	sp,20(sp)
     180:	c806                	sw	ra,16(sp)
     182:	34202473          	csrr	s0,mcause
     186:	c422                	sw	s0,8(sp)
     188:	30002473          	csrr	s0,mstatus
     18c:	c222                	sw	s0,4(sp)
     18e:	34102473          	csrr	s0,mepc
     192:	c022                	sw	s0,0(sp)
     194:	213050ef          	jal	ra,5ba6 <_handle_trap>

00000198 <exception_return>:
     198:	4402                	lw	s0,0(sp)
     19a:	34141073          	csrw	mepc,s0
     19e:	4412                	lw	s0,4(sp)
     1a0:	30041073          	csrw	mstatus,s0
     1a4:	40c2                	lw	ra,16(sp)
     1a6:	41e2                	lw	gp,24(sp)
     1a8:	4272                	lw	tp,28(sp)
     1aa:	5282                	lw	t0,32(sp)
     1ac:	5312                	lw	t1,36(sp)
     1ae:	53a2                	lw	t2,40(sp)
     1b0:	5432                	lw	s0,44(sp)
     1b2:	54c2                	lw	s1,48(sp)
     1b4:	5552                	lw	a0,52(sp)
     1b6:	55e2                	lw	a1,56(sp)
     1b8:	5672                	lw	a2,60(sp)
     1ba:	4686                	lw	a3,64(sp)
     1bc:	4716                	lw	a4,68(sp)
     1be:	47a6                	lw	a5,72(sp)
     1c0:	4836                	lw	a6,76(sp)
     1c2:	48c6                	lw	a7,80(sp)
     1c4:	4956                	lw	s2,84(sp)
     1c6:	49e6                	lw	s3,88(sp)
     1c8:	4a76                	lw	s4,92(sp)
     1ca:	5a86                	lw	s5,96(sp)
     1cc:	5b16                	lw	s6,100(sp)
     1ce:	5ba6                	lw	s7,104(sp)
     1d0:	5c36                	lw	s8,108(sp)
     1d2:	5cc6                	lw	s9,112(sp)
     1d4:	5d56                	lw	s10,116(sp)
     1d6:	5de6                	lw	s11,120(sp)
     1d8:	5e76                	lw	t3,124(sp)
     1da:	4e8a                	lw	t4,128(sp)
     1dc:	4f1a                	lw	t5,132(sp)
     1de:	4faa                	lw	t6,136(sp)
     1e0:	08c10113          	addi	sp,sp,140
     1e4:	30200073          	mret

000001e8 <exception_syscall>:
     1e8:	00000073          	ecall
     1ec:	8082                	ret

000001ee <start>:
     1ee:	00013137          	lui	sp,0x13
     1f2:	5b010113          	addi	sp,sp,1456 # 135b0 <_sp>
     1f6:	14000293          	li	t0,320
     1fa:	30529073          	csrw	mtvec,t0
     1fe:	62a1                	lui	t0,0x8
     200:	b8028293          	addi	t0,t0,-1152 # 7b80 <sector_buffer>
     204:	634d                	lui	t1,0x13
     206:	5c030313          	addi	t1,t1,1472 # 135c0 <_end>

0000020a <bss_clear>:
     20a:	0002a023          	sw	zero,0(t0)
     20e:	0291                	addi	t0,t0,4
     210:	fe62cde3          	blt	t0,t1,20a <bss_clear>
     214:	0111                	addi	sp,sp,4
     216:	6505                	lui	a0,0x1
     218:	88050513          	addi	a0,a0,-1920 # 880 <_Z19OSD_Keyboard_1_linebi+0x7a>
     21c:	30451073          	csrw	mie,a0
     220:	6509                	lui	a0,0x2
     222:	80850513          	addi	a0,a0,-2040 # 1808 <_Z19OSD_Keyboard_4_linebi+0x46>
     226:	30051073          	csrw	mstatus,a0
     22a:	00000517          	auipc	a0,0x0
     22e:	e1250513          	addi	a0,a0,-494 # 3c <arg_argc>
     232:	4108                	lw	a0,0(a0)
     234:	00000597          	auipc	a1,0x0
     238:	e0c58593          	addi	a1,a1,-500 # 40 <arg_argv>
     23c:	2d8000ef          	jal	ra,514 <main>
     240:	2009                	jal	242 <_exit>

00000242 <_exit>:
     242:	0ff57513          	zext.b	a0,a0
     246:	7b251073          	csrw	dscratch0,a0

0000024a <_exit_loop>:
     24a:	2001                	jal	24a <_exit_loop>

0000024c <_Z10core_reseti>:
     24c:	1141                	addi	sp,sp,-16
     24e:	c422                	sw	s0,8(sp)
     250:	0ff57593          	zext.b	a1,a0
     254:	842a                	mv	s0,a0
     256:	0f000513          	li	a0,240
     25a:	c606                	sw	ra,12(sp)
     25c:	2a8050ef          	jal	ra,5504 <_Z16HPS_spi_uio_cmd8hh>
     260:	85a2                	mv	a1,s0
     262:	4422                	lw	s0,8(sp)
     264:	40b2                	lw	ra,12(sp)
     266:	6519                	lui	a0,0x6
     268:	24850513          	addi	a0,a0,584 # 6248 <strlen+0x1a>
     26c:	0141                	addi	sp,sp,16
     26e:	1750506f          	j	5be2 <riscprintff_>

00000272 <_Z21core_update_dataslotsv>:
     272:	1141                	addi	sp,sp,-16
     274:	c422                	sw	s0,8(sp)
     276:	fb402403          	lw	s0,-76(zero) # ffffffb4 <MEM_SIZE+0xfffdffb4>
     27a:	6519                	lui	a0,0x6
     27c:	26050513          	addi	a0,a0,608 # 6260 <strlen+0x32>
     280:	85a2                	mv	a1,s0
     282:	c606                	sw	ra,12(sp)
     284:	15f050ef          	jal	ra,5be2 <riscprintff_>
     288:	0d200793          	li	a5,210
     28c:	02f40363          	beq	s0,a5,2b2 <_Z21core_update_dataslotsv+0x40>
     290:	ec040793          	addi	a5,s0,-320
     294:	470d                	li	a4,3
     296:	00f77a63          	bgeu	a4,a5,2aa <_Z21core_update_dataslotsv+0x38>
     29a:	eca40413          	addi	s0,s0,-310
     29e:	04877b63          	bgeu	a4,s0,2f4 <_Z21core_update_dataslotsv+0x82>
     2a2:	40b2                	lw	ra,12(sp)
     2a4:	4422                	lw	s0,8(sp)
     2a6:	0141                	addi	sp,sp,16
     2a8:	8082                	ret
     2aa:	4422                	lw	s0,8(sp)
     2ac:	40b2                	lw	ra,12(sp)
     2ae:	0141                	addi	sp,sp,16
     2b0:	aec9                	j	682 <minimig_fdd_update>
     2b2:	4599                	li	a1,6
     2b4:	0f000513          	li	a0,240
     2b8:	24c050ef          	jal	ra,5504 <_Z16HPS_spi_uio_cmd8hh>
     2bc:	6419                	lui	s0,0x6
     2be:	4599                	li	a1,6
     2c0:	24840513          	addi	a0,s0,584 # 6248 <strlen+0x1a>
     2c4:	11f050ef          	jal	ra,5be2 <riscprintff_>
     2c8:	0c800513          	li	a0,200
     2cc:	14f050ef          	jal	ra,5c1a <_Z10riscusleepi>
     2d0:	21f9                	jal	79e <minimig_restart_first>
     2d2:	0c800513          	li	a0,200
     2d6:	145050ef          	jal	ra,5c1a <_Z10riscusleepi>
     2da:	4581                	li	a1,0
     2dc:	0f000513          	li	a0,240
     2e0:	224050ef          	jal	ra,5504 <_Z16HPS_spi_uio_cmd8hh>
     2e4:	24840513          	addi	a0,s0,584
     2e8:	4422                	lw	s0,8(sp)
     2ea:	40b2                	lw	ra,12(sp)
     2ec:	4581                	li	a1,0
     2ee:	0141                	addi	sp,sp,16
     2f0:	0f30506f          	j	5be2 <riscprintff_>
     2f4:	4422                	lw	s0,8(sp)
     2f6:	40b2                	lw	ra,12(sp)
     2f8:	0141                	addi	sp,sp,16
     2fa:	aed5                	j	6ee <minimig_hdd_update>

000002fc <_Z12core_poll_iov>:
     2fc:	1141                	addi	sp,sp,-16
     2fe:	c606                	sw	ra,12(sp)
     300:	c422                	sw	s0,8(sp)
     302:	0f4050ef          	jal	ra,53f6 <_Z14HPS_EnableFpgav>
     306:	4501                	li	a0,0
     308:	188050ef          	jal	ra,5490 <_Z12HPS_fpga_spit>
     30c:	842a                	mv	s0,a0
     30e:	4501                	li	a0,0
     310:	180050ef          	jal	ra,5490 <_Z12HPS_fpga_spit>
     314:	4501                	li	a0,0
     316:	17a050ef          	jal	ra,5490 <_Z12HPS_fpga_spit>
     31a:	0fc050ef          	jal	ra,5416 <_Z15HPS_DisableFpgav>
     31e:	00845513          	srli	a0,s0,0x8
     322:	0ff47593          	zext.b	a1,s0
     326:	0ff57513          	zext.b	a0,a0
     32a:	7d3040ef          	jal	ra,52fc <HandleFDD>
     32e:	27d020ef          	jal	ra,2daa <_Z9ide_checkv>
     332:	00355413          	srli	s0,a0,0x3
     336:	0442                	slli	s0,s0,0x10
     338:	8041                	srli	s0,s0,0x10
     33a:	4795                	li	a5,5
     33c:	04f40b63          	beq	s0,a5,392 <_Z12core_poll_iov+0x96>
     340:	479d                	li	a5,7
     342:	02f40f63          	beq	s0,a5,380 <_Z12core_poll_iov+0x84>
     346:	4799                	li	a5,6
     348:	02f40363          	beq	s0,a5,36e <_Z12core_poll_iov+0x72>
     34c:	01051793          	slli	a5,a0,0x10
     350:	0407da63          	bgez	a5,3a4 <_Z12core_poll_iov+0xa8>
     354:	00757593          	andi	a1,a0,7
     358:	4501                	li	a0,0
     35a:	039030ef          	jal	ra,3b92 <_Z6ide_ioii>
     35e:	00747593          	andi	a1,s0,7
     362:	4422                	lw	s0,8(sp)
     364:	40b2                	lw	ra,12(sp)
     366:	4505                	li	a0,1
     368:	0141                	addi	sp,sp,16
     36a:	0290306f          	j	3b92 <_Z6ide_ioii>
     36e:	4422                	lw	s0,8(sp)
     370:	40b2                	lw	ra,12(sp)
     372:	6519                	lui	a0,0x6
     374:	4599                	li	a1,6
     376:	2b050513          	addi	a0,a0,688 # 62b0 <strlen+0x82>
     37a:	0141                	addi	sp,sp,16
     37c:	0670506f          	j	5be2 <riscprintff_>
     380:	4422                	lw	s0,8(sp)
     382:	40b2                	lw	ra,12(sp)
     384:	6519                	lui	a0,0x6
     386:	459d                	li	a1,7
     388:	29450513          	addi	a0,a0,660 # 6294 <strlen+0x66>
     38c:	0141                	addi	sp,sp,16
     38e:	0550506f          	j	5be2 <riscprintff_>
     392:	4422                	lw	s0,8(sp)
     394:	40b2                	lw	ra,12(sp)
     396:	6519                	lui	a0,0x6
     398:	4595                	li	a1,5
     39a:	27850513          	addi	a0,a0,632 # 6278 <strlen+0x4a>
     39e:	0141                	addi	sp,sp,16
     3a0:	0430506f          	j	5be2 <riscprintff_>
     3a4:	40b2                	lw	ra,12(sp)
     3a6:	4422                	lw	s0,8(sp)
     3a8:	0141                	addi	sp,sp,16
     3aa:	8082                	ret

000003ac <_Z15core_reg_updatev>:
     3ac:	f5400693          	li	a3,-172
     3b0:	4298                	lw	a4,0(a3)
     3b2:	f1c02783          	lw	a5,-228(zero) # ffffff1c <MEM_SIZE+0xfffdff1c>
     3b6:	9b41                	andi	a4,a4,-16
     3b8:	8bbd                	andi	a5,a5,15
     3ba:	8fd9                	or	a5,a5,a4
     3bc:	c29c                	sw	a5,0(a3)
     3be:	8082                	ret

000003c0 <_Z18core_restart_firstv>:
     3c0:	1141                	addi	sp,sp,-16
     3c2:	4599                	li	a1,6
     3c4:	0f000513          	li	a0,240
     3c8:	c606                	sw	ra,12(sp)
     3ca:	13a050ef          	jal	ra,5504 <_Z16HPS_spi_uio_cmd8hh>
     3ce:	40b2                	lw	ra,12(sp)
     3d0:	6519                	lui	a0,0x6
     3d2:	4599                	li	a1,6
     3d4:	24850513          	addi	a0,a0,584 # 6248 <strlen+0x1a>
     3d8:	0141                	addi	sp,sp,16
     3da:	0090506f          	j	5be2 <riscprintff_>

000003de <_Z16core_input_setupv>:
     3de:	1380406f          	j	4516 <_Z11input_setupv>

000003e2 <_Z17core_input_updatev>:
     3e2:	0f40406f          	j	44d6 <_Z12input_updatev>

000003e6 <_Z4initv>:
     3e6:	1141                	addi	sp,sp,-16
     3e8:	c606                	sw	ra,12(sp)
     3ea:	7f2050ef          	jal	ra,5bdc <_Z17DisableInterruptsv>
     3ee:	01f050ef          	jal	ra,5c0c <_Z8SetTimerv>
     3f2:	7aa050ef          	jal	ra,5b9c <SetUART>
     3f6:	003050ef          	jal	ra,5bf8 <_Z10ResetTimerv>
     3fa:	0007a537          	lui	a0,0x7a
     3fe:	12050513          	addi	a0,a0,288 # 7a120 <MEM_SIZE+0x5a120>
     402:	019050ef          	jal	ra,5c1a <_Z10riscusleepi>
     406:	6519                	lui	a0,0x6
     408:	2cc50513          	addi	a0,a0,716 # 62cc <strlen+0x9e>
     40c:	7d6050ef          	jal	ra,5be2 <riscprintff_>
     410:	40b2                	lw	ra,12(sp)
     412:	0141                	addi	sp,sp,16
     414:	b775                	j	3c0 <_Z18core_restart_firstv>

00000416 <_Z8mainloopv>:
     416:	1101                	addi	sp,sp,-32
     418:	451d                	li	a0,7
     41a:	ce06                	sw	ra,28(sp)
     41c:	cc22                	sw	s0,24(sp)
     41e:	ca26                	sw	s1,20(sp)
     420:	c84a                	sw	s2,16(sp)
     422:	c64e                	sw	s3,12(sp)
     424:	c452                	sw	s4,8(sp)
     426:	351d                	jal	24c <_Z10core_reseti>
     428:	6509                	lui	a0,0x2
     42a:	32850513          	addi	a0,a0,808 # 2328 <_Z19OSD_Keyboard_6_linebi+0xe4>
     42e:	7ec050ef          	jal	ra,5c1a <_Z10riscusleepi>
     432:	6519                	lui	a0,0x6
     434:	2d450513          	addi	a0,a0,724 # 62d4 <strlen+0xa6>
     438:	7aa050ef          	jal	ra,5be2 <riscprintff_>
     43c:	6519                	lui	a0,0x6
     43e:	2ec50513          	addi	a0,a0,748 # 62ec <strlen+0xbe>
     442:	7a0050ef          	jal	ra,5be2 <riscprintff_>
     446:	6519                	lui	a0,0x6
     448:	30850513          	addi	a0,a0,776 # 6308 <strlen+0xda>
     44c:	796050ef          	jal	ra,5be2 <riscprintff_>
     450:	6519                	lui	a0,0x6
     452:	31850513          	addi	a0,a0,792 # 6318 <strlen+0xea>
     456:	78c050ef          	jal	ra,5be2 <riscprintff_>
     45a:	2691                	jal	79e <minimig_restart_first>
     45c:	3d19                	jal	272 <_Z21core_update_dataslotsv>
     45e:	7d000513          	li	a0,2000
     462:	7b8050ef          	jal	ra,5c1a <_Z10riscusleepi>
     466:	3fa5                	jal	3de <_Z16core_input_setupv>
     468:	75e050ef          	jal	ra,5bc6 <_Z16EnableInterruptsv>
     46c:	6519                	lui	a0,0x6
     46e:	33450513          	addi	a0,a0,820 # 6334 <strlen+0x106>
     472:	770050ef          	jal	ra,5be2 <riscprintff_>
     476:	4501                	li	a0,0
     478:	002dc437          	lui	s0,0x2dc
     47c:	3bc1                	jal	24c <_Z10core_reseti>
     47e:	6a19                	lui	s4,0x6
     480:	6999                	lui	s3,0x6
     482:	6919                	lui	s2,0x6
     484:	6499                	lui	s1,0x6
     486:	6c040413          	addi	s0,s0,1728 # 2dc6c0 <MEM_SIZE+0x2bc6c0>
     48a:	fb002783          	lw	a5,-80(zero) # ffffffb0 <MEM_SIZE+0xfffdffb0>
     48e:	e7ad                	bnez	a5,4f8 <_Z8mainloopv+0xe2>
     490:	35b5                	jal	2fc <_Z12core_poll_iov>
     492:	08a040ef          	jal	ra,451c <_Z16input_reg_updatev>
     496:	3f19                	jal	3ac <_Z15core_reg_updatev>
     498:	322020ef          	jal	ra,27ba <_Z20OSD_Keyboard_processv>
     49c:	f0002783          	lw	a5,-256(zero) # ffffff00 <MEM_SIZE+0xfffdff00>
     4a0:	8b8d                	andi	a5,a5,3
     4a2:	d7e5                	beqz	a5,48a <_Z8mainloopv+0x74>
     4a4:	738050ef          	jal	ra,5bdc <_Z17DisableInterruptsv>
     4a8:	37490513          	addi	a0,s2,884 # 6374 <strlen+0x146>
     4ac:	736050ef          	jal	ra,5be2 <riscprintff_>
     4b0:	f0002503          	lw	a0,-256(zero) # ffffff00 <MEM_SIZE+0xfffdff00>
     4b4:	3b61                	jal	24c <_Z10core_reseti>
     4b6:	0c800513          	li	a0,200
     4ba:	760050ef          	jal	ra,5c1a <_Z10riscusleepi>
     4be:	f0002023          	sw	zero,-256(zero) # ffffff00 <MEM_SIZE+0xfffdff00>
     4c2:	2ab9                	jal	620 <minimig_restart_running_core>
     4c4:	7d000513          	li	a0,2000
     4c8:	752050ef          	jal	ra,5c1a <_Z10riscusleepi>
     4cc:	4501                	li	a0,0
     4ce:	3bbd                	jal	24c <_Z10core_reseti>
     4d0:	1f400513          	li	a0,500
     4d4:	746050ef          	jal	ra,5c1a <_Z10riscusleepi>
     4d8:	615040ef          	jal	ra,52ec <RemoveDriveStatus>
     4dc:	8522                	mv	a0,s0
     4de:	73c050ef          	jal	ra,5c1a <_Z10riscusleepi>
     4e2:	51d040ef          	jal	ra,51fe <UpdateDriveStatus_fdd>
     4e6:	38c48513          	addi	a0,s1,908 # 638c <strlen+0x15e>
     4ea:	6f8050ef          	jal	ra,5be2 <riscprintff_>
     4ee:	6d8050ef          	jal	ra,5bc6 <_Z16EnableInterruptsv>
     4f2:	fb002783          	lw	a5,-80(zero) # ffffffb0 <MEM_SIZE+0xfffdffb0>
     4f6:	dfc9                	beqz	a5,490 <_Z8mainloopv+0x7a>
     4f8:	6e4050ef          	jal	ra,5bdc <_Z17DisableInterruptsv>
     4fc:	34ca0513          	addi	a0,s4,844 # 634c <strlen+0x11e>
     500:	6e2050ef          	jal	ra,5be2 <riscprintff_>
     504:	33bd                	jal	272 <_Z21core_update_dataslotsv>
     506:	36098513          	addi	a0,s3,864 # 6360 <strlen+0x132>
     50a:	6d8050ef          	jal	ra,5be2 <riscprintff_>
     50e:	6b8050ef          	jal	ra,5bc6 <_Z16EnableInterruptsv>
     512:	bfbd                	j	490 <_Z8mainloopv+0x7a>

00000514 <main>:
     514:	1141                	addi	sp,sp,-16
     516:	c606                	sw	ra,12(sp)
     518:	35f9                	jal	3e6 <_Z4initv>
     51a:	001e8537          	lui	a0,0x1e8
     51e:	48050513          	addi	a0,a0,1152 # 1e8480 <MEM_SIZE+0x1c8480>
     522:	6f8050ef          	jal	ra,5c1a <_Z10riscusleepi>
     526:	3dc5                	jal	416 <_Z8mainloopv>

00000528 <_Z12minimig_biosv>:
     528:	1141                	addi	sp,sp,-16
     52a:	0d200513          	li	a0,210
     52e:	c606                	sw	ra,12(sp)
     530:	030040ef          	jal	ra,4560 <_Z13dataslot_sizet>
     534:	001007b7          	lui	a5,0x100
     538:	02f50163          	beq	a0,a5,55a <_Z12minimig_biosv+0x32>
     53c:	000807b7          	lui	a5,0x80
     540:	04f50263          	beq	a0,a5,584 <_Z12minimig_biosv+0x5c>
     544:	000407b7          	lui	a5,0x40
     548:	06f50c63          	beq	a0,a5,5c0 <_Z12minimig_biosv+0x98>
     54c:	40b2                	lw	ra,12(sp)
     54e:	6519                	lui	a0,0x6
     550:	3d050513          	addi	a0,a0,976 # 63d0 <strlen+0x1a2>
     554:	0141                	addi	sp,sp,16
     556:	68c0506f          	j	5be2 <riscprintff_>
     55a:	6519                	lui	a0,0x6
     55c:	3a450513          	addi	a0,a0,932 # 63a4 <strlen+0x176>
     560:	682050ef          	jal	ra,5be2 <riscprintff_>
     564:	001006b7          	lui	a3,0x100
     568:	4601                	li	a2,0
     56a:	90f005b7          	lui	a1,0x90f00
     56e:	0d200513          	li	a0,210
     572:	04e040ef          	jal	ra,45c0 <_Z13dataslot_readtmmm>
     576:	40b2                	lw	ra,12(sp)
     578:	6519                	lui	a0,0x6
     57a:	3d050513          	addi	a0,a0,976 # 63d0 <strlen+0x1a2>
     57e:	0141                	addi	sp,sp,16
     580:	6620506f          	j	5be2 <riscprintff_>
     584:	6519                	lui	a0,0x6
     586:	3b050513          	addi	a0,a0,944 # 63b0 <strlen+0x182>
     58a:	658050ef          	jal	ra,5be2 <riscprintff_>
     58e:	000806b7          	lui	a3,0x80
     592:	4601                	li	a2,0
     594:	90f005b7          	lui	a1,0x90f00
     598:	0d200513          	li	a0,210
     59c:	024040ef          	jal	ra,45c0 <_Z13dataslot_readtmmm>
     5a0:	000806b7          	lui	a3,0x80
     5a4:	4601                	li	a2,0
     5a6:	90f805b7          	lui	a1,0x90f80
     5aa:	0d200513          	li	a0,210
     5ae:	012040ef          	jal	ra,45c0 <_Z13dataslot_readtmmm>
     5b2:	40b2                	lw	ra,12(sp)
     5b4:	6519                	lui	a0,0x6
     5b6:	3d050513          	addi	a0,a0,976 # 63d0 <strlen+0x1a2>
     5ba:	0141                	addi	sp,sp,16
     5bc:	6260506f          	j	5be2 <riscprintff_>
     5c0:	6519                	lui	a0,0x6
     5c2:	3c050513          	addi	a0,a0,960 # 63c0 <strlen+0x192>
     5c6:	61c050ef          	jal	ra,5be2 <riscprintff_>
     5ca:	000406b7          	lui	a3,0x40
     5ce:	4601                	li	a2,0
     5d0:	90f005b7          	lui	a1,0x90f00
     5d4:	0d200513          	li	a0,210
     5d8:	7e9030ef          	jal	ra,45c0 <_Z13dataslot_readtmmm>
     5dc:	000406b7          	lui	a3,0x40
     5e0:	4601                	li	a2,0
     5e2:	90f405b7          	lui	a1,0x90f40
     5e6:	0d200513          	li	a0,210
     5ea:	7d7030ef          	jal	ra,45c0 <_Z13dataslot_readtmmm>
     5ee:	000406b7          	lui	a3,0x40
     5f2:	4601                	li	a2,0
     5f4:	90f805b7          	lui	a1,0x90f80
     5f8:	0d200513          	li	a0,210
     5fc:	7c5030ef          	jal	ra,45c0 <_Z13dataslot_readtmmm>
     600:	000406b7          	lui	a3,0x40
     604:	4601                	li	a2,0
     606:	90fc05b7          	lui	a1,0x90fc0
     60a:	0d200513          	li	a0,210
     60e:	7b3030ef          	jal	ra,45c0 <_Z13dataslot_readtmmm>
     612:	40b2                	lw	ra,12(sp)
     614:	6519                	lui	a0,0x6
     616:	3d050513          	addi	a0,a0,976 # 63d0 <strlen+0x1a2>
     61a:	0141                	addi	sp,sp,16
     61c:	5c60506f          	j	5be2 <riscprintff_>

00000620 <minimig_restart_running_core>:
     620:	f0402583          	lw	a1,-252(zero) # ffffff04 <MEM_SIZE+0xfffdff04>
     624:	1141                	addi	sp,sp,-16
     626:	0f600513          	li	a0,246
     62a:	0ff5f593          	zext.b	a1,a1
     62e:	c606                	sw	ra,12(sp)
     630:	6d5040ef          	jal	ra,5504 <_Z16HPS_spi_uio_cmd8hh>
     634:	f0802583          	lw	a1,-248(zero) # ffffff08 <MEM_SIZE+0xfffdff08>
     638:	0f200513          	li	a0,242
     63c:	0ff5f593          	zext.b	a1,a1
     640:	6c5040ef          	jal	ra,5504 <_Z16HPS_spi_uio_cmd8hh>
     644:	f0c02583          	lw	a1,-244(zero) # ffffff0c <MEM_SIZE+0xfffdff0c>
     648:	0f300513          	li	a0,243
     64c:	0ff5f593          	zext.b	a1,a1
     650:	6b5040ef          	jal	ra,5504 <_Z16HPS_spi_uio_cmd8hh>
     654:	f1002583          	lw	a1,-240(zero) # ffffff10 <MEM_SIZE+0xfffdff10>
     658:	0f400513          	li	a0,244
     65c:	0ff5f593          	zext.b	a1,a1
     660:	6a5040ef          	jal	ra,5504 <_Z16HPS_spi_uio_cmd8hh>
     664:	f1402583          	lw	a1,-236(zero) # ffffff14 <MEM_SIZE+0xfffdff14>
     668:	0f800513          	li	a0,248
     66c:	0ff5f593          	zext.b	a1,a1
     670:	695040ef          	jal	ra,5504 <_Z16HPS_spi_uio_cmd8hh>
     674:	40b2                	lw	ra,12(sp)
     676:	6519                	lui	a0,0x6
     678:	3e450513          	addi	a0,a0,996 # 63e4 <strlen+0x1b6>
     67c:	0141                	addi	sp,sp,16
     67e:	5640506f          	j	5be2 <riscprintff_>

00000682 <minimig_fdd_update>:
     682:	1101                	addi	sp,sp,-32
     684:	ca26                	sw	s1,20(sp)
     686:	c452                	sw	s4,8(sp)
     688:	649d                	lui	s1,0x7
     68a:	00092a37          	lui	s4,0x92
     68e:	cc22                	sw	s0,24(sp)
     690:	c64e                	sw	s3,12(sp)
     692:	ce06                	sw	ra,28(sp)
     694:	c84a                	sw	s2,16(sp)
     696:	30048493          	addi	s1,s1,768 # 7300 <df>
     69a:	14000413          	li	s0,320
     69e:	7c0a0a13          	addi	s4,s4,1984 # 927c0 <MEM_SIZE+0x727c0>
     6a2:	14400993          	li	s3,324
     6a6:	01041913          	slli	s2,s0,0x10
     6aa:	01095913          	srli	s2,s2,0x10
     6ae:	854a                	mv	a0,s2
     6b0:	6b1030ef          	jal	ra,4560 <_Z13dataslot_sizet>
     6b4:	ed11                	bnez	a0,6d0 <minimig_fdd_update+0x4e>
     6b6:	0405                	addi	s0,s0,1
     6b8:	04d1                	addi	s1,s1,20
     6ba:	ff3416e3          	bne	s0,s3,6a6 <minimig_fdd_update+0x24>
     6be:	4462                	lw	s0,24(sp)
     6c0:	40f2                	lw	ra,28(sp)
     6c2:	44d2                	lw	s1,20(sp)
     6c4:	4942                	lw	s2,16(sp)
     6c6:	49b2                	lw	s3,12(sp)
     6c8:	4a22                	lw	s4,8(sp)
     6ca:	6105                	addi	sp,sp,32
     6cc:	3330406f          	j	51fe <UpdateDriveStatus_fdd>
     6d0:	8526                	mv	a0,s1
     6d2:	3e7040ef          	jal	ra,52b8 <UnsertFloppy>
     6d6:	8552                	mv	a0,s4
     6d8:	542050ef          	jal	ra,5c1a <_Z10riscusleepi>
     6dc:	854a                	mv	a0,s2
     6de:	683030ef          	jal	ra,4560 <_Z13dataslot_sizet>
     6e2:	85aa                	mv	a1,a0
     6e4:	8622                	mv	a2,s0
     6e6:	8526                	mv	a0,s1
     6e8:	47f040ef          	jal	ra,5366 <InsertFloppy>
     6ec:	b7e9                	j	6b6 <minimig_fdd_update+0x34>

000006ee <minimig_hdd_update>:
     6ee:	6519                	lui	a0,0x6
     6f0:	1141                	addi	sp,sp,-16
     6f2:	3f850513          	addi	a0,a0,1016 # 63f8 <strlen+0x1ca>
     6f6:	c606                	sw	ra,12(sp)
     6f8:	c422                	sw	s0,8(sp)
     6fa:	4e8050ef          	jal	ra,5be2 <riscprintff_>
     6fe:	13600513          	li	a0,310
     702:	65f030ef          	jal	ra,4560 <_Z13dataslot_sizet>
     706:	4401                	li	s0,0
     708:	ed1d                	bnez	a0,746 <minimig_hdd_update+0x58>
     70a:	13700513          	li	a0,311
     70e:	653030ef          	jal	ra,4560 <_Z13dataslot_sizet>
     712:	e531                	bnez	a0,75e <minimig_hdd_update+0x70>
     714:	13800513          	li	a0,312
     718:	649030ef          	jal	ra,4560 <_Z13dataslot_sizet>
     71c:	ed29                	bnez	a0,776 <minimig_hdd_update+0x88>
     71e:	13900513          	li	a0,313
     722:	63f030ef          	jal	ra,4560 <_Z13dataslot_sizet>
     726:	e525                	bnez	a0,78e <minimig_hdd_update+0xa0>
     728:	0ff47593          	zext.b	a1,s0
     72c:	0f700513          	li	a0,247
     730:	5d5040ef          	jal	ra,5504 <_Z16HPS_spi_uio_cmd8hh>
     734:	85a2                	mv	a1,s0
     736:	4422                	lw	s0,8(sp)
     738:	40b2                	lw	ra,12(sp)
     73a:	6519                	lui	a0,0x6
     73c:	42050513          	addi	a0,a0,1056 # 6420 <strlen+0x1f2>
     740:	0141                	addi	sp,sp,16
     742:	4a00506f          	j	5be2 <riscprintff_>
     746:	13600593          	li	a1,310
     74a:	4501                	li	a0,0
     74c:	66e030ef          	jal	ra,3dba <_Z8ide_openht>
     750:	13700513          	li	a0,311
     754:	02300413          	li	s0,35
     758:	609030ef          	jal	ra,4560 <_Z13dataslot_sizet>
     75c:	dd45                	beqz	a0,714 <minimig_hdd_update+0x26>
     75e:	13700593          	li	a1,311
     762:	4505                	li	a0,1
     764:	656030ef          	jal	ra,3dba <_Z8ide_openht>
     768:	13800513          	li	a0,312
     76c:	02946413          	ori	s0,s0,41
     770:	5f1030ef          	jal	ra,4560 <_Z13dataslot_sizet>
     774:	d54d                	beqz	a0,71e <minimig_hdd_update+0x30>
     776:	13800593          	li	a1,312
     77a:	4509                	li	a0,2
     77c:	63e030ef          	jal	ra,3dba <_Z8ide_openht>
     780:	13900513          	li	a0,313
     784:	02546413          	ori	s0,s0,37
     788:	5d9030ef          	jal	ra,4560 <_Z13dataslot_sizet>
     78c:	dd51                	beqz	a0,728 <minimig_hdd_update+0x3a>
     78e:	13900593          	li	a1,313
     792:	450d                	li	a0,3
     794:	626030ef          	jal	ra,3dba <_Z8ide_openht>
     798:	03146413          	ori	s0,s0,49
     79c:	b771                	j	728 <minimig_hdd_update+0x3a>

0000079e <minimig_restart_first>:
     79e:	1141                	addi	sp,sp,-16
     7a0:	c606                	sw	ra,12(sp)
     7a2:	3359                	jal	528 <_Z12minimig_biosv>
     7a4:	f0402583          	lw	a1,-252(zero) # ffffff04 <MEM_SIZE+0xfffdff04>
     7a8:	0f600513          	li	a0,246
     7ac:	0ff5f593          	zext.b	a1,a1
     7b0:	555040ef          	jal	ra,5504 <_Z16HPS_spi_uio_cmd8hh>
     7b4:	f0802583          	lw	a1,-248(zero) # ffffff08 <MEM_SIZE+0xfffdff08>
     7b8:	0f200513          	li	a0,242
     7bc:	0ff5f593          	zext.b	a1,a1
     7c0:	545040ef          	jal	ra,5504 <_Z16HPS_spi_uio_cmd8hh>
     7c4:	f0c02583          	lw	a1,-244(zero) # ffffff0c <MEM_SIZE+0xfffdff0c>
     7c8:	0f300513          	li	a0,243
     7cc:	0ff5f593          	zext.b	a1,a1
     7d0:	535040ef          	jal	ra,5504 <_Z16HPS_spi_uio_cmd8hh>
     7d4:	f1002583          	lw	a1,-240(zero) # ffffff10 <MEM_SIZE+0xfffdff10>
     7d8:	0f400513          	li	a0,244
     7dc:	0ff5f593          	zext.b	a1,a1
     7e0:	525040ef          	jal	ra,5504 <_Z16HPS_spi_uio_cmd8hh>
     7e4:	f1402583          	lw	a1,-236(zero) # ffffff14 <MEM_SIZE+0xfffdff14>
     7e8:	0f800513          	li	a0,248
     7ec:	0ff5f593          	zext.b	a1,a1
     7f0:	515040ef          	jal	ra,5504 <_Z16HPS_spi_uio_cmd8hh>
     7f4:	3579                	jal	682 <minimig_fdd_update>
     7f6:	3de5                	jal	6ee <minimig_hdd_update>
     7f8:	40b2                	lw	ra,12(sp)
     7fa:	6519                	lui	a0,0x6
     7fc:	3e450513          	addi	a0,a0,996 # 63e4 <strlen+0x1b6>
     800:	0141                	addi	sp,sp,16
     802:	3e00506f          	j	5be2 <riscprintff_>

00000806 <_Z19OSD_Keyboard_1_linebi>:
     806:	1101                	addi	sp,sp,-32
     808:	ca26                	sw	s1,20(sp)
     80a:	84aa                	mv	s1,a0
     80c:	cc22                	sw	s0,24(sp)
     80e:	ce06                	sw	ra,28(sp)
     810:	c84a                	sw	s2,16(sp)
     812:	c64e                	sw	s3,12(sp)
     814:	c452                	sw	s4,8(sp)
     816:	c256                	sw	s5,4(sp)
     818:	c05a                	sw	s6,0(sp)
     81a:	842e                	mv	s0,a1
     81c:	2b8050ef          	jal	ra,5ad4 <_Z8OsdClearv>
     820:	2e048b63          	beqz	s1,b16 <_Z19OSD_Keyboard_1_linebi+0x310>
     824:	00143913          	seqz	s2,s0
     828:	6999                	lui	s3,0x6
     82a:	864a                	mv	a2,s2
     82c:	4781                	li	a5,0
     82e:	02000713          	li	a4,32
     832:	4681                	li	a3,0
     834:	43c98593          	addi	a1,s3,1084 # 643c <strlen+0x20e>
     838:	4501                	li	a0,0
     83a:	224050ef          	jal	ra,5a5e <_Z14OsdWriteDirecttPKcbhii>
     83e:	6599                	lui	a1,0x6
     840:	864a                	mv	a2,s2
     842:	4781                	li	a5,0
     844:	02000713          	li	a4,32
     848:	4681                	li	a3,0
     84a:	44058593          	addi	a1,a1,1088 # 6440 <strlen+0x212>
     84e:	4505                	li	a0,1
     850:	20e050ef          	jal	ra,5a5e <_Z14OsdWriteDirecttPKcbhii>
     854:	6599                	lui	a1,0x6
     856:	864a                	mv	a2,s2
     858:	4781                	li	a5,0
     85a:	02000713          	li	a4,32
     85e:	4681                	li	a3,0
     860:	44458593          	addi	a1,a1,1092 # 6444 <strlen+0x216>
     864:	4509                	li	a0,2
     866:	1f8050ef          	jal	ra,5a5e <_Z14OsdWriteDirecttPKcbhii>
     86a:	6a99                	lui	s5,0x6
     86c:	4781                	li	a5,0
     86e:	02000713          	li	a4,32
     872:	4681                	li	a3,0
     874:	4601                	li	a2,0
     876:	448a8593          	addi	a1,s5,1096 # 6448 <strlen+0x21a>
     87a:	450d                	li	a0,3
     87c:	fff40a13          	addi	s4,s0,-1
     880:	6919                	lui	s2,0x6
     882:	1dc050ef          	jal	ra,5a5e <_Z14OsdWriteDirecttPKcbhii>
     886:	001a3a13          	seqz	s4,s4
     88a:	8652                	mv	a2,s4
     88c:	4781                	li	a5,0
     88e:	02000713          	li	a4,32
     892:	4681                	li	a3,0
     894:	44c90593          	addi	a1,s2,1100 # 644c <strlen+0x21e>
     898:	4511                	li	a0,4
     89a:	1c4050ef          	jal	ra,5a5e <_Z14OsdWriteDirecttPKcbhii>
     89e:	6b19                	lui	s6,0x6
     8a0:	8652                	mv	a2,s4
     8a2:	4781                	li	a5,0
     8a4:	02000713          	li	a4,32
     8a8:	4681                	li	a3,0
     8aa:	450b0593          	addi	a1,s6,1104 # 6450 <strlen+0x222>
     8ae:	4515                	li	a0,5
     8b0:	ffe40a13          	addi	s4,s0,-2
     8b4:	1aa050ef          	jal	ra,5a5e <_Z14OsdWriteDirecttPKcbhii>
     8b8:	001a3a13          	seqz	s4,s4
     8bc:	8652                	mv	a2,s4
     8be:	4781                	li	a5,0
     8c0:	02000713          	li	a4,32
     8c4:	4681                	li	a3,0
     8c6:	44c90593          	addi	a1,s2,1100
     8ca:	4519                	li	a0,6
     8cc:	192050ef          	jal	ra,5a5e <_Z14OsdWriteDirecttPKcbhii>
     8d0:	6599                	lui	a1,0x6
     8d2:	8652                	mv	a2,s4
     8d4:	4781                	li	a5,0
     8d6:	02000713          	li	a4,32
     8da:	4681                	li	a3,0
     8dc:	45458593          	addi	a1,a1,1108 # 6454 <strlen+0x226>
     8e0:	451d                	li	a0,7
     8e2:	ffd40a13          	addi	s4,s0,-3
     8e6:	178050ef          	jal	ra,5a5e <_Z14OsdWriteDirecttPKcbhii>
     8ea:	001a3a13          	seqz	s4,s4
     8ee:	8652                	mv	a2,s4
     8f0:	4781                	li	a5,0
     8f2:	02000713          	li	a4,32
     8f6:	4681                	li	a3,0
     8f8:	44c90593          	addi	a1,s2,1100
     8fc:	4521                	li	a0,8
     8fe:	160050ef          	jal	ra,5a5e <_Z14OsdWriteDirecttPKcbhii>
     902:	6599                	lui	a1,0x6
     904:	8652                	mv	a2,s4
     906:	4781                	li	a5,0
     908:	02000713          	li	a4,32
     90c:	4681                	li	a3,0
     90e:	45858593          	addi	a1,a1,1112 # 6458 <strlen+0x22a>
     912:	4525                	li	a0,9
     914:	ffc40a13          	addi	s4,s0,-4
     918:	146050ef          	jal	ra,5a5e <_Z14OsdWriteDirecttPKcbhii>
     91c:	001a3a13          	seqz	s4,s4
     920:	8652                	mv	a2,s4
     922:	4781                	li	a5,0
     924:	02000713          	li	a4,32
     928:	4681                	li	a3,0
     92a:	44c90593          	addi	a1,s2,1100
     92e:	4529                	li	a0,10
     930:	12e050ef          	jal	ra,5a5e <_Z14OsdWriteDirecttPKcbhii>
     934:	6599                	lui	a1,0x6
     936:	8652                	mv	a2,s4
     938:	4781                	li	a5,0
     93a:	02000713          	li	a4,32
     93e:	4681                	li	a3,0
     940:	45c58593          	addi	a1,a1,1116 # 645c <strlen+0x22e>
     944:	452d                	li	a0,11
     946:	ffb40a13          	addi	s4,s0,-5
     94a:	114050ef          	jal	ra,5a5e <_Z14OsdWriteDirecttPKcbhii>
     94e:	001a3a13          	seqz	s4,s4
     952:	8652                	mv	a2,s4
     954:	4781                	li	a5,0
     956:	02000713          	li	a4,32
     95a:	4681                	li	a3,0
     95c:	44c90593          	addi	a1,s2,1100
     960:	4531                	li	a0,12
     962:	0fc050ef          	jal	ra,5a5e <_Z14OsdWriteDirecttPKcbhii>
     966:	6599                	lui	a1,0x6
     968:	8652                	mv	a2,s4
     96a:	4781                	li	a5,0
     96c:	02000713          	li	a4,32
     970:	4681                	li	a3,0
     972:	46058593          	addi	a1,a1,1120 # 6460 <strlen+0x232>
     976:	4535                	li	a0,13
     978:	ffa40a13          	addi	s4,s0,-6
     97c:	0e2050ef          	jal	ra,5a5e <_Z14OsdWriteDirecttPKcbhii>
     980:	001a3a13          	seqz	s4,s4
     984:	8652                	mv	a2,s4
     986:	4781                	li	a5,0
     988:	02000713          	li	a4,32
     98c:	4681                	li	a3,0
     98e:	44c90593          	addi	a1,s2,1100
     992:	4539                	li	a0,14
     994:	0ca050ef          	jal	ra,5a5e <_Z14OsdWriteDirecttPKcbhii>
     998:	6599                	lui	a1,0x6
     99a:	8652                	mv	a2,s4
     99c:	4781                	li	a5,0
     99e:	02000713          	li	a4,32
     9a2:	4681                	li	a3,0
     9a4:	46458593          	addi	a1,a1,1124 # 6464 <strlen+0x236>
     9a8:	453d                	li	a0,15
     9aa:	ff940a13          	addi	s4,s0,-7
     9ae:	0b0050ef          	jal	ra,5a5e <_Z14OsdWriteDirecttPKcbhii>
     9b2:	001a3a13          	seqz	s4,s4
     9b6:	8652                	mv	a2,s4
     9b8:	4781                	li	a5,0
     9ba:	02000713          	li	a4,32
     9be:	4681                	li	a3,0
     9c0:	44c90593          	addi	a1,s2,1100
     9c4:	4541                	li	a0,16
     9c6:	098050ef          	jal	ra,5a5e <_Z14OsdWriteDirecttPKcbhii>
     9ca:	6599                	lui	a1,0x6
     9cc:	8652                	mv	a2,s4
     9ce:	4781                	li	a5,0
     9d0:	02000713          	li	a4,32
     9d4:	4681                	li	a3,0
     9d6:	46858593          	addi	a1,a1,1128 # 6468 <strlen+0x23a>
     9da:	4545                	li	a0,17
     9dc:	ff840a13          	addi	s4,s0,-8
     9e0:	07e050ef          	jal	ra,5a5e <_Z14OsdWriteDirecttPKcbhii>
     9e4:	001a3a13          	seqz	s4,s4
     9e8:	8652                	mv	a2,s4
     9ea:	4781                	li	a5,0
     9ec:	02000713          	li	a4,32
     9f0:	4681                	li	a3,0
     9f2:	44c90593          	addi	a1,s2,1100
     9f6:	4549                	li	a0,18
     9f8:	066050ef          	jal	ra,5a5e <_Z14OsdWriteDirecttPKcbhii>
     9fc:	6599                	lui	a1,0x6
     9fe:	8652                	mv	a2,s4
     a00:	4781                	li	a5,0
     a02:	02000713          	li	a4,32
     a06:	4681                	li	a3,0
     a08:	46c58593          	addi	a1,a1,1132 # 646c <strlen+0x23e>
     a0c:	454d                	li	a0,19
     a0e:	ff740a13          	addi	s4,s0,-9
     a12:	04c050ef          	jal	ra,5a5e <_Z14OsdWriteDirecttPKcbhii>
     a16:	001a3a13          	seqz	s4,s4
     a1a:	8652                	mv	a2,s4
     a1c:	4781                	li	a5,0
     a1e:	02000713          	li	a4,32
     a22:	4681                	li	a3,0
     a24:	44c90593          	addi	a1,s2,1100
     a28:	4551                	li	a0,20
     a2a:	034050ef          	jal	ra,5a5e <_Z14OsdWriteDirecttPKcbhii>
     a2e:	6599                	lui	a1,0x6
     a30:	8652                	mv	a2,s4
     a32:	4781                	li	a5,0
     a34:	02000713          	li	a4,32
     a38:	4681                	li	a3,0
     a3a:	47058593          	addi	a1,a1,1136 # 6470 <strlen+0x242>
     a3e:	4555                	li	a0,21
     a40:	ff640a13          	addi	s4,s0,-10
     a44:	01a050ef          	jal	ra,5a5e <_Z14OsdWriteDirecttPKcbhii>
     a48:	001a3a13          	seqz	s4,s4
     a4c:	4781                	li	a5,0
     a4e:	02000713          	li	a4,32
     a52:	4681                	li	a3,0
     a54:	8652                	mv	a2,s4
     a56:	44c90593          	addi	a1,s2,1100
     a5a:	4559                	li	a0,22
     a5c:	002050ef          	jal	ra,5a5e <_Z14OsdWriteDirecttPKcbhii>
     a60:	4781                	li	a5,0
     a62:	02000713          	li	a4,32
     a66:	4681                	li	a3,0
     a68:	8652                	mv	a2,s4
     a6a:	450b0593          	addi	a1,s6,1104
     a6e:	455d                	li	a0,23
     a70:	7ef040ef          	jal	ra,5a5e <_Z14OsdWriteDirecttPKcbhii>
     a74:	6599                	lui	a1,0x6
     a76:	4781                	li	a5,0
     a78:	02000713          	li	a4,32
     a7c:	4681                	li	a3,0
     a7e:	8652                	mv	a2,s4
     a80:	47458593          	addi	a1,a1,1140 # 6474 <strlen+0x246>
     a84:	4561                	li	a0,24
     a86:	7d9040ef          	jal	ra,5a5e <_Z14OsdWriteDirecttPKcbhii>
     a8a:	4781                	li	a5,0
     a8c:	02000713          	li	a4,32
     a90:	4681                	li	a3,0
     a92:	4601                	li	a2,0
     a94:	448a8593          	addi	a1,s5,1096
     a98:	4565                	li	a0,25
     a9a:	7c5040ef          	jal	ra,5a5e <_Z14OsdWriteDirecttPKcbhii>
     a9e:	1455                	addi	s0,s0,-11
     aa0:	4785                	li	a5,1
     aa2:	0087f363          	bgeu	a5,s0,aa8 <_Z19OSD_Keyboard_1_linebi+0x2a2>
     aa6:	4481                	li	s1,0
     aa8:	6599                	lui	a1,0x6
     aaa:	8626                	mv	a2,s1
     aac:	4781                	li	a5,0
     aae:	02000713          	li	a4,32
     ab2:	4681                	li	a3,0
     ab4:	47858593          	addi	a1,a1,1144 # 6478 <strlen+0x24a>
     ab8:	4569                	li	a0,26
     aba:	7a5040ef          	jal	ra,5a5e <_Z14OsdWriteDirecttPKcbhii>
     abe:	8626                	mv	a2,s1
     ac0:	43c98593          	addi	a1,s3,1084
     ac4:	4781                	li	a5,0
     ac6:	02000713          	li	a4,32
     aca:	4681                	li	a3,0
     acc:	456d                	li	a0,27
     ace:	791040ef          	jal	ra,5a5e <_Z14OsdWriteDirecttPKcbhii>
     ad2:	6599                	lui	a1,0x6
     ad4:	8626                	mv	a2,s1
     ad6:	4781                	li	a5,0
     ad8:	02000713          	li	a4,32
     adc:	4681                	li	a3,0
     ade:	47c58593          	addi	a1,a1,1148 # 647c <strlen+0x24e>
     ae2:	4571                	li	a0,28
     ae4:	77b040ef          	jal	ra,5a5e <_Z14OsdWriteDirecttPKcbhii>
     ae8:	6599                	lui	a1,0x6
     aea:	4575                	li	a0,29
     aec:	8626                	mv	a2,s1
     aee:	4781                	li	a5,0
     af0:	02000713          	li	a4,32
     af4:	4681                	li	a3,0
     af6:	48058593          	addi	a1,a1,1152 # 6480 <strlen+0x252>
     afa:	765040ef          	jal	ra,5a5e <_Z14OsdWriteDirecttPKcbhii>
     afe:	4462                	lw	s0,24(sp)
     b00:	40f2                	lw	ra,28(sp)
     b02:	44d2                	lw	s1,20(sp)
     b04:	4942                	lw	s2,16(sp)
     b06:	49b2                	lw	s3,12(sp)
     b08:	4a22                	lw	s4,8(sp)
     b0a:	4a92                	lw	s5,4(sp)
     b0c:	4b02                	lw	s6,0(sp)
     b0e:	4505                	li	a0,1
     b10:	6105                	addi	sp,sp,32
     b12:	0620506f          	j	5b74 <_Z9OsdUpdatei>
     b16:	6999                	lui	s3,0x6
     b18:	43c98593          	addi	a1,s3,1084 # 643c <strlen+0x20e>
     b1c:	4781                	li	a5,0
     b1e:	02000713          	li	a4,32
     b22:	4681                	li	a3,0
     b24:	4601                	li	a2,0
     b26:	4501                	li	a0,0
     b28:	737040ef          	jal	ra,5a5e <_Z14OsdWriteDirecttPKcbhii>
     b2c:	6599                	lui	a1,0x6
     b2e:	44058593          	addi	a1,a1,1088 # 6440 <strlen+0x212>
     b32:	4781                	li	a5,0
     b34:	02000713          	li	a4,32
     b38:	4681                	li	a3,0
     b3a:	4601                	li	a2,0
     b3c:	4505                	li	a0,1
     b3e:	721040ef          	jal	ra,5a5e <_Z14OsdWriteDirecttPKcbhii>
     b42:	6599                	lui	a1,0x6
     b44:	44458593          	addi	a1,a1,1092 # 6444 <strlen+0x216>
     b48:	4781                	li	a5,0
     b4a:	02000713          	li	a4,32
     b4e:	4681                	li	a3,0
     b50:	4601                	li	a2,0
     b52:	4509                	li	a0,2
     b54:	70b040ef          	jal	ra,5a5e <_Z14OsdWriteDirecttPKcbhii>
     b58:	6499                	lui	s1,0x6
     b5a:	44848593          	addi	a1,s1,1096 # 6448 <strlen+0x21a>
     b5e:	4781                	li	a5,0
     b60:	02000713          	li	a4,32
     b64:	4681                	li	a3,0
     b66:	4601                	li	a2,0
     b68:	450d                	li	a0,3
     b6a:	6419                	lui	s0,0x6
     b6c:	6f3040ef          	jal	ra,5a5e <_Z14OsdWriteDirecttPKcbhii>
     b70:	44c40593          	addi	a1,s0,1100 # 644c <strlen+0x21e>
     b74:	4781                	li	a5,0
     b76:	02000713          	li	a4,32
     b7a:	4681                	li	a3,0
     b7c:	4601                	li	a2,0
     b7e:	4511                	li	a0,4
     b80:	6df040ef          	jal	ra,5a5e <_Z14OsdWriteDirecttPKcbhii>
     b84:	6919                	lui	s2,0x6
     b86:	45090593          	addi	a1,s2,1104 # 6450 <strlen+0x222>
     b8a:	4781                	li	a5,0
     b8c:	02000713          	li	a4,32
     b90:	4681                	li	a3,0
     b92:	4601                	li	a2,0
     b94:	4515                	li	a0,5
     b96:	6c9040ef          	jal	ra,5a5e <_Z14OsdWriteDirecttPKcbhii>
     b9a:	44c40593          	addi	a1,s0,1100
     b9e:	4781                	li	a5,0
     ba0:	02000713          	li	a4,32
     ba4:	4681                	li	a3,0
     ba6:	4601                	li	a2,0
     ba8:	4519                	li	a0,6
     baa:	6b5040ef          	jal	ra,5a5e <_Z14OsdWriteDirecttPKcbhii>
     bae:	6599                	lui	a1,0x6
     bb0:	45458593          	addi	a1,a1,1108 # 6454 <strlen+0x226>
     bb4:	4781                	li	a5,0
     bb6:	02000713          	li	a4,32
     bba:	4681                	li	a3,0
     bbc:	4601                	li	a2,0
     bbe:	451d                	li	a0,7
     bc0:	69f040ef          	jal	ra,5a5e <_Z14OsdWriteDirecttPKcbhii>
     bc4:	44c40593          	addi	a1,s0,1100
     bc8:	4781                	li	a5,0
     bca:	02000713          	li	a4,32
     bce:	4681                	li	a3,0
     bd0:	4601                	li	a2,0
     bd2:	4521                	li	a0,8
     bd4:	68b040ef          	jal	ra,5a5e <_Z14OsdWriteDirecttPKcbhii>
     bd8:	6599                	lui	a1,0x6
     bda:	45858593          	addi	a1,a1,1112 # 6458 <strlen+0x22a>
     bde:	4781                	li	a5,0
     be0:	02000713          	li	a4,32
     be4:	4681                	li	a3,0
     be6:	4601                	li	a2,0
     be8:	4525                	li	a0,9
     bea:	675040ef          	jal	ra,5a5e <_Z14OsdWriteDirecttPKcbhii>
     bee:	44c40593          	addi	a1,s0,1100
     bf2:	4781                	li	a5,0
     bf4:	02000713          	li	a4,32
     bf8:	4681                	li	a3,0
     bfa:	4601                	li	a2,0
     bfc:	4529                	li	a0,10
     bfe:	661040ef          	jal	ra,5a5e <_Z14OsdWriteDirecttPKcbhii>
     c02:	6599                	lui	a1,0x6
     c04:	45c58593          	addi	a1,a1,1116 # 645c <strlen+0x22e>
     c08:	4781                	li	a5,0
     c0a:	02000713          	li	a4,32
     c0e:	4681                	li	a3,0
     c10:	4601                	li	a2,0
     c12:	452d                	li	a0,11
     c14:	64b040ef          	jal	ra,5a5e <_Z14OsdWriteDirecttPKcbhii>
     c18:	44c40593          	addi	a1,s0,1100
     c1c:	4781                	li	a5,0
     c1e:	02000713          	li	a4,32
     c22:	4681                	li	a3,0
     c24:	4601                	li	a2,0
     c26:	4531                	li	a0,12
     c28:	637040ef          	jal	ra,5a5e <_Z14OsdWriteDirecttPKcbhii>
     c2c:	6599                	lui	a1,0x6
     c2e:	46058593          	addi	a1,a1,1120 # 6460 <strlen+0x232>
     c32:	4781                	li	a5,0
     c34:	02000713          	li	a4,32
     c38:	4681                	li	a3,0
     c3a:	4601                	li	a2,0
     c3c:	4535                	li	a0,13
     c3e:	621040ef          	jal	ra,5a5e <_Z14OsdWriteDirecttPKcbhii>
     c42:	44c40593          	addi	a1,s0,1100
     c46:	4781                	li	a5,0
     c48:	02000713          	li	a4,32
     c4c:	4681                	li	a3,0
     c4e:	4601                	li	a2,0
     c50:	4539                	li	a0,14
     c52:	60d040ef          	jal	ra,5a5e <_Z14OsdWriteDirecttPKcbhii>
     c56:	6599                	lui	a1,0x6
     c58:	46458593          	addi	a1,a1,1124 # 6464 <strlen+0x236>
     c5c:	4781                	li	a5,0
     c5e:	02000713          	li	a4,32
     c62:	4681                	li	a3,0
     c64:	4601                	li	a2,0
     c66:	453d                	li	a0,15
     c68:	5f7040ef          	jal	ra,5a5e <_Z14OsdWriteDirecttPKcbhii>
     c6c:	44c40593          	addi	a1,s0,1100
     c70:	4781                	li	a5,0
     c72:	02000713          	li	a4,32
     c76:	4681                	li	a3,0
     c78:	4601                	li	a2,0
     c7a:	4541                	li	a0,16
     c7c:	5e3040ef          	jal	ra,5a5e <_Z14OsdWriteDirecttPKcbhii>
     c80:	6599                	lui	a1,0x6
     c82:	46858593          	addi	a1,a1,1128 # 6468 <strlen+0x23a>
     c86:	4781                	li	a5,0
     c88:	02000713          	li	a4,32
     c8c:	4681                	li	a3,0
     c8e:	4601                	li	a2,0
     c90:	4545                	li	a0,17
     c92:	5cd040ef          	jal	ra,5a5e <_Z14OsdWriteDirecttPKcbhii>
     c96:	44c40593          	addi	a1,s0,1100
     c9a:	4781                	li	a5,0
     c9c:	02000713          	li	a4,32
     ca0:	4681                	li	a3,0
     ca2:	4601                	li	a2,0
     ca4:	4549                	li	a0,18
     ca6:	5b9040ef          	jal	ra,5a5e <_Z14OsdWriteDirecttPKcbhii>
     caa:	6599                	lui	a1,0x6
     cac:	46c58593          	addi	a1,a1,1132 # 646c <strlen+0x23e>
     cb0:	4781                	li	a5,0
     cb2:	02000713          	li	a4,32
     cb6:	4681                	li	a3,0
     cb8:	4601                	li	a2,0
     cba:	454d                	li	a0,19
     cbc:	5a3040ef          	jal	ra,5a5e <_Z14OsdWriteDirecttPKcbhii>
     cc0:	44c40593          	addi	a1,s0,1100
     cc4:	4781                	li	a5,0
     cc6:	02000713          	li	a4,32
     cca:	4681                	li	a3,0
     ccc:	4601                	li	a2,0
     cce:	4551                	li	a0,20
     cd0:	58f040ef          	jal	ra,5a5e <_Z14OsdWriteDirecttPKcbhii>
     cd4:	6599                	lui	a1,0x6
     cd6:	47058593          	addi	a1,a1,1136 # 6470 <strlen+0x242>
     cda:	4781                	li	a5,0
     cdc:	02000713          	li	a4,32
     ce0:	4681                	li	a3,0
     ce2:	4601                	li	a2,0
     ce4:	4555                	li	a0,21
     ce6:	579040ef          	jal	ra,5a5e <_Z14OsdWriteDirecttPKcbhii>
     cea:	44c40593          	addi	a1,s0,1100
     cee:	4781                	li	a5,0
     cf0:	02000713          	li	a4,32
     cf4:	4681                	li	a3,0
     cf6:	4601                	li	a2,0
     cf8:	4559                	li	a0,22
     cfa:	565040ef          	jal	ra,5a5e <_Z14OsdWriteDirecttPKcbhii>
     cfe:	45090593          	addi	a1,s2,1104
     d02:	4781                	li	a5,0
     d04:	02000713          	li	a4,32
     d08:	4681                	li	a3,0
     d0a:	4601                	li	a2,0
     d0c:	455d                	li	a0,23
     d0e:	551040ef          	jal	ra,5a5e <_Z14OsdWriteDirecttPKcbhii>
     d12:	6599                	lui	a1,0x6
     d14:	47458593          	addi	a1,a1,1140 # 6474 <strlen+0x246>
     d18:	4781                	li	a5,0
     d1a:	02000713          	li	a4,32
     d1e:	4681                	li	a3,0
     d20:	4601                	li	a2,0
     d22:	4561                	li	a0,24
     d24:	53b040ef          	jal	ra,5a5e <_Z14OsdWriteDirecttPKcbhii>
     d28:	44848593          	addi	a1,s1,1096
     d2c:	4781                	li	a5,0
     d2e:	02000713          	li	a4,32
     d32:	4681                	li	a3,0
     d34:	4601                	li	a2,0
     d36:	4565                	li	a0,25
     d38:	527040ef          	jal	ra,5a5e <_Z14OsdWriteDirecttPKcbhii>
     d3c:	4481                	li	s1,0
     d3e:	b3ad                	j	aa8 <_Z19OSD_Keyboard_1_linebi+0x2a2>

00000d40 <_Z19OSD_Keyboard_2_linebi>:
     d40:	1141                	addi	sp,sp,-16
     d42:	c226                	sw	s1,4(sp)
     d44:	84aa                	mv	s1,a0
     d46:	c422                	sw	s0,8(sp)
     d48:	c606                	sw	ra,12(sp)
     d4a:	c04a                	sw	s2,0(sp)
     d4c:	842e                	mv	s0,a1
     d4e:	587040ef          	jal	ra,5ad4 <_Z8OsdClearv>
     d52:	2e048763          	beqz	s1,1040 <_Z19OSD_Keyboard_2_linebi+0x300>
     d56:	6599                	lui	a1,0x6
     d58:	4781                	li	a5,0
     d5a:	02000713          	li	a4,32
     d5e:	4681                	li	a3,0
     d60:	00143613          	seqz	a2,s0
     d64:	48458593          	addi	a1,a1,1156 # 6484 <strlen+0x256>
     d68:	4501                	li	a0,0
     d6a:	4f5040ef          	jal	ra,5a5e <_Z14OsdWriteDirecttPKcbhii>
     d6e:	fff40613          	addi	a2,s0,-1
     d72:	6599                	lui	a1,0x6
     d74:	4781                	li	a5,0
     d76:	02000713          	li	a4,32
     d7a:	4681                	li	a3,0
     d7c:	00163613          	seqz	a2,a2
     d80:	45058593          	addi	a1,a1,1104 # 6450 <strlen+0x222>
     d84:	4505                	li	a0,1
     d86:	6499                	lui	s1,0x6
     d88:	4d7040ef          	jal	ra,5a5e <_Z14OsdWriteDirecttPKcbhii>
     d8c:	44848593          	addi	a1,s1,1096 # 6448 <strlen+0x21a>
     d90:	4781                	li	a5,0
     d92:	02000713          	li	a4,32
     d96:	4681                	li	a3,0
     d98:	4601                	li	a2,0
     d9a:	4509                	li	a0,2
     d9c:	4c3040ef          	jal	ra,5a5e <_Z14OsdWriteDirecttPKcbhii>
     da0:	ffe40613          	addi	a2,s0,-2
     da4:	6599                	lui	a1,0x6
     da6:	4781                	li	a5,0
     da8:	02000713          	li	a4,32
     dac:	4681                	li	a3,0
     dae:	00163613          	seqz	a2,a2
     db2:	45458593          	addi	a1,a1,1108 # 6454 <strlen+0x226>
     db6:	450d                	li	a0,3
     db8:	4a7040ef          	jal	ra,5a5e <_Z14OsdWriteDirecttPKcbhii>
     dbc:	44848593          	addi	a1,s1,1096
     dc0:	4781                	li	a5,0
     dc2:	02000713          	li	a4,32
     dc6:	4681                	li	a3,0
     dc8:	4601                	li	a2,0
     dca:	4511                	li	a0,4
     dcc:	493040ef          	jal	ra,5a5e <_Z14OsdWriteDirecttPKcbhii>
     dd0:	ffd40613          	addi	a2,s0,-3
     dd4:	6599                	lui	a1,0x6
     dd6:	4781                	li	a5,0
     dd8:	02000713          	li	a4,32
     ddc:	4681                	li	a3,0
     dde:	00163613          	seqz	a2,a2
     de2:	45858593          	addi	a1,a1,1112 # 6458 <strlen+0x22a>
     de6:	4515                	li	a0,5
     de8:	477040ef          	jal	ra,5a5e <_Z14OsdWriteDirecttPKcbhii>
     dec:	44848593          	addi	a1,s1,1096
     df0:	4781                	li	a5,0
     df2:	02000713          	li	a4,32
     df6:	4681                	li	a3,0
     df8:	4601                	li	a2,0
     dfa:	4519                	li	a0,6
     dfc:	463040ef          	jal	ra,5a5e <_Z14OsdWriteDirecttPKcbhii>
     e00:	ffc40613          	addi	a2,s0,-4
     e04:	6599                	lui	a1,0x6
     e06:	4781                	li	a5,0
     e08:	02000713          	li	a4,32
     e0c:	4681                	li	a3,0
     e0e:	00163613          	seqz	a2,a2
     e12:	45c58593          	addi	a1,a1,1116 # 645c <strlen+0x22e>
     e16:	451d                	li	a0,7
     e18:	447040ef          	jal	ra,5a5e <_Z14OsdWriteDirecttPKcbhii>
     e1c:	44848593          	addi	a1,s1,1096
     e20:	4781                	li	a5,0
     e22:	02000713          	li	a4,32
     e26:	4681                	li	a3,0
     e28:	4601                	li	a2,0
     e2a:	4521                	li	a0,8
     e2c:	433040ef          	jal	ra,5a5e <_Z14OsdWriteDirecttPKcbhii>
     e30:	ffb40613          	addi	a2,s0,-5
     e34:	6599                	lui	a1,0x6
     e36:	4781                	li	a5,0
     e38:	02000713          	li	a4,32
     e3c:	4681                	li	a3,0
     e3e:	00163613          	seqz	a2,a2
     e42:	46058593          	addi	a1,a1,1120 # 6460 <strlen+0x232>
     e46:	4525                	li	a0,9
     e48:	417040ef          	jal	ra,5a5e <_Z14OsdWriteDirecttPKcbhii>
     e4c:	44848593          	addi	a1,s1,1096
     e50:	4781                	li	a5,0
     e52:	02000713          	li	a4,32
     e56:	4681                	li	a3,0
     e58:	4601                	li	a2,0
     e5a:	4529                	li	a0,10
     e5c:	403040ef          	jal	ra,5a5e <_Z14OsdWriteDirecttPKcbhii>
     e60:	ffa40613          	addi	a2,s0,-6
     e64:	6599                	lui	a1,0x6
     e66:	4781                	li	a5,0
     e68:	02000713          	li	a4,32
     e6c:	4681                	li	a3,0
     e6e:	00163613          	seqz	a2,a2
     e72:	46458593          	addi	a1,a1,1124 # 6464 <strlen+0x236>
     e76:	452d                	li	a0,11
     e78:	3e7040ef          	jal	ra,5a5e <_Z14OsdWriteDirecttPKcbhii>
     e7c:	44848593          	addi	a1,s1,1096
     e80:	4781                	li	a5,0
     e82:	02000713          	li	a4,32
     e86:	4681                	li	a3,0
     e88:	4601                	li	a2,0
     e8a:	4531                	li	a0,12
     e8c:	3d3040ef          	jal	ra,5a5e <_Z14OsdWriteDirecttPKcbhii>
     e90:	ff940613          	addi	a2,s0,-7
     e94:	6599                	lui	a1,0x6
     e96:	4781                	li	a5,0
     e98:	02000713          	li	a4,32
     e9c:	4681                	li	a3,0
     e9e:	00163613          	seqz	a2,a2
     ea2:	46858593          	addi	a1,a1,1128 # 6468 <strlen+0x23a>
     ea6:	4535                	li	a0,13
     ea8:	3b7040ef          	jal	ra,5a5e <_Z14OsdWriteDirecttPKcbhii>
     eac:	44848593          	addi	a1,s1,1096
     eb0:	4781                	li	a5,0
     eb2:	02000713          	li	a4,32
     eb6:	4681                	li	a3,0
     eb8:	4601                	li	a2,0
     eba:	4539                	li	a0,14
     ebc:	3a3040ef          	jal	ra,5a5e <_Z14OsdWriteDirecttPKcbhii>
     ec0:	ff840613          	addi	a2,s0,-8
     ec4:	6599                	lui	a1,0x6
     ec6:	4781                	li	a5,0
     ec8:	02000713          	li	a4,32
     ecc:	4681                	li	a3,0
     ece:	00163613          	seqz	a2,a2
     ed2:	46c58593          	addi	a1,a1,1132 # 646c <strlen+0x23e>
     ed6:	453d                	li	a0,15
     ed8:	387040ef          	jal	ra,5a5e <_Z14OsdWriteDirecttPKcbhii>
     edc:	44848593          	addi	a1,s1,1096
     ee0:	4781                	li	a5,0
     ee2:	02000713          	li	a4,32
     ee6:	4681                	li	a3,0
     ee8:	4601                	li	a2,0
     eea:	4541                	li	a0,16
     eec:	373040ef          	jal	ra,5a5e <_Z14OsdWriteDirecttPKcbhii>
     ef0:	ff740613          	addi	a2,s0,-9
     ef4:	6599                	lui	a1,0x6
     ef6:	4781                	li	a5,0
     ef8:	02000713          	li	a4,32
     efc:	4681                	li	a3,0
     efe:	00163613          	seqz	a2,a2
     f02:	47058593          	addi	a1,a1,1136 # 6470 <strlen+0x242>
     f06:	4545                	li	a0,17
     f08:	357040ef          	jal	ra,5a5e <_Z14OsdWriteDirecttPKcbhii>
     f0c:	44848593          	addi	a1,s1,1096
     f10:	4781                	li	a5,0
     f12:	02000713          	li	a4,32
     f16:	4681                	li	a3,0
     f18:	4601                	li	a2,0
     f1a:	4549                	li	a0,18
     f1c:	343040ef          	jal	ra,5a5e <_Z14OsdWriteDirecttPKcbhii>
     f20:	ff640613          	addi	a2,s0,-10
     f24:	6599                	lui	a1,0x6
     f26:	4781                	li	a5,0
     f28:	02000713          	li	a4,32
     f2c:	4681                	li	a3,0
     f2e:	00163613          	seqz	a2,a2
     f32:	47458593          	addi	a1,a1,1140 # 6474 <strlen+0x246>
     f36:	454d                	li	a0,19
     f38:	327040ef          	jal	ra,5a5e <_Z14OsdWriteDirecttPKcbhii>
     f3c:	ff540613          	addi	a2,s0,-11
     f40:	6599                	lui	a1,0x6
     f42:	4781                	li	a5,0
     f44:	02000713          	li	a4,32
     f48:	4681                	li	a3,0
     f4a:	00163613          	seqz	a2,a2
     f4e:	48858593          	addi	a1,a1,1160 # 6488 <strlen+0x25a>
     f52:	4551                	li	a0,20
     f54:	30b040ef          	jal	ra,5a5e <_Z14OsdWriteDirecttPKcbhii>
     f58:	ff440613          	addi	a2,s0,-12
     f5c:	6599                	lui	a1,0x6
     f5e:	4781                	li	a5,0
     f60:	02000713          	li	a4,32
     f64:	4681                	li	a3,0
     f66:	00163613          	seqz	a2,a2
     f6a:	48c58593          	addi	a1,a1,1164 # 648c <strlen+0x25e>
     f6e:	4555                	li	a0,21
     f70:	2ef040ef          	jal	ra,5a5e <_Z14OsdWriteDirecttPKcbhii>
     f74:	44848593          	addi	a1,s1,1096
     f78:	4781                	li	a5,0
     f7a:	02000713          	li	a4,32
     f7e:	4681                	li	a3,0
     f80:	4601                	li	a2,0
     f82:	4559                	li	a0,22
     f84:	2db040ef          	jal	ra,5a5e <_Z14OsdWriteDirecttPKcbhii>
     f88:	ff340913          	addi	s2,s0,-13
     f8c:	00193913          	seqz	s2,s2
     f90:	6599                	lui	a1,0x6
     f92:	4781                	li	a5,0
     f94:	02000713          	li	a4,32
     f98:	4681                	li	a3,0
     f9a:	864a                	mv	a2,s2
     f9c:	49058593          	addi	a1,a1,1168 # 6490 <strlen+0x262>
     fa0:	455d                	li	a0,23
     fa2:	2bd040ef          	jal	ra,5a5e <_Z14OsdWriteDirecttPKcbhii>
     fa6:	6599                	lui	a1,0x6
     fa8:	4781                	li	a5,0
     faa:	02000713          	li	a4,32
     fae:	4681                	li	a3,0
     fb0:	864a                	mv	a2,s2
     fb2:	44058593          	addi	a1,a1,1088 # 6440 <strlen+0x212>
     fb6:	4561                	li	a0,24
     fb8:	2a7040ef          	jal	ra,5a5e <_Z14OsdWriteDirecttPKcbhii>
     fbc:	6599                	lui	a1,0x6
     fbe:	4781                	li	a5,0
     fc0:	02000713          	li	a4,32
     fc4:	4681                	li	a3,0
     fc6:	864a                	mv	a2,s2
     fc8:	48058593          	addi	a1,a1,1152 # 6480 <strlen+0x252>
     fcc:	4565                	li	a0,25
     fce:	291040ef          	jal	ra,5a5e <_Z14OsdWriteDirecttPKcbhii>
     fd2:	44848593          	addi	a1,s1,1096
     fd6:	4569                	li	a0,26
     fd8:	4781                	li	a5,0
     fda:	02000713          	li	a4,32
     fde:	4681                	li	a3,0
     fe0:	4601                	li	a2,0
     fe2:	27d040ef          	jal	ra,5a5e <_Z14OsdWriteDirecttPKcbhii>
     fe6:	ff240513          	addi	a0,s0,-14
     fea:	00153493          	seqz	s1,a0
     fee:	6599                	lui	a1,0x6
     ff0:	8626                	mv	a2,s1
     ff2:	4781                	li	a5,0
     ff4:	02000713          	li	a4,32
     ff8:	4681                	li	a3,0
     ffa:	49458593          	addi	a1,a1,1172 # 6494 <strlen+0x266>
     ffe:	456d                	li	a0,27
    1000:	25f040ef          	jal	ra,5a5e <_Z14OsdWriteDirecttPKcbhii>
    1004:	6599                	lui	a1,0x6
    1006:	8626                	mv	a2,s1
    1008:	4781                	li	a5,0
    100a:	02000713          	li	a4,32
    100e:	4681                	li	a3,0
    1010:	43c58593          	addi	a1,a1,1084 # 643c <strlen+0x20e>
    1014:	4571                	li	a0,28
    1016:	249040ef          	jal	ra,5a5e <_Z14OsdWriteDirecttPKcbhii>
    101a:	6599                	lui	a1,0x6
    101c:	4575                	li	a0,29
    101e:	8626                	mv	a2,s1
    1020:	4781                	li	a5,0
    1022:	02000713          	li	a4,32
    1026:	4681                	li	a3,0
    1028:	47c58593          	addi	a1,a1,1148 # 647c <strlen+0x24e>
    102c:	233040ef          	jal	ra,5a5e <_Z14OsdWriteDirecttPKcbhii>
    1030:	4422                	lw	s0,8(sp)
    1032:	40b2                	lw	ra,12(sp)
    1034:	4492                	lw	s1,4(sp)
    1036:	4902                	lw	s2,0(sp)
    1038:	4509                	li	a0,2
    103a:	0141                	addi	sp,sp,16
    103c:	3390406f          	j	5b74 <_Z9OsdUpdatei>
    1040:	6599                	lui	a1,0x6
    1042:	48458593          	addi	a1,a1,1156 # 6484 <strlen+0x256>
    1046:	4781                	li	a5,0
    1048:	02000713          	li	a4,32
    104c:	4681                	li	a3,0
    104e:	4601                	li	a2,0
    1050:	4501                	li	a0,0
    1052:	20d040ef          	jal	ra,5a5e <_Z14OsdWriteDirecttPKcbhii>
    1056:	6599                	lui	a1,0x6
    1058:	45058593          	addi	a1,a1,1104 # 6450 <strlen+0x222>
    105c:	4781                	li	a5,0
    105e:	02000713          	li	a4,32
    1062:	4681                	li	a3,0
    1064:	4601                	li	a2,0
    1066:	4505                	li	a0,1
    1068:	6419                	lui	s0,0x6
    106a:	1f5040ef          	jal	ra,5a5e <_Z14OsdWriteDirecttPKcbhii>
    106e:	44840593          	addi	a1,s0,1096 # 6448 <strlen+0x21a>
    1072:	4781                	li	a5,0
    1074:	02000713          	li	a4,32
    1078:	4681                	li	a3,0
    107a:	4601                	li	a2,0
    107c:	4509                	li	a0,2
    107e:	1e1040ef          	jal	ra,5a5e <_Z14OsdWriteDirecttPKcbhii>
    1082:	6599                	lui	a1,0x6
    1084:	45458593          	addi	a1,a1,1108 # 6454 <strlen+0x226>
    1088:	4781                	li	a5,0
    108a:	02000713          	li	a4,32
    108e:	4681                	li	a3,0
    1090:	4601                	li	a2,0
    1092:	450d                	li	a0,3
    1094:	1cb040ef          	jal	ra,5a5e <_Z14OsdWriteDirecttPKcbhii>
    1098:	44840593          	addi	a1,s0,1096
    109c:	4781                	li	a5,0
    109e:	02000713          	li	a4,32
    10a2:	4681                	li	a3,0
    10a4:	4601                	li	a2,0
    10a6:	4511                	li	a0,4
    10a8:	1b7040ef          	jal	ra,5a5e <_Z14OsdWriteDirecttPKcbhii>
    10ac:	6599                	lui	a1,0x6
    10ae:	45858593          	addi	a1,a1,1112 # 6458 <strlen+0x22a>
    10b2:	4781                	li	a5,0
    10b4:	02000713          	li	a4,32
    10b8:	4681                	li	a3,0
    10ba:	4601                	li	a2,0
    10bc:	4515                	li	a0,5
    10be:	1a1040ef          	jal	ra,5a5e <_Z14OsdWriteDirecttPKcbhii>
    10c2:	44840593          	addi	a1,s0,1096
    10c6:	4781                	li	a5,0
    10c8:	02000713          	li	a4,32
    10cc:	4681                	li	a3,0
    10ce:	4601                	li	a2,0
    10d0:	4519                	li	a0,6
    10d2:	18d040ef          	jal	ra,5a5e <_Z14OsdWriteDirecttPKcbhii>
    10d6:	6599                	lui	a1,0x6
    10d8:	45c58593          	addi	a1,a1,1116 # 645c <strlen+0x22e>
    10dc:	4781                	li	a5,0
    10de:	02000713          	li	a4,32
    10e2:	4681                	li	a3,0
    10e4:	4601                	li	a2,0
    10e6:	451d                	li	a0,7
    10e8:	177040ef          	jal	ra,5a5e <_Z14OsdWriteDirecttPKcbhii>
    10ec:	44840593          	addi	a1,s0,1096
    10f0:	4781                	li	a5,0
    10f2:	02000713          	li	a4,32
    10f6:	4681                	li	a3,0
    10f8:	4601                	li	a2,0
    10fa:	4521                	li	a0,8
    10fc:	163040ef          	jal	ra,5a5e <_Z14OsdWriteDirecttPKcbhii>
    1100:	6599                	lui	a1,0x6
    1102:	46058593          	addi	a1,a1,1120 # 6460 <strlen+0x232>
    1106:	4781                	li	a5,0
    1108:	02000713          	li	a4,32
    110c:	4681                	li	a3,0
    110e:	4601                	li	a2,0
    1110:	4525                	li	a0,9
    1112:	14d040ef          	jal	ra,5a5e <_Z14OsdWriteDirecttPKcbhii>
    1116:	44840593          	addi	a1,s0,1096
    111a:	4781                	li	a5,0
    111c:	02000713          	li	a4,32
    1120:	4681                	li	a3,0
    1122:	4601                	li	a2,0
    1124:	4529                	li	a0,10
    1126:	139040ef          	jal	ra,5a5e <_Z14OsdWriteDirecttPKcbhii>
    112a:	6599                	lui	a1,0x6
    112c:	46458593          	addi	a1,a1,1124 # 6464 <strlen+0x236>
    1130:	4781                	li	a5,0
    1132:	02000713          	li	a4,32
    1136:	4681                	li	a3,0
    1138:	4601                	li	a2,0
    113a:	452d                	li	a0,11
    113c:	123040ef          	jal	ra,5a5e <_Z14OsdWriteDirecttPKcbhii>
    1140:	44840593          	addi	a1,s0,1096
    1144:	4781                	li	a5,0
    1146:	02000713          	li	a4,32
    114a:	4681                	li	a3,0
    114c:	4601                	li	a2,0
    114e:	4531                	li	a0,12
    1150:	10f040ef          	jal	ra,5a5e <_Z14OsdWriteDirecttPKcbhii>
    1154:	6599                	lui	a1,0x6
    1156:	46858593          	addi	a1,a1,1128 # 6468 <strlen+0x23a>
    115a:	4781                	li	a5,0
    115c:	02000713          	li	a4,32
    1160:	4681                	li	a3,0
    1162:	4601                	li	a2,0
    1164:	4535                	li	a0,13
    1166:	0f9040ef          	jal	ra,5a5e <_Z14OsdWriteDirecttPKcbhii>
    116a:	44840593          	addi	a1,s0,1096
    116e:	4781                	li	a5,0
    1170:	02000713          	li	a4,32
    1174:	4681                	li	a3,0
    1176:	4601                	li	a2,0
    1178:	4539                	li	a0,14
    117a:	0e5040ef          	jal	ra,5a5e <_Z14OsdWriteDirecttPKcbhii>
    117e:	6599                	lui	a1,0x6
    1180:	46c58593          	addi	a1,a1,1132 # 646c <strlen+0x23e>
    1184:	4781                	li	a5,0
    1186:	02000713          	li	a4,32
    118a:	4681                	li	a3,0
    118c:	4601                	li	a2,0
    118e:	453d                	li	a0,15
    1190:	0cf040ef          	jal	ra,5a5e <_Z14OsdWriteDirecttPKcbhii>
    1194:	44840593          	addi	a1,s0,1096
    1198:	4781                	li	a5,0
    119a:	02000713          	li	a4,32
    119e:	4681                	li	a3,0
    11a0:	4601                	li	a2,0
    11a2:	4541                	li	a0,16
    11a4:	0bb040ef          	jal	ra,5a5e <_Z14OsdWriteDirecttPKcbhii>
    11a8:	6599                	lui	a1,0x6
    11aa:	47058593          	addi	a1,a1,1136 # 6470 <strlen+0x242>
    11ae:	4781                	li	a5,0
    11b0:	02000713          	li	a4,32
    11b4:	4681                	li	a3,0
    11b6:	4601                	li	a2,0
    11b8:	4545                	li	a0,17
    11ba:	0a5040ef          	jal	ra,5a5e <_Z14OsdWriteDirecttPKcbhii>
    11be:	44840593          	addi	a1,s0,1096
    11c2:	4781                	li	a5,0
    11c4:	02000713          	li	a4,32
    11c8:	4681                	li	a3,0
    11ca:	4601                	li	a2,0
    11cc:	4549                	li	a0,18
    11ce:	091040ef          	jal	ra,5a5e <_Z14OsdWriteDirecttPKcbhii>
    11d2:	6599                	lui	a1,0x6
    11d4:	47458593          	addi	a1,a1,1140 # 6474 <strlen+0x246>
    11d8:	4781                	li	a5,0
    11da:	02000713          	li	a4,32
    11de:	4681                	li	a3,0
    11e0:	4601                	li	a2,0
    11e2:	454d                	li	a0,19
    11e4:	07b040ef          	jal	ra,5a5e <_Z14OsdWriteDirecttPKcbhii>
    11e8:	6599                	lui	a1,0x6
    11ea:	48858593          	addi	a1,a1,1160 # 6488 <strlen+0x25a>
    11ee:	4781                	li	a5,0
    11f0:	02000713          	li	a4,32
    11f4:	4681                	li	a3,0
    11f6:	4601                	li	a2,0
    11f8:	4551                	li	a0,20
    11fa:	065040ef          	jal	ra,5a5e <_Z14OsdWriteDirecttPKcbhii>
    11fe:	6599                	lui	a1,0x6
    1200:	48c58593          	addi	a1,a1,1164 # 648c <strlen+0x25e>
    1204:	4781                	li	a5,0
    1206:	02000713          	li	a4,32
    120a:	4681                	li	a3,0
    120c:	4601                	li	a2,0
    120e:	4555                	li	a0,21
    1210:	04f040ef          	jal	ra,5a5e <_Z14OsdWriteDirecttPKcbhii>
    1214:	44840593          	addi	a1,s0,1096
    1218:	4781                	li	a5,0
    121a:	02000713          	li	a4,32
    121e:	4681                	li	a3,0
    1220:	4601                	li	a2,0
    1222:	4559                	li	a0,22
    1224:	03b040ef          	jal	ra,5a5e <_Z14OsdWriteDirecttPKcbhii>
    1228:	6599                	lui	a1,0x6
    122a:	49058593          	addi	a1,a1,1168 # 6490 <strlen+0x262>
    122e:	4781                	li	a5,0
    1230:	02000713          	li	a4,32
    1234:	4681                	li	a3,0
    1236:	4601                	li	a2,0
    1238:	455d                	li	a0,23
    123a:	025040ef          	jal	ra,5a5e <_Z14OsdWriteDirecttPKcbhii>
    123e:	6599                	lui	a1,0x6
    1240:	44058593          	addi	a1,a1,1088 # 6440 <strlen+0x212>
    1244:	4781                	li	a5,0
    1246:	02000713          	li	a4,32
    124a:	4681                	li	a3,0
    124c:	4601                	li	a2,0
    124e:	4561                	li	a0,24
    1250:	00f040ef          	jal	ra,5a5e <_Z14OsdWriteDirecttPKcbhii>
    1254:	6599                	lui	a1,0x6
    1256:	48058593          	addi	a1,a1,1152 # 6480 <strlen+0x252>
    125a:	4781                	li	a5,0
    125c:	02000713          	li	a4,32
    1260:	4681                	li	a3,0
    1262:	4601                	li	a2,0
    1264:	4565                	li	a0,25
    1266:	7f8040ef          	jal	ra,5a5e <_Z14OsdWriteDirecttPKcbhii>
    126a:	4781                	li	a5,0
    126c:	02000713          	li	a4,32
    1270:	4681                	li	a3,0
    1272:	4601                	li	a2,0
    1274:	44840593          	addi	a1,s0,1096
    1278:	4569                	li	a0,26
    127a:	7e4040ef          	jal	ra,5a5e <_Z14OsdWriteDirecttPKcbhii>
    127e:	bb85                	j	fee <_Z19OSD_Keyboard_2_linebi+0x2ae>

00001280 <_Z19OSD_Keyboard_3_linebi>:
    1280:	1141                	addi	sp,sp,-16
    1282:	c04a                	sw	s2,0(sp)
    1284:	892a                	mv	s2,a0
    1286:	c226                	sw	s1,4(sp)
    1288:	c606                	sw	ra,12(sp)
    128a:	c422                	sw	s0,8(sp)
    128c:	84ae                	mv	s1,a1
    128e:	047040ef          	jal	ra,5ad4 <_Z8OsdClearv>
    1292:	2e090063          	beqz	s2,1572 <_Z19OSD_Keyboard_3_linebi+0x2f2>
    1296:	0014b413          	seqz	s0,s1
    129a:	6919                	lui	s2,0x6
    129c:	8622                	mv	a2,s0
    129e:	49890593          	addi	a1,s2,1176 # 6498 <strlen+0x26a>
    12a2:	4781                	li	a5,0
    12a4:	02000713          	li	a4,32
    12a8:	4681                	li	a3,0
    12aa:	4501                	li	a0,0
    12ac:	7b2040ef          	jal	ra,5a5e <_Z14OsdWriteDirecttPKcbhii>
    12b0:	6599                	lui	a1,0x6
    12b2:	8622                	mv	a2,s0
    12b4:	4781                	li	a5,0
    12b6:	02000713          	li	a4,32
    12ba:	4681                	li	a3,0
    12bc:	49c58593          	addi	a1,a1,1180 # 649c <strlen+0x26e>
    12c0:	4505                	li	a0,1
    12c2:	79c040ef          	jal	ra,5a5e <_Z14OsdWriteDirecttPKcbhii>
    12c6:	6599                	lui	a1,0x6
    12c8:	8622                	mv	a2,s0
    12ca:	4781                	li	a5,0
    12cc:	02000713          	li	a4,32
    12d0:	4681                	li	a3,0
    12d2:	49058593          	addi	a1,a1,1168 # 6490 <strlen+0x262>
    12d6:	4509                	li	a0,2
    12d8:	6419                	lui	s0,0x6
    12da:	784040ef          	jal	ra,5a5e <_Z14OsdWriteDirecttPKcbhii>
    12de:	4781                	li	a5,0
    12e0:	02000713          	li	a4,32
    12e4:	4681                	li	a3,0
    12e6:	4601                	li	a2,0
    12e8:	44840593          	addi	a1,s0,1096 # 6448 <strlen+0x21a>
    12ec:	450d                	li	a0,3
    12ee:	770040ef          	jal	ra,5a5e <_Z14OsdWriteDirecttPKcbhii>
    12f2:	fff48613          	addi	a2,s1,-1
    12f6:	6599                	lui	a1,0x6
    12f8:	4781                	li	a5,0
    12fa:	02000713          	li	a4,32
    12fe:	4681                	li	a3,0
    1300:	00163613          	seqz	a2,a2
    1304:	4a058593          	addi	a1,a1,1184 # 64a0 <strlen+0x272>
    1308:	4511                	li	a0,4
    130a:	754040ef          	jal	ra,5a5e <_Z14OsdWriteDirecttPKcbhii>
    130e:	4781                	li	a5,0
    1310:	02000713          	li	a4,32
    1314:	4681                	li	a3,0
    1316:	4601                	li	a2,0
    1318:	44840593          	addi	a1,s0,1096
    131c:	4515                	li	a0,5
    131e:	740040ef          	jal	ra,5a5e <_Z14OsdWriteDirecttPKcbhii>
    1322:	ffe48613          	addi	a2,s1,-2
    1326:	6599                	lui	a1,0x6
    1328:	4781                	li	a5,0
    132a:	02000713          	li	a4,32
    132e:	4681                	li	a3,0
    1330:	00163613          	seqz	a2,a2
    1334:	4a458593          	addi	a1,a1,1188 # 64a4 <strlen+0x276>
    1338:	4519                	li	a0,6
    133a:	724040ef          	jal	ra,5a5e <_Z14OsdWriteDirecttPKcbhii>
    133e:	4781                	li	a5,0
    1340:	02000713          	li	a4,32
    1344:	4681                	li	a3,0
    1346:	4601                	li	a2,0
    1348:	44840593          	addi	a1,s0,1096
    134c:	451d                	li	a0,7
    134e:	710040ef          	jal	ra,5a5e <_Z14OsdWriteDirecttPKcbhii>
    1352:	ffd48613          	addi	a2,s1,-3
    1356:	6599                	lui	a1,0x6
    1358:	4781                	li	a5,0
    135a:	02000713          	li	a4,32
    135e:	4681                	li	a3,0
    1360:	00163613          	seqz	a2,a2
    1364:	43c58593          	addi	a1,a1,1084 # 643c <strlen+0x20e>
    1368:	4521                	li	a0,8
    136a:	6f4040ef          	jal	ra,5a5e <_Z14OsdWriteDirecttPKcbhii>
    136e:	4781                	li	a5,0
    1370:	02000713          	li	a4,32
    1374:	4681                	li	a3,0
    1376:	4601                	li	a2,0
    1378:	44840593          	addi	a1,s0,1096
    137c:	4525                	li	a0,9
    137e:	6e0040ef          	jal	ra,5a5e <_Z14OsdWriteDirecttPKcbhii>
    1382:	ffc48613          	addi	a2,s1,-4
    1386:	6599                	lui	a1,0x6
    1388:	4781                	li	a5,0
    138a:	02000713          	li	a4,32
    138e:	4681                	li	a3,0
    1390:	00163613          	seqz	a2,a2
    1394:	4a858593          	addi	a1,a1,1192 # 64a8 <strlen+0x27a>
    1398:	4529                	li	a0,10
    139a:	6c4040ef          	jal	ra,5a5e <_Z14OsdWriteDirecttPKcbhii>
    139e:	4781                	li	a5,0
    13a0:	02000713          	li	a4,32
    13a4:	4681                	li	a3,0
    13a6:	4601                	li	a2,0
    13a8:	44840593          	addi	a1,s0,1096
    13ac:	452d                	li	a0,11
    13ae:	6b0040ef          	jal	ra,5a5e <_Z14OsdWriteDirecttPKcbhii>
    13b2:	ffb48613          	addi	a2,s1,-5
    13b6:	49890593          	addi	a1,s2,1176
    13ba:	4781                	li	a5,0
    13bc:	02000713          	li	a4,32
    13c0:	4681                	li	a3,0
    13c2:	00163613          	seqz	a2,a2
    13c6:	4531                	li	a0,12
    13c8:	696040ef          	jal	ra,5a5e <_Z14OsdWriteDirecttPKcbhii>
    13cc:	4781                	li	a5,0
    13ce:	02000713          	li	a4,32
    13d2:	4681                	li	a3,0
    13d4:	4601                	li	a2,0
    13d6:	44840593          	addi	a1,s0,1096
    13da:	4535                	li	a0,13
    13dc:	682040ef          	jal	ra,5a5e <_Z14OsdWriteDirecttPKcbhii>
    13e0:	ffa48613          	addi	a2,s1,-6
    13e4:	6599                	lui	a1,0x6
    13e6:	4781                	li	a5,0
    13e8:	02000713          	li	a4,32
    13ec:	4681                	li	a3,0
    13ee:	00163613          	seqz	a2,a2
    13f2:	4ac58593          	addi	a1,a1,1196 # 64ac <strlen+0x27e>
    13f6:	4539                	li	a0,14
    13f8:	666040ef          	jal	ra,5a5e <_Z14OsdWriteDirecttPKcbhii>
    13fc:	4781                	li	a5,0
    13fe:	02000713          	li	a4,32
    1402:	4681                	li	a3,0
    1404:	4601                	li	a2,0
    1406:	44840593          	addi	a1,s0,1096
    140a:	453d                	li	a0,15
    140c:	652040ef          	jal	ra,5a5e <_Z14OsdWriteDirecttPKcbhii>
    1410:	ff948613          	addi	a2,s1,-7
    1414:	6599                	lui	a1,0x6
    1416:	4781                	li	a5,0
    1418:	02000713          	li	a4,32
    141c:	4681                	li	a3,0
    141e:	00163613          	seqz	a2,a2
    1422:	4b058593          	addi	a1,a1,1200 # 64b0 <strlen+0x282>
    1426:	4541                	li	a0,16
    1428:	636040ef          	jal	ra,5a5e <_Z14OsdWriteDirecttPKcbhii>
    142c:	4781                	li	a5,0
    142e:	02000713          	li	a4,32
    1432:	4681                	li	a3,0
    1434:	4601                	li	a2,0
    1436:	44840593          	addi	a1,s0,1096
    143a:	4545                	li	a0,17
    143c:	622040ef          	jal	ra,5a5e <_Z14OsdWriteDirecttPKcbhii>
    1440:	ff848613          	addi	a2,s1,-8
    1444:	6599                	lui	a1,0x6
    1446:	4781                	li	a5,0
    1448:	02000713          	li	a4,32
    144c:	4681                	li	a3,0
    144e:	00163613          	seqz	a2,a2
    1452:	4b458593          	addi	a1,a1,1204 # 64b4 <strlen+0x286>
    1456:	4549                	li	a0,18
    1458:	606040ef          	jal	ra,5a5e <_Z14OsdWriteDirecttPKcbhii>
    145c:	4781                	li	a5,0
    145e:	02000713          	li	a4,32
    1462:	4681                	li	a3,0
    1464:	4601                	li	a2,0
    1466:	44840593          	addi	a1,s0,1096
    146a:	454d                	li	a0,19
    146c:	5f2040ef          	jal	ra,5a5e <_Z14OsdWriteDirecttPKcbhii>
    1470:	ff748613          	addi	a2,s1,-9
    1474:	6599                	lui	a1,0x6
    1476:	4781                	li	a5,0
    1478:	02000713          	li	a4,32
    147c:	4681                	li	a3,0
    147e:	00163613          	seqz	a2,a2
    1482:	4b858593          	addi	a1,a1,1208 # 64b8 <strlen+0x28a>
    1486:	4551                	li	a0,20
    1488:	5d6040ef          	jal	ra,5a5e <_Z14OsdWriteDirecttPKcbhii>
    148c:	4781                	li	a5,0
    148e:	02000713          	li	a4,32
    1492:	4681                	li	a3,0
    1494:	4601                	li	a2,0
    1496:	44840593          	addi	a1,s0,1096
    149a:	4555                	li	a0,21
    149c:	5c2040ef          	jal	ra,5a5e <_Z14OsdWriteDirecttPKcbhii>
    14a0:	ff648613          	addi	a2,s1,-10
    14a4:	6599                	lui	a1,0x6
    14a6:	4781                	li	a5,0
    14a8:	02000713          	li	a4,32
    14ac:	4681                	li	a3,0
    14ae:	00163613          	seqz	a2,a2
    14b2:	48058593          	addi	a1,a1,1152 # 6480 <strlen+0x252>
    14b6:	4559                	li	a0,22
    14b8:	5a6040ef          	jal	ra,5a5e <_Z14OsdWriteDirecttPKcbhii>
    14bc:	4781                	li	a5,0
    14be:	02000713          	li	a4,32
    14c2:	4681                	li	a3,0
    14c4:	4601                	li	a2,0
    14c6:	44840593          	addi	a1,s0,1096
    14ca:	455d                	li	a0,23
    14cc:	592040ef          	jal	ra,5a5e <_Z14OsdWriteDirecttPKcbhii>
    14d0:	ff548613          	addi	a2,s1,-11
    14d4:	6599                	lui	a1,0x6
    14d6:	4781                	li	a5,0
    14d8:	02000713          	li	a4,32
    14dc:	4681                	li	a3,0
    14de:	00163613          	seqz	a2,a2
    14e2:	4bc58593          	addi	a1,a1,1212 # 64bc <strlen+0x28e>
    14e6:	4561                	li	a0,24
    14e8:	576040ef          	jal	ra,5a5e <_Z14OsdWriteDirecttPKcbhii>
    14ec:	4781                	li	a5,0
    14ee:	02000713          	li	a4,32
    14f2:	4681                	li	a3,0
    14f4:	4601                	li	a2,0
    14f6:	44840593          	addi	a1,s0,1096
    14fa:	4565                	li	a0,25
    14fc:	562040ef          	jal	ra,5a5e <_Z14OsdWriteDirecttPKcbhii>
    1500:	ff448613          	addi	a2,s1,-12
    1504:	6599                	lui	a1,0x6
    1506:	4781                	li	a5,0
    1508:	02000713          	li	a4,32
    150c:	4681                	li	a3,0
    150e:	00163613          	seqz	a2,a2
    1512:	4c058593          	addi	a1,a1,1216 # 64c0 <strlen+0x292>
    1516:	4569                	li	a0,26
    1518:	546040ef          	jal	ra,5a5e <_Z14OsdWriteDirecttPKcbhii>
    151c:	456d                	li	a0,27
    151e:	4781                	li	a5,0
    1520:	02000713          	li	a4,32
    1524:	4681                	li	a3,0
    1526:	4601                	li	a2,0
    1528:	44840593          	addi	a1,s0,1096
    152c:	532040ef          	jal	ra,5a5e <_Z14OsdWriteDirecttPKcbhii>
    1530:	ff348513          	addi	a0,s1,-13
    1534:	00153913          	seqz	s2,a0
    1538:	6599                	lui	a1,0x6
    153a:	864a                	mv	a2,s2
    153c:	4781                	li	a5,0
    153e:	02000713          	li	a4,32
    1542:	4681                	li	a3,0
    1544:	4c458593          	addi	a1,a1,1220 # 64c4 <strlen+0x296>
    1548:	4571                	li	a0,28
    154a:	514040ef          	jal	ra,5a5e <_Z14OsdWriteDirecttPKcbhii>
    154e:	4575                	li	a0,29
    1550:	44840593          	addi	a1,s0,1096
    1554:	4781                	li	a5,0
    1556:	02000713          	li	a4,32
    155a:	4681                	li	a3,0
    155c:	4601                	li	a2,0
    155e:	500040ef          	jal	ra,5a5e <_Z14OsdWriteDirecttPKcbhii>
    1562:	4422                	lw	s0,8(sp)
    1564:	40b2                	lw	ra,12(sp)
    1566:	4492                	lw	s1,4(sp)
    1568:	4902                	lw	s2,0(sp)
    156a:	450d                	li	a0,3
    156c:	0141                	addi	sp,sp,16
    156e:	6060406f          	j	5b74 <_Z9OsdUpdatei>
    1572:	6499                	lui	s1,0x6
    1574:	49848593          	addi	a1,s1,1176 # 6498 <strlen+0x26a>
    1578:	4781                	li	a5,0
    157a:	02000713          	li	a4,32
    157e:	4681                	li	a3,0
    1580:	4601                	li	a2,0
    1582:	4501                	li	a0,0
    1584:	4da040ef          	jal	ra,5a5e <_Z14OsdWriteDirecttPKcbhii>
    1588:	6599                	lui	a1,0x6
    158a:	49c58593          	addi	a1,a1,1180 # 649c <strlen+0x26e>
    158e:	4781                	li	a5,0
    1590:	02000713          	li	a4,32
    1594:	4681                	li	a3,0
    1596:	4601                	li	a2,0
    1598:	4505                	li	a0,1
    159a:	4c4040ef          	jal	ra,5a5e <_Z14OsdWriteDirecttPKcbhii>
    159e:	6599                	lui	a1,0x6
    15a0:	49058593          	addi	a1,a1,1168 # 6490 <strlen+0x262>
    15a4:	4781                	li	a5,0
    15a6:	02000713          	li	a4,32
    15aa:	4681                	li	a3,0
    15ac:	4601                	li	a2,0
    15ae:	4509                	li	a0,2
    15b0:	6419                	lui	s0,0x6
    15b2:	4ac040ef          	jal	ra,5a5e <_Z14OsdWriteDirecttPKcbhii>
    15b6:	44840593          	addi	a1,s0,1096 # 6448 <strlen+0x21a>
    15ba:	4781                	li	a5,0
    15bc:	02000713          	li	a4,32
    15c0:	4681                	li	a3,0
    15c2:	4601                	li	a2,0
    15c4:	450d                	li	a0,3
    15c6:	498040ef          	jal	ra,5a5e <_Z14OsdWriteDirecttPKcbhii>
    15ca:	6599                	lui	a1,0x6
    15cc:	4a058593          	addi	a1,a1,1184 # 64a0 <strlen+0x272>
    15d0:	4781                	li	a5,0
    15d2:	02000713          	li	a4,32
    15d6:	4681                	li	a3,0
    15d8:	4601                	li	a2,0
    15da:	4511                	li	a0,4
    15dc:	482040ef          	jal	ra,5a5e <_Z14OsdWriteDirecttPKcbhii>
    15e0:	44840593          	addi	a1,s0,1096
    15e4:	4781                	li	a5,0
    15e6:	02000713          	li	a4,32
    15ea:	4681                	li	a3,0
    15ec:	4601                	li	a2,0
    15ee:	4515                	li	a0,5
    15f0:	46e040ef          	jal	ra,5a5e <_Z14OsdWriteDirecttPKcbhii>
    15f4:	6599                	lui	a1,0x6
    15f6:	4a458593          	addi	a1,a1,1188 # 64a4 <strlen+0x276>
    15fa:	4781                	li	a5,0
    15fc:	02000713          	li	a4,32
    1600:	4681                	li	a3,0
    1602:	4601                	li	a2,0
    1604:	4519                	li	a0,6
    1606:	458040ef          	jal	ra,5a5e <_Z14OsdWriteDirecttPKcbhii>
    160a:	44840593          	addi	a1,s0,1096
    160e:	4781                	li	a5,0
    1610:	02000713          	li	a4,32
    1614:	4681                	li	a3,0
    1616:	4601                	li	a2,0
    1618:	451d                	li	a0,7
    161a:	444040ef          	jal	ra,5a5e <_Z14OsdWriteDirecttPKcbhii>
    161e:	6599                	lui	a1,0x6
    1620:	43c58593          	addi	a1,a1,1084 # 643c <strlen+0x20e>
    1624:	4781                	li	a5,0
    1626:	02000713          	li	a4,32
    162a:	4681                	li	a3,0
    162c:	4601                	li	a2,0
    162e:	4521                	li	a0,8
    1630:	42e040ef          	jal	ra,5a5e <_Z14OsdWriteDirecttPKcbhii>
    1634:	44840593          	addi	a1,s0,1096
    1638:	4781                	li	a5,0
    163a:	02000713          	li	a4,32
    163e:	4681                	li	a3,0
    1640:	4601                	li	a2,0
    1642:	4525                	li	a0,9
    1644:	41a040ef          	jal	ra,5a5e <_Z14OsdWriteDirecttPKcbhii>
    1648:	6599                	lui	a1,0x6
    164a:	4a858593          	addi	a1,a1,1192 # 64a8 <strlen+0x27a>
    164e:	4781                	li	a5,0
    1650:	02000713          	li	a4,32
    1654:	4681                	li	a3,0
    1656:	4601                	li	a2,0
    1658:	4529                	li	a0,10
    165a:	404040ef          	jal	ra,5a5e <_Z14OsdWriteDirecttPKcbhii>
    165e:	44840593          	addi	a1,s0,1096
    1662:	4781                	li	a5,0
    1664:	02000713          	li	a4,32
    1668:	4681                	li	a3,0
    166a:	4601                	li	a2,0
    166c:	452d                	li	a0,11
    166e:	3f0040ef          	jal	ra,5a5e <_Z14OsdWriteDirecttPKcbhii>
    1672:	49848593          	addi	a1,s1,1176
    1676:	4781                	li	a5,0
    1678:	02000713          	li	a4,32
    167c:	4681                	li	a3,0
    167e:	4601                	li	a2,0
    1680:	4531                	li	a0,12
    1682:	3dc040ef          	jal	ra,5a5e <_Z14OsdWriteDirecttPKcbhii>
    1686:	44840593          	addi	a1,s0,1096
    168a:	4781                	li	a5,0
    168c:	02000713          	li	a4,32
    1690:	4681                	li	a3,0
    1692:	4601                	li	a2,0
    1694:	4535                	li	a0,13
    1696:	3c8040ef          	jal	ra,5a5e <_Z14OsdWriteDirecttPKcbhii>
    169a:	6599                	lui	a1,0x6
    169c:	4ac58593          	addi	a1,a1,1196 # 64ac <strlen+0x27e>
    16a0:	4781                	li	a5,0
    16a2:	02000713          	li	a4,32
    16a6:	4681                	li	a3,0
    16a8:	4601                	li	a2,0
    16aa:	4539                	li	a0,14
    16ac:	3b2040ef          	jal	ra,5a5e <_Z14OsdWriteDirecttPKcbhii>
    16b0:	44840593          	addi	a1,s0,1096
    16b4:	4781                	li	a5,0
    16b6:	02000713          	li	a4,32
    16ba:	4681                	li	a3,0
    16bc:	4601                	li	a2,0
    16be:	453d                	li	a0,15
    16c0:	39e040ef          	jal	ra,5a5e <_Z14OsdWriteDirecttPKcbhii>
    16c4:	6599                	lui	a1,0x6
    16c6:	4b058593          	addi	a1,a1,1200 # 64b0 <strlen+0x282>
    16ca:	4781                	li	a5,0
    16cc:	02000713          	li	a4,32
    16d0:	4681                	li	a3,0
    16d2:	4601                	li	a2,0
    16d4:	4541                	li	a0,16
    16d6:	388040ef          	jal	ra,5a5e <_Z14OsdWriteDirecttPKcbhii>
    16da:	44840593          	addi	a1,s0,1096
    16de:	4781                	li	a5,0
    16e0:	02000713          	li	a4,32
    16e4:	4681                	li	a3,0
    16e6:	4601                	li	a2,0
    16e8:	4545                	li	a0,17
    16ea:	374040ef          	jal	ra,5a5e <_Z14OsdWriteDirecttPKcbhii>
    16ee:	6599                	lui	a1,0x6
    16f0:	4b458593          	addi	a1,a1,1204 # 64b4 <strlen+0x286>
    16f4:	4781                	li	a5,0
    16f6:	02000713          	li	a4,32
    16fa:	4681                	li	a3,0
    16fc:	4601                	li	a2,0
    16fe:	4549                	li	a0,18
    1700:	35e040ef          	jal	ra,5a5e <_Z14OsdWriteDirecttPKcbhii>
    1704:	44840593          	addi	a1,s0,1096
    1708:	4781                	li	a5,0
    170a:	02000713          	li	a4,32
    170e:	4681                	li	a3,0
    1710:	4601                	li	a2,0
    1712:	454d                	li	a0,19
    1714:	34a040ef          	jal	ra,5a5e <_Z14OsdWriteDirecttPKcbhii>
    1718:	6599                	lui	a1,0x6
    171a:	4b858593          	addi	a1,a1,1208 # 64b8 <strlen+0x28a>
    171e:	4781                	li	a5,0
    1720:	02000713          	li	a4,32
    1724:	4681                	li	a3,0
    1726:	4601                	li	a2,0
    1728:	4551                	li	a0,20
    172a:	334040ef          	jal	ra,5a5e <_Z14OsdWriteDirecttPKcbhii>
    172e:	44840593          	addi	a1,s0,1096
    1732:	4781                	li	a5,0
    1734:	02000713          	li	a4,32
    1738:	4681                	li	a3,0
    173a:	4601                	li	a2,0
    173c:	4555                	li	a0,21
    173e:	320040ef          	jal	ra,5a5e <_Z14OsdWriteDirecttPKcbhii>
    1742:	6599                	lui	a1,0x6
    1744:	48058593          	addi	a1,a1,1152 # 6480 <strlen+0x252>
    1748:	4781                	li	a5,0
    174a:	02000713          	li	a4,32
    174e:	4681                	li	a3,0
    1750:	4601                	li	a2,0
    1752:	4559                	li	a0,22
    1754:	30a040ef          	jal	ra,5a5e <_Z14OsdWriteDirecttPKcbhii>
    1758:	44840593          	addi	a1,s0,1096
    175c:	4781                	li	a5,0
    175e:	02000713          	li	a4,32
    1762:	4681                	li	a3,0
    1764:	4601                	li	a2,0
    1766:	455d                	li	a0,23
    1768:	2f6040ef          	jal	ra,5a5e <_Z14OsdWriteDirecttPKcbhii>
    176c:	6599                	lui	a1,0x6
    176e:	4bc58593          	addi	a1,a1,1212 # 64bc <strlen+0x28e>
    1772:	4781                	li	a5,0
    1774:	02000713          	li	a4,32
    1778:	4681                	li	a3,0
    177a:	4601                	li	a2,0
    177c:	4561                	li	a0,24
    177e:	2e0040ef          	jal	ra,5a5e <_Z14OsdWriteDirecttPKcbhii>
    1782:	44840593          	addi	a1,s0,1096
    1786:	4781                	li	a5,0
    1788:	02000713          	li	a4,32
    178c:	4681                	li	a3,0
    178e:	4601                	li	a2,0
    1790:	4565                	li	a0,25
    1792:	2cc040ef          	jal	ra,5a5e <_Z14OsdWriteDirecttPKcbhii>
    1796:	6599                	lui	a1,0x6
    1798:	4c058593          	addi	a1,a1,1216 # 64c0 <strlen+0x292>
    179c:	4781                	li	a5,0
    179e:	02000713          	li	a4,32
    17a2:	4681                	li	a3,0
    17a4:	4601                	li	a2,0
    17a6:	4569                	li	a0,26
    17a8:	2b6040ef          	jal	ra,5a5e <_Z14OsdWriteDirecttPKcbhii>
    17ac:	4781                	li	a5,0
    17ae:	02000713          	li	a4,32
    17b2:	4681                	li	a3,0
    17b4:	4601                	li	a2,0
    17b6:	44840593          	addi	a1,s0,1096
    17ba:	456d                	li	a0,27
    17bc:	2a2040ef          	jal	ra,5a5e <_Z14OsdWriteDirecttPKcbhii>
    17c0:	bba5                	j	1538 <_Z19OSD_Keyboard_3_linebi+0x2b8>

000017c2 <_Z19OSD_Keyboard_4_linebi>:
    17c2:	1141                	addi	sp,sp,-16
    17c4:	c04a                	sw	s2,0(sp)
    17c6:	892a                	mv	s2,a0
    17c8:	c226                	sw	s1,4(sp)
    17ca:	c606                	sw	ra,12(sp)
    17cc:	c422                	sw	s0,8(sp)
    17ce:	84ae                	mv	s1,a1
    17d0:	304040ef          	jal	ra,5ad4 <_Z8OsdClearv>
    17d4:	2c090e63          	beqz	s2,1ab0 <_Z19OSD_Keyboard_4_linebi+0x2ee>
    17d8:	0014b413          	seqz	s0,s1
    17dc:	6599                	lui	a1,0x6
    17de:	8622                	mv	a2,s0
    17e0:	4781                	li	a5,0
    17e2:	02000713          	li	a4,32
    17e6:	4681                	li	a3,0
    17e8:	44458593          	addi	a1,a1,1092 # 6444 <strlen+0x216>
    17ec:	4501                	li	a0,0
    17ee:	270040ef          	jal	ra,5a5e <_Z14OsdWriteDirecttPKcbhii>
    17f2:	6919                	lui	s2,0x6
    17f4:	8622                	mv	a2,s0
    17f6:	49c90593          	addi	a1,s2,1180 # 649c <strlen+0x26e>
    17fa:	4781                	li	a5,0
    17fc:	02000713          	li	a4,32
    1800:	4681                	li	a3,0
    1802:	4505                	li	a0,1
    1804:	25a040ef          	jal	ra,5a5e <_Z14OsdWriteDirecttPKcbhii>
    1808:	6599                	lui	a1,0x6
    180a:	8622                	mv	a2,s0
    180c:	4781                	li	a5,0
    180e:	02000713          	li	a4,32
    1812:	4681                	li	a3,0
    1814:	48058593          	addi	a1,a1,1152 # 6480 <strlen+0x252>
    1818:	4509                	li	a0,2
    181a:	6419                	lui	s0,0x6
    181c:	242040ef          	jal	ra,5a5e <_Z14OsdWriteDirecttPKcbhii>
    1820:	4781                	li	a5,0
    1822:	02000713          	li	a4,32
    1826:	4681                	li	a3,0
    1828:	4601                	li	a2,0
    182a:	44840593          	addi	a1,s0,1096 # 6448 <strlen+0x21a>
    182e:	450d                	li	a0,3
    1830:	22e040ef          	jal	ra,5a5e <_Z14OsdWriteDirecttPKcbhii>
    1834:	fff48613          	addi	a2,s1,-1
    1838:	49c90593          	addi	a1,s2,1180
    183c:	4781                	li	a5,0
    183e:	02000713          	li	a4,32
    1842:	4681                	li	a3,0
    1844:	00163613          	seqz	a2,a2
    1848:	4511                	li	a0,4
    184a:	214040ef          	jal	ra,5a5e <_Z14OsdWriteDirecttPKcbhii>
    184e:	4781                	li	a5,0
    1850:	02000713          	li	a4,32
    1854:	4681                	li	a3,0
    1856:	4601                	li	a2,0
    1858:	44840593          	addi	a1,s0,1096
    185c:	4515                	li	a0,5
    185e:	200040ef          	jal	ra,5a5e <_Z14OsdWriteDirecttPKcbhii>
    1862:	ffe48613          	addi	a2,s1,-2
    1866:	6599                	lui	a1,0x6
    1868:	4781                	li	a5,0
    186a:	02000713          	li	a4,32
    186e:	4681                	li	a3,0
    1870:	00163613          	seqz	a2,a2
    1874:	44058593          	addi	a1,a1,1088 # 6440 <strlen+0x212>
    1878:	4519                	li	a0,6
    187a:	1e4040ef          	jal	ra,5a5e <_Z14OsdWriteDirecttPKcbhii>
    187e:	4781                	li	a5,0
    1880:	02000713          	li	a4,32
    1884:	4681                	li	a3,0
    1886:	4601                	li	a2,0
    1888:	44840593          	addi	a1,s0,1096
    188c:	451d                	li	a0,7
    188e:	1d0040ef          	jal	ra,5a5e <_Z14OsdWriteDirecttPKcbhii>
    1892:	ffd48613          	addi	a2,s1,-3
    1896:	6599                	lui	a1,0x6
    1898:	4781                	li	a5,0
    189a:	02000713          	li	a4,32
    189e:	4681                	li	a3,0
    18a0:	00163613          	seqz	a2,a2
    18a4:	49458593          	addi	a1,a1,1172 # 6494 <strlen+0x266>
    18a8:	4521                	li	a0,8
    18aa:	1b4040ef          	jal	ra,5a5e <_Z14OsdWriteDirecttPKcbhii>
    18ae:	4781                	li	a5,0
    18b0:	02000713          	li	a4,32
    18b4:	4681                	li	a3,0
    18b6:	4601                	li	a2,0
    18b8:	44840593          	addi	a1,s0,1096
    18bc:	4525                	li	a0,9
    18be:	1a0040ef          	jal	ra,5a5e <_Z14OsdWriteDirecttPKcbhii>
    18c2:	ffc48613          	addi	a2,s1,-4
    18c6:	6599                	lui	a1,0x6
    18c8:	4781                	li	a5,0
    18ca:	02000713          	li	a4,32
    18ce:	4681                	li	a3,0
    18d0:	00163613          	seqz	a2,a2
    18d4:	44c58593          	addi	a1,a1,1100 # 644c <strlen+0x21e>
    18d8:	4529                	li	a0,10
    18da:	184040ef          	jal	ra,5a5e <_Z14OsdWriteDirecttPKcbhii>
    18de:	4781                	li	a5,0
    18e0:	02000713          	li	a4,32
    18e4:	4681                	li	a3,0
    18e6:	4601                	li	a2,0
    18e8:	44840593          	addi	a1,s0,1096
    18ec:	452d                	li	a0,11
    18ee:	170040ef          	jal	ra,5a5e <_Z14OsdWriteDirecttPKcbhii>
    18f2:	ffb48613          	addi	a2,s1,-5
    18f6:	6599                	lui	a1,0x6
    18f8:	4781                	li	a5,0
    18fa:	02000713          	li	a4,32
    18fe:	4681                	li	a3,0
    1900:	00163613          	seqz	a2,a2
    1904:	4c858593          	addi	a1,a1,1224 # 64c8 <strlen+0x29a>
    1908:	4531                	li	a0,12
    190a:	154040ef          	jal	ra,5a5e <_Z14OsdWriteDirecttPKcbhii>
    190e:	4781                	li	a5,0
    1910:	02000713          	li	a4,32
    1914:	4681                	li	a3,0
    1916:	4601                	li	a2,0
    1918:	44840593          	addi	a1,s0,1096
    191c:	4535                	li	a0,13
    191e:	140040ef          	jal	ra,5a5e <_Z14OsdWriteDirecttPKcbhii>
    1922:	ffa48613          	addi	a2,s1,-6
    1926:	6599                	lui	a1,0x6
    1928:	4781                	li	a5,0
    192a:	02000713          	li	a4,32
    192e:	4681                	li	a3,0
    1930:	00163613          	seqz	a2,a2
    1934:	47858593          	addi	a1,a1,1144 # 6478 <strlen+0x24a>
    1938:	4539                	li	a0,14
    193a:	124040ef          	jal	ra,5a5e <_Z14OsdWriteDirecttPKcbhii>
    193e:	4781                	li	a5,0
    1940:	02000713          	li	a4,32
    1944:	4681                	li	a3,0
    1946:	4601                	li	a2,0
    1948:	44840593          	addi	a1,s0,1096
    194c:	453d                	li	a0,15
    194e:	110040ef          	jal	ra,5a5e <_Z14OsdWriteDirecttPKcbhii>
    1952:	ff948613          	addi	a2,s1,-7
    1956:	6599                	lui	a1,0x6
    1958:	4781                	li	a5,0
    195a:	02000713          	li	a4,32
    195e:	4681                	li	a3,0
    1960:	00163613          	seqz	a2,a2
    1964:	4cc58593          	addi	a1,a1,1228 # 64cc <strlen+0x29e>
    1968:	4541                	li	a0,16
    196a:	0f4040ef          	jal	ra,5a5e <_Z14OsdWriteDirecttPKcbhii>
    196e:	4781                	li	a5,0
    1970:	02000713          	li	a4,32
    1974:	4681                	li	a3,0
    1976:	4601                	li	a2,0
    1978:	44840593          	addi	a1,s0,1096
    197c:	4545                	li	a0,17
    197e:	0e0040ef          	jal	ra,5a5e <_Z14OsdWriteDirecttPKcbhii>
    1982:	ff848613          	addi	a2,s1,-8
    1986:	6599                	lui	a1,0x6
    1988:	4781                	li	a5,0
    198a:	02000713          	li	a4,32
    198e:	4681                	li	a3,0
    1990:	00163613          	seqz	a2,a2
    1994:	4d058593          	addi	a1,a1,1232 # 64d0 <strlen+0x2a2>
    1998:	4549                	li	a0,18
    199a:	0c4040ef          	jal	ra,5a5e <_Z14OsdWriteDirecttPKcbhii>
    199e:	4781                	li	a5,0
    19a0:	02000713          	li	a4,32
    19a4:	4681                	li	a3,0
    19a6:	4601                	li	a2,0
    19a8:	44840593          	addi	a1,s0,1096
    19ac:	454d                	li	a0,19
    19ae:	0b0040ef          	jal	ra,5a5e <_Z14OsdWriteDirecttPKcbhii>
    19b2:	ff748613          	addi	a2,s1,-9
    19b6:	6599                	lui	a1,0x6
    19b8:	4781                	li	a5,0
    19ba:	02000713          	li	a4,32
    19be:	4681                	li	a3,0
    19c0:	00163613          	seqz	a2,a2
    19c4:	47c58593          	addi	a1,a1,1148 # 647c <strlen+0x24e>
    19c8:	4551                	li	a0,20
    19ca:	094040ef          	jal	ra,5a5e <_Z14OsdWriteDirecttPKcbhii>
    19ce:	4781                	li	a5,0
    19d0:	02000713          	li	a4,32
    19d4:	4681                	li	a3,0
    19d6:	4601                	li	a2,0
    19d8:	44840593          	addi	a1,s0,1096
    19dc:	4555                	li	a0,21
    19de:	080040ef          	jal	ra,5a5e <_Z14OsdWriteDirecttPKcbhii>
    19e2:	ff648613          	addi	a2,s1,-10
    19e6:	6599                	lui	a1,0x6
    19e8:	4781                	li	a5,0
    19ea:	02000713          	li	a4,32
    19ee:	4681                	li	a3,0
    19f0:	00163613          	seqz	a2,a2
    19f4:	4d458593          	addi	a1,a1,1236 # 64d4 <strlen+0x2a6>
    19f8:	4559                	li	a0,22
    19fa:	064040ef          	jal	ra,5a5e <_Z14OsdWriteDirecttPKcbhii>
    19fe:	4781                	li	a5,0
    1a00:	02000713          	li	a4,32
    1a04:	4681                	li	a3,0
    1a06:	4601                	li	a2,0
    1a08:	44840593          	addi	a1,s0,1096
    1a0c:	455d                	li	a0,23
    1a0e:	050040ef          	jal	ra,5a5e <_Z14OsdWriteDirecttPKcbhii>
    1a12:	ff548613          	addi	a2,s1,-11
    1a16:	6599                	lui	a1,0x6
    1a18:	4781                	li	a5,0
    1a1a:	02000713          	li	a4,32
    1a1e:	4681                	li	a3,0
    1a20:	00163613          	seqz	a2,a2
    1a24:	4d858593          	addi	a1,a1,1240 # 64d8 <strlen+0x2aa>
    1a28:	4561                	li	a0,24
    1a2a:	034040ef          	jal	ra,5a5e <_Z14OsdWriteDirecttPKcbhii>
    1a2e:	4565                	li	a0,25
    1a30:	4781                	li	a5,0
    1a32:	02000713          	li	a4,32
    1a36:	4681                	li	a3,0
    1a38:	4601                	li	a2,0
    1a3a:	44840593          	addi	a1,s0,1096
    1a3e:	020040ef          	jal	ra,5a5e <_Z14OsdWriteDirecttPKcbhii>
    1a42:	ff448513          	addi	a0,s1,-12
    1a46:	00153913          	seqz	s2,a0
    1a4a:	6599                	lui	a1,0x6
    1a4c:	864a                	mv	a2,s2
    1a4e:	4781                	li	a5,0
    1a50:	02000713          	li	a4,32
    1a54:	4681                	li	a3,0
    1a56:	4a858593          	addi	a1,a1,1192 # 64a8 <strlen+0x27a>
    1a5a:	4569                	li	a0,26
    1a5c:	002040ef          	jal	ra,5a5e <_Z14OsdWriteDirecttPKcbhii>
    1a60:	6599                	lui	a1,0x6
    1a62:	864a                	mv	a2,s2
    1a64:	4781                	li	a5,0
    1a66:	02000713          	li	a4,32
    1a6a:	4681                	li	a3,0
    1a6c:	43c58593          	addi	a1,a1,1084 # 643c <strlen+0x20e>
    1a70:	456d                	li	a0,27
    1a72:	7ed030ef          	jal	ra,5a5e <_Z14OsdWriteDirecttPKcbhii>
    1a76:	6599                	lui	a1,0x6
    1a78:	864a                	mv	a2,s2
    1a7a:	4781                	li	a5,0
    1a7c:	02000713          	li	a4,32
    1a80:	4681                	li	a3,0
    1a82:	49858593          	addi	a1,a1,1176 # 6498 <strlen+0x26a>
    1a86:	4571                	li	a0,28
    1a88:	7d7030ef          	jal	ra,5a5e <_Z14OsdWriteDirecttPKcbhii>
    1a8c:	4575                	li	a0,29
    1a8e:	44840593          	addi	a1,s0,1096
    1a92:	4781                	li	a5,0
    1a94:	02000713          	li	a4,32
    1a98:	4681                	li	a3,0
    1a9a:	4601                	li	a2,0
    1a9c:	7c3030ef          	jal	ra,5a5e <_Z14OsdWriteDirecttPKcbhii>
    1aa0:	4422                	lw	s0,8(sp)
    1aa2:	40b2                	lw	ra,12(sp)
    1aa4:	4492                	lw	s1,4(sp)
    1aa6:	4902                	lw	s2,0(sp)
    1aa8:	4511                	li	a0,4
    1aaa:	0141                	addi	sp,sp,16
    1aac:	0c80406f          	j	5b74 <_Z9OsdUpdatei>
    1ab0:	6599                	lui	a1,0x6
    1ab2:	44458593          	addi	a1,a1,1092 # 6444 <strlen+0x216>
    1ab6:	4781                	li	a5,0
    1ab8:	02000713          	li	a4,32
    1abc:	4681                	li	a3,0
    1abe:	4601                	li	a2,0
    1ac0:	4501                	li	a0,0
    1ac2:	79d030ef          	jal	ra,5a5e <_Z14OsdWriteDirecttPKcbhii>
    1ac6:	6499                	lui	s1,0x6
    1ac8:	49c48593          	addi	a1,s1,1180 # 649c <strlen+0x26e>
    1acc:	4781                	li	a5,0
    1ace:	02000713          	li	a4,32
    1ad2:	4681                	li	a3,0
    1ad4:	4601                	li	a2,0
    1ad6:	4505                	li	a0,1
    1ad8:	787030ef          	jal	ra,5a5e <_Z14OsdWriteDirecttPKcbhii>
    1adc:	6599                	lui	a1,0x6
    1ade:	48058593          	addi	a1,a1,1152 # 6480 <strlen+0x252>
    1ae2:	4781                	li	a5,0
    1ae4:	02000713          	li	a4,32
    1ae8:	4681                	li	a3,0
    1aea:	4601                	li	a2,0
    1aec:	4509                	li	a0,2
    1aee:	6419                	lui	s0,0x6
    1af0:	76f030ef          	jal	ra,5a5e <_Z14OsdWriteDirecttPKcbhii>
    1af4:	44840593          	addi	a1,s0,1096 # 6448 <strlen+0x21a>
    1af8:	4781                	li	a5,0
    1afa:	02000713          	li	a4,32
    1afe:	4681                	li	a3,0
    1b00:	4601                	li	a2,0
    1b02:	450d                	li	a0,3
    1b04:	75b030ef          	jal	ra,5a5e <_Z14OsdWriteDirecttPKcbhii>
    1b08:	49c48593          	addi	a1,s1,1180
    1b0c:	4781                	li	a5,0
    1b0e:	02000713          	li	a4,32
    1b12:	4681                	li	a3,0
    1b14:	4601                	li	a2,0
    1b16:	4511                	li	a0,4
    1b18:	747030ef          	jal	ra,5a5e <_Z14OsdWriteDirecttPKcbhii>
    1b1c:	44840593          	addi	a1,s0,1096
    1b20:	4781                	li	a5,0
    1b22:	02000713          	li	a4,32
    1b26:	4681                	li	a3,0
    1b28:	4601                	li	a2,0
    1b2a:	4515                	li	a0,5
    1b2c:	733030ef          	jal	ra,5a5e <_Z14OsdWriteDirecttPKcbhii>
    1b30:	6599                	lui	a1,0x6
    1b32:	44058593          	addi	a1,a1,1088 # 6440 <strlen+0x212>
    1b36:	4781                	li	a5,0
    1b38:	02000713          	li	a4,32
    1b3c:	4681                	li	a3,0
    1b3e:	4601                	li	a2,0
    1b40:	4519                	li	a0,6
    1b42:	71d030ef          	jal	ra,5a5e <_Z14OsdWriteDirecttPKcbhii>
    1b46:	44840593          	addi	a1,s0,1096
    1b4a:	4781                	li	a5,0
    1b4c:	02000713          	li	a4,32
    1b50:	4681                	li	a3,0
    1b52:	4601                	li	a2,0
    1b54:	451d                	li	a0,7
    1b56:	709030ef          	jal	ra,5a5e <_Z14OsdWriteDirecttPKcbhii>
    1b5a:	6599                	lui	a1,0x6
    1b5c:	49458593          	addi	a1,a1,1172 # 6494 <strlen+0x266>
    1b60:	4781                	li	a5,0
    1b62:	02000713          	li	a4,32
    1b66:	4681                	li	a3,0
    1b68:	4601                	li	a2,0
    1b6a:	4521                	li	a0,8
    1b6c:	6f3030ef          	jal	ra,5a5e <_Z14OsdWriteDirecttPKcbhii>
    1b70:	44840593          	addi	a1,s0,1096
    1b74:	4781                	li	a5,0
    1b76:	02000713          	li	a4,32
    1b7a:	4681                	li	a3,0
    1b7c:	4601                	li	a2,0
    1b7e:	4525                	li	a0,9
    1b80:	6df030ef          	jal	ra,5a5e <_Z14OsdWriteDirecttPKcbhii>
    1b84:	6599                	lui	a1,0x6
    1b86:	44c58593          	addi	a1,a1,1100 # 644c <strlen+0x21e>
    1b8a:	4781                	li	a5,0
    1b8c:	02000713          	li	a4,32
    1b90:	4681                	li	a3,0
    1b92:	4601                	li	a2,0
    1b94:	4529                	li	a0,10
    1b96:	6c9030ef          	jal	ra,5a5e <_Z14OsdWriteDirecttPKcbhii>
    1b9a:	44840593          	addi	a1,s0,1096
    1b9e:	4781                	li	a5,0
    1ba0:	02000713          	li	a4,32
    1ba4:	4681                	li	a3,0
    1ba6:	4601                	li	a2,0
    1ba8:	452d                	li	a0,11
    1baa:	6b5030ef          	jal	ra,5a5e <_Z14OsdWriteDirecttPKcbhii>
    1bae:	6599                	lui	a1,0x6
    1bb0:	4c858593          	addi	a1,a1,1224 # 64c8 <strlen+0x29a>
    1bb4:	4781                	li	a5,0
    1bb6:	02000713          	li	a4,32
    1bba:	4681                	li	a3,0
    1bbc:	4601                	li	a2,0
    1bbe:	4531                	li	a0,12
    1bc0:	69f030ef          	jal	ra,5a5e <_Z14OsdWriteDirecttPKcbhii>
    1bc4:	44840593          	addi	a1,s0,1096
    1bc8:	4781                	li	a5,0
    1bca:	02000713          	li	a4,32
    1bce:	4681                	li	a3,0
    1bd0:	4601                	li	a2,0
    1bd2:	4535                	li	a0,13
    1bd4:	68b030ef          	jal	ra,5a5e <_Z14OsdWriteDirecttPKcbhii>
    1bd8:	6599                	lui	a1,0x6
    1bda:	47858593          	addi	a1,a1,1144 # 6478 <strlen+0x24a>
    1bde:	4781                	li	a5,0
    1be0:	02000713          	li	a4,32
    1be4:	4681                	li	a3,0
    1be6:	4601                	li	a2,0
    1be8:	4539                	li	a0,14
    1bea:	675030ef          	jal	ra,5a5e <_Z14OsdWriteDirecttPKcbhii>
    1bee:	44840593          	addi	a1,s0,1096
    1bf2:	4781                	li	a5,0
    1bf4:	02000713          	li	a4,32
    1bf8:	4681                	li	a3,0
    1bfa:	4601                	li	a2,0
    1bfc:	453d                	li	a0,15
    1bfe:	661030ef          	jal	ra,5a5e <_Z14OsdWriteDirecttPKcbhii>
    1c02:	6599                	lui	a1,0x6
    1c04:	4cc58593          	addi	a1,a1,1228 # 64cc <strlen+0x29e>
    1c08:	4781                	li	a5,0
    1c0a:	02000713          	li	a4,32
    1c0e:	4681                	li	a3,0
    1c10:	4601                	li	a2,0
    1c12:	4541                	li	a0,16
    1c14:	64b030ef          	jal	ra,5a5e <_Z14OsdWriteDirecttPKcbhii>
    1c18:	44840593          	addi	a1,s0,1096
    1c1c:	4781                	li	a5,0
    1c1e:	02000713          	li	a4,32
    1c22:	4681                	li	a3,0
    1c24:	4601                	li	a2,0
    1c26:	4545                	li	a0,17
    1c28:	637030ef          	jal	ra,5a5e <_Z14OsdWriteDirecttPKcbhii>
    1c2c:	6599                	lui	a1,0x6
    1c2e:	4d058593          	addi	a1,a1,1232 # 64d0 <strlen+0x2a2>
    1c32:	4781                	li	a5,0
    1c34:	02000713          	li	a4,32
    1c38:	4681                	li	a3,0
    1c3a:	4601                	li	a2,0
    1c3c:	4549                	li	a0,18
    1c3e:	621030ef          	jal	ra,5a5e <_Z14OsdWriteDirecttPKcbhii>
    1c42:	44840593          	addi	a1,s0,1096
    1c46:	4781                	li	a5,0
    1c48:	02000713          	li	a4,32
    1c4c:	4681                	li	a3,0
    1c4e:	4601                	li	a2,0
    1c50:	454d                	li	a0,19
    1c52:	60d030ef          	jal	ra,5a5e <_Z14OsdWriteDirecttPKcbhii>
    1c56:	6599                	lui	a1,0x6
    1c58:	47c58593          	addi	a1,a1,1148 # 647c <strlen+0x24e>
    1c5c:	4781                	li	a5,0
    1c5e:	02000713          	li	a4,32
    1c62:	4681                	li	a3,0
    1c64:	4601                	li	a2,0
    1c66:	4551                	li	a0,20
    1c68:	5f7030ef          	jal	ra,5a5e <_Z14OsdWriteDirecttPKcbhii>
    1c6c:	44840593          	addi	a1,s0,1096
    1c70:	4781                	li	a5,0
    1c72:	02000713          	li	a4,32
    1c76:	4681                	li	a3,0
    1c78:	4601                	li	a2,0
    1c7a:	4555                	li	a0,21
    1c7c:	5e3030ef          	jal	ra,5a5e <_Z14OsdWriteDirecttPKcbhii>
    1c80:	6599                	lui	a1,0x6
    1c82:	4d458593          	addi	a1,a1,1236 # 64d4 <strlen+0x2a6>
    1c86:	4781                	li	a5,0
    1c88:	02000713          	li	a4,32
    1c8c:	4681                	li	a3,0
    1c8e:	4601                	li	a2,0
    1c90:	4559                	li	a0,22
    1c92:	5cd030ef          	jal	ra,5a5e <_Z14OsdWriteDirecttPKcbhii>
    1c96:	44840593          	addi	a1,s0,1096
    1c9a:	4781                	li	a5,0
    1c9c:	02000713          	li	a4,32
    1ca0:	4681                	li	a3,0
    1ca2:	4601                	li	a2,0
    1ca4:	455d                	li	a0,23
    1ca6:	5b9030ef          	jal	ra,5a5e <_Z14OsdWriteDirecttPKcbhii>
    1caa:	6599                	lui	a1,0x6
    1cac:	4d858593          	addi	a1,a1,1240 # 64d8 <strlen+0x2aa>
    1cb0:	4781                	li	a5,0
    1cb2:	02000713          	li	a4,32
    1cb6:	4681                	li	a3,0
    1cb8:	4601                	li	a2,0
    1cba:	4561                	li	a0,24
    1cbc:	5a3030ef          	jal	ra,5a5e <_Z14OsdWriteDirecttPKcbhii>
    1cc0:	4781                	li	a5,0
    1cc2:	02000713          	li	a4,32
    1cc6:	4681                	li	a3,0
    1cc8:	4601                	li	a2,0
    1cca:	44840593          	addi	a1,s0,1096
    1cce:	4565                	li	a0,25
    1cd0:	58f030ef          	jal	ra,5a5e <_Z14OsdWriteDirecttPKcbhii>
    1cd4:	bb9d                	j	1a4a <_Z19OSD_Keyboard_4_linebi+0x288>

00001cd6 <_Z19OSD_Keyboard_5_linebi>:
    1cd6:	1101                	addi	sp,sp,-32
    1cd8:	c84a                	sw	s2,16(sp)
    1cda:	892a                	mv	s2,a0
    1cdc:	ca26                	sw	s1,20(sp)
    1cde:	ce06                	sw	ra,28(sp)
    1ce0:	cc22                	sw	s0,24(sp)
    1ce2:	c64e                	sw	s3,12(sp)
    1ce4:	c452                	sw	s4,8(sp)
    1ce6:	84ae                	mv	s1,a1
    1ce8:	5ed030ef          	jal	ra,5ad4 <_Z8OsdClearv>
    1cec:	2e090a63          	beqz	s2,1fe0 <_Z19OSD_Keyboard_5_linebi+0x30a>
    1cf0:	0014b413          	seqz	s0,s1
    1cf4:	6599                	lui	a1,0x6
    1cf6:	8622                	mv	a2,s0
    1cf8:	4781                	li	a5,0
    1cfa:	02000713          	li	a4,32
    1cfe:	4681                	li	a3,0
    1d00:	47c58593          	addi	a1,a1,1148 # 647c <strlen+0x24e>
    1d04:	4501                	li	a0,0
    1d06:	559030ef          	jal	ra,5a5e <_Z14OsdWriteDirecttPKcbhii>
    1d0a:	6a19                	lui	s4,0x6
    1d0c:	8622                	mv	a2,s0
    1d0e:	4781                	li	a5,0
    1d10:	02000713          	li	a4,32
    1d14:	4681                	li	a3,0
    1d16:	440a0593          	addi	a1,s4,1088 # 6440 <strlen+0x212>
    1d1a:	4505                	li	a0,1
    1d1c:	543030ef          	jal	ra,5a5e <_Z14OsdWriteDirecttPKcbhii>
    1d20:	6999                	lui	s3,0x6
    1d22:	8622                	mv	a2,s0
    1d24:	4781                	li	a5,0
    1d26:	02000713          	li	a4,32
    1d2a:	4681                	li	a3,0
    1d2c:	44c98593          	addi	a1,s3,1100 # 644c <strlen+0x21e>
    1d30:	4509                	li	a0,2
    1d32:	6419                	lui	s0,0x6
    1d34:	52b030ef          	jal	ra,5a5e <_Z14OsdWriteDirecttPKcbhii>
    1d38:	4781                	li	a5,0
    1d3a:	02000713          	li	a4,32
    1d3e:	4681                	li	a3,0
    1d40:	4601                	li	a2,0
    1d42:	44840593          	addi	a1,s0,1096 # 6448 <strlen+0x21a>
    1d46:	450d                	li	a0,3
    1d48:	517030ef          	jal	ra,5a5e <_Z14OsdWriteDirecttPKcbhii>
    1d4c:	fff48613          	addi	a2,s1,-1
    1d50:	6599                	lui	a1,0x6
    1d52:	4781                	li	a5,0
    1d54:	02000713          	li	a4,32
    1d58:	4681                	li	a3,0
    1d5a:	00163613          	seqz	a2,a2
    1d5e:	4dc58593          	addi	a1,a1,1244 # 64dc <strlen+0x2ae>
    1d62:	4511                	li	a0,4
    1d64:	4fb030ef          	jal	ra,5a5e <_Z14OsdWriteDirecttPKcbhii>
    1d68:	4781                	li	a5,0
    1d6a:	02000713          	li	a4,32
    1d6e:	4681                	li	a3,0
    1d70:	4601                	li	a2,0
    1d72:	44840593          	addi	a1,s0,1096
    1d76:	4515                	li	a0,5
    1d78:	4e7030ef          	jal	ra,5a5e <_Z14OsdWriteDirecttPKcbhii>
    1d7c:	ffe48613          	addi	a2,s1,-2
    1d80:	6599                	lui	a1,0x6
    1d82:	4781                	li	a5,0
    1d84:	02000713          	li	a4,32
    1d88:	4681                	li	a3,0
    1d8a:	00163613          	seqz	a2,a2
    1d8e:	4e058593          	addi	a1,a1,1248 # 64e0 <strlen+0x2b2>
    1d92:	4519                	li	a0,6
    1d94:	4cb030ef          	jal	ra,5a5e <_Z14OsdWriteDirecttPKcbhii>
    1d98:	4781                	li	a5,0
    1d9a:	02000713          	li	a4,32
    1d9e:	4681                	li	a3,0
    1da0:	4601                	li	a2,0
    1da2:	44840593          	addi	a1,s0,1096
    1da6:	451d                	li	a0,7
    1da8:	4b7030ef          	jal	ra,5a5e <_Z14OsdWriteDirecttPKcbhii>
    1dac:	ffd48613          	addi	a2,s1,-3
    1db0:	6599                	lui	a1,0x6
    1db2:	4781                	li	a5,0
    1db4:	02000713          	li	a4,32
    1db8:	4681                	li	a3,0
    1dba:	00163613          	seqz	a2,a2
    1dbe:	44458593          	addi	a1,a1,1092 # 6444 <strlen+0x216>
    1dc2:	4521                	li	a0,8
    1dc4:	49b030ef          	jal	ra,5a5e <_Z14OsdWriteDirecttPKcbhii>
    1dc8:	4781                	li	a5,0
    1dca:	02000713          	li	a4,32
    1dce:	4681                	li	a3,0
    1dd0:	4601                	li	a2,0
    1dd2:	44840593          	addi	a1,s0,1096
    1dd6:	4525                	li	a0,9
    1dd8:	487030ef          	jal	ra,5a5e <_Z14OsdWriteDirecttPKcbhii>
    1ddc:	ffc48613          	addi	a2,s1,-4
    1de0:	6599                	lui	a1,0x6
    1de2:	4781                	li	a5,0
    1de4:	02000713          	li	a4,32
    1de8:	4681                	li	a3,0
    1dea:	00163613          	seqz	a2,a2
    1dee:	4e458593          	addi	a1,a1,1252 # 64e4 <strlen+0x2b6>
    1df2:	4529                	li	a0,10
    1df4:	46b030ef          	jal	ra,5a5e <_Z14OsdWriteDirecttPKcbhii>
    1df8:	4781                	li	a5,0
    1dfa:	02000713          	li	a4,32
    1dfe:	4681                	li	a3,0
    1e00:	4601                	li	a2,0
    1e02:	44840593          	addi	a1,s0,1096
    1e06:	452d                	li	a0,11
    1e08:	457030ef          	jal	ra,5a5e <_Z14OsdWriteDirecttPKcbhii>
    1e0c:	ffb48613          	addi	a2,s1,-5
    1e10:	6599                	lui	a1,0x6
    1e12:	4781                	li	a5,0
    1e14:	02000713          	li	a4,32
    1e18:	4681                	li	a3,0
    1e1a:	00163613          	seqz	a2,a2
    1e1e:	49058593          	addi	a1,a1,1168 # 6490 <strlen+0x262>
    1e22:	4531                	li	a0,12
    1e24:	43b030ef          	jal	ra,5a5e <_Z14OsdWriteDirecttPKcbhii>
    1e28:	4781                	li	a5,0
    1e2a:	02000713          	li	a4,32
    1e2e:	4681                	li	a3,0
    1e30:	4601                	li	a2,0
    1e32:	44840593          	addi	a1,s0,1096
    1e36:	4535                	li	a0,13
    1e38:	427030ef          	jal	ra,5a5e <_Z14OsdWriteDirecttPKcbhii>
    1e3c:	ffa48613          	addi	a2,s1,-6
    1e40:	6599                	lui	a1,0x6
    1e42:	4781                	li	a5,0
    1e44:	02000713          	li	a4,32
    1e48:	4681                	li	a3,0
    1e4a:	00163613          	seqz	a2,a2
    1e4e:	4e858593          	addi	a1,a1,1256 # 64e8 <strlen+0x2ba>
    1e52:	4539                	li	a0,14
    1e54:	40b030ef          	jal	ra,5a5e <_Z14OsdWriteDirecttPKcbhii>
    1e58:	4781                	li	a5,0
    1e5a:	02000713          	li	a4,32
    1e5e:	4681                	li	a3,0
    1e60:	4601                	li	a2,0
    1e62:	44840593          	addi	a1,s0,1096
    1e66:	453d                	li	a0,15
    1e68:	3f7030ef          	jal	ra,5a5e <_Z14OsdWriteDirecttPKcbhii>
    1e6c:	ff948613          	addi	a2,s1,-7
    1e70:	6599                	lui	a1,0x6
    1e72:	4781                	li	a5,0
    1e74:	02000713          	li	a4,32
    1e78:	4681                	li	a3,0
    1e7a:	00163613          	seqz	a2,a2
    1e7e:	4ec58593          	addi	a1,a1,1260 # 64ec <strlen+0x2be>
    1e82:	4541                	li	a0,16
    1e84:	3db030ef          	jal	ra,5a5e <_Z14OsdWriteDirecttPKcbhii>
    1e88:	4781                	li	a5,0
    1e8a:	02000713          	li	a4,32
    1e8e:	4681                	li	a3,0
    1e90:	4601                	li	a2,0
    1e92:	44840593          	addi	a1,s0,1096
    1e96:	4545                	li	a0,17
    1e98:	3c7030ef          	jal	ra,5a5e <_Z14OsdWriteDirecttPKcbhii>
    1e9c:	ff848613          	addi	a2,s1,-8
    1ea0:	6599                	lui	a1,0x6
    1ea2:	4781                	li	a5,0
    1ea4:	02000713          	li	a4,32
    1ea8:	4681                	li	a3,0
    1eaa:	00163613          	seqz	a2,a2
    1eae:	4f058593          	addi	a1,a1,1264 # 64f0 <strlen+0x2c2>
    1eb2:	4549                	li	a0,18
    1eb4:	3ab030ef          	jal	ra,5a5e <_Z14OsdWriteDirecttPKcbhii>
    1eb8:	4781                	li	a5,0
    1eba:	02000713          	li	a4,32
    1ebe:	4681                	li	a3,0
    1ec0:	4601                	li	a2,0
    1ec2:	44840593          	addi	a1,s0,1096
    1ec6:	454d                	li	a0,19
    1ec8:	397030ef          	jal	ra,5a5e <_Z14OsdWriteDirecttPKcbhii>
    1ecc:	ff748613          	addi	a2,s1,-9
    1ed0:	6599                	lui	a1,0x6
    1ed2:	4781                	li	a5,0
    1ed4:	02000713          	li	a4,32
    1ed8:	4681                	li	a3,0
    1eda:	00163613          	seqz	a2,a2
    1ede:	4f458593          	addi	a1,a1,1268 # 64f4 <strlen+0x2c6>
    1ee2:	4551                	li	a0,20
    1ee4:	37b030ef          	jal	ra,5a5e <_Z14OsdWriteDirecttPKcbhii>
    1ee8:	4781                	li	a5,0
    1eea:	02000713          	li	a4,32
    1eee:	4681                	li	a3,0
    1ef0:	4601                	li	a2,0
    1ef2:	44840593          	addi	a1,s0,1096
    1ef6:	4555                	li	a0,21
    1ef8:	367030ef          	jal	ra,5a5e <_Z14OsdWriteDirecttPKcbhii>
    1efc:	ff648613          	addi	a2,s1,-10
    1f00:	6599                	lui	a1,0x6
    1f02:	4781                	li	a5,0
    1f04:	02000713          	li	a4,32
    1f08:	4681                	li	a3,0
    1f0a:	00163613          	seqz	a2,a2
    1f0e:	4f858593          	addi	a1,a1,1272 # 64f8 <strlen+0x2ca>
    1f12:	4559                	li	a0,22
    1f14:	34b030ef          	jal	ra,5a5e <_Z14OsdWriteDirecttPKcbhii>
    1f18:	4781                	li	a5,0
    1f1a:	02000713          	li	a4,32
    1f1e:	4681                	li	a3,0
    1f20:	4601                	li	a2,0
    1f22:	44840593          	addi	a1,s0,1096
    1f26:	455d                	li	a0,23
    1f28:	337030ef          	jal	ra,5a5e <_Z14OsdWriteDirecttPKcbhii>
    1f2c:	ff548913          	addi	s2,s1,-11
    1f30:	00193913          	seqz	s2,s2
    1f34:	6599                	lui	a1,0x6
    1f36:	864a                	mv	a2,s2
    1f38:	4781                	li	a5,0
    1f3a:	02000713          	li	a4,32
    1f3e:	4681                	li	a3,0
    1f40:	4a858593          	addi	a1,a1,1192 # 64a8 <strlen+0x27a>
    1f44:	4561                	li	a0,24
    1f46:	319030ef          	jal	ra,5a5e <_Z14OsdWriteDirecttPKcbhii>
    1f4a:	864a                	mv	a2,s2
    1f4c:	4781                	li	a5,0
    1f4e:	02000713          	li	a4,32
    1f52:	4681                	li	a3,0
    1f54:	440a0593          	addi	a1,s4,1088
    1f58:	4565                	li	a0,25
    1f5a:	305030ef          	jal	ra,5a5e <_Z14OsdWriteDirecttPKcbhii>
    1f5e:	864a                	mv	a2,s2
    1f60:	4781                	li	a5,0
    1f62:	02000713          	li	a4,32
    1f66:	4681                	li	a3,0
    1f68:	44c98593          	addi	a1,s3,1100
    1f6c:	4569                	li	a0,26
    1f6e:	2f1030ef          	jal	ra,5a5e <_Z14OsdWriteDirecttPKcbhii>
    1f72:	4781                	li	a5,0
    1f74:	02000713          	li	a4,32
    1f78:	4681                	li	a3,0
    1f7a:	4601                	li	a2,0
    1f7c:	44840593          	addi	a1,s0,1096
    1f80:	456d                	li	a0,27
    1f82:	2dd030ef          	jal	ra,5a5e <_Z14OsdWriteDirecttPKcbhii>
    1f86:	4571                	li	a0,28
    1f88:	4781                	li	a5,0
    1f8a:	02000713          	li	a4,32
    1f8e:	4681                	li	a3,0
    1f90:	4601                	li	a2,0
    1f92:	44840593          	addi	a1,s0,1096
    1f96:	2c9030ef          	jal	ra,5a5e <_Z14OsdWriteDirecttPKcbhii>
    1f9a:	ff448513          	addi	a0,s1,-12
    1f9e:	00153913          	seqz	s2,a0
    1fa2:	6599                	lui	a1,0x6
    1fa4:	864a                	mv	a2,s2
    1fa6:	4781                	li	a5,0
    1fa8:	02000713          	li	a4,32
    1fac:	4681                	li	a3,0
    1fae:	4fc58593          	addi	a1,a1,1276 # 64fc <strlen+0x2ce>
    1fb2:	4575                	li	a0,29
    1fb4:	2ab030ef          	jal	ra,5a5e <_Z14OsdWriteDirecttPKcbhii>
    1fb8:	4579                	li	a0,30
    1fba:	44840593          	addi	a1,s0,1096
    1fbe:	4781                	li	a5,0
    1fc0:	02000713          	li	a4,32
    1fc4:	4681                	li	a3,0
    1fc6:	4601                	li	a2,0
    1fc8:	297030ef          	jal	ra,5a5e <_Z14OsdWriteDirecttPKcbhii>
    1fcc:	4462                	lw	s0,24(sp)
    1fce:	40f2                	lw	ra,28(sp)
    1fd0:	44d2                	lw	s1,20(sp)
    1fd2:	4942                	lw	s2,16(sp)
    1fd4:	49b2                	lw	s3,12(sp)
    1fd6:	4a22                	lw	s4,8(sp)
    1fd8:	4515                	li	a0,5
    1fda:	6105                	addi	sp,sp,32
    1fdc:	3990306f          	j	5b74 <_Z9OsdUpdatei>
    1fe0:	6599                	lui	a1,0x6
    1fe2:	47c58593          	addi	a1,a1,1148 # 647c <strlen+0x24e>
    1fe6:	4781                	li	a5,0
    1fe8:	02000713          	li	a4,32
    1fec:	4681                	li	a3,0
    1fee:	4601                	li	a2,0
    1ff0:	4501                	li	a0,0
    1ff2:	26d030ef          	jal	ra,5a5e <_Z14OsdWriteDirecttPKcbhii>
    1ff6:	6999                	lui	s3,0x6
    1ff8:	44098593          	addi	a1,s3,1088 # 6440 <strlen+0x212>
    1ffc:	4781                	li	a5,0
    1ffe:	02000713          	li	a4,32
    2002:	4681                	li	a3,0
    2004:	4601                	li	a2,0
    2006:	4505                	li	a0,1
    2008:	257030ef          	jal	ra,5a5e <_Z14OsdWriteDirecttPKcbhii>
    200c:	6499                	lui	s1,0x6
    200e:	44c48593          	addi	a1,s1,1100 # 644c <strlen+0x21e>
    2012:	4781                	li	a5,0
    2014:	02000713          	li	a4,32
    2018:	4681                	li	a3,0
    201a:	4601                	li	a2,0
    201c:	4509                	li	a0,2
    201e:	6419                	lui	s0,0x6
    2020:	23f030ef          	jal	ra,5a5e <_Z14OsdWriteDirecttPKcbhii>
    2024:	44840593          	addi	a1,s0,1096 # 6448 <strlen+0x21a>
    2028:	4781                	li	a5,0
    202a:	02000713          	li	a4,32
    202e:	4681                	li	a3,0
    2030:	4601                	li	a2,0
    2032:	450d                	li	a0,3
    2034:	22b030ef          	jal	ra,5a5e <_Z14OsdWriteDirecttPKcbhii>
    2038:	6599                	lui	a1,0x6
    203a:	4dc58593          	addi	a1,a1,1244 # 64dc <strlen+0x2ae>
    203e:	4781                	li	a5,0
    2040:	02000713          	li	a4,32
    2044:	4681                	li	a3,0
    2046:	4601                	li	a2,0
    2048:	4511                	li	a0,4
    204a:	215030ef          	jal	ra,5a5e <_Z14OsdWriteDirecttPKcbhii>
    204e:	44840593          	addi	a1,s0,1096
    2052:	4781                	li	a5,0
    2054:	02000713          	li	a4,32
    2058:	4681                	li	a3,0
    205a:	4601                	li	a2,0
    205c:	4515                	li	a0,5
    205e:	201030ef          	jal	ra,5a5e <_Z14OsdWriteDirecttPKcbhii>
    2062:	6599                	lui	a1,0x6
    2064:	4e058593          	addi	a1,a1,1248 # 64e0 <strlen+0x2b2>
    2068:	4781                	li	a5,0
    206a:	02000713          	li	a4,32
    206e:	4681                	li	a3,0
    2070:	4601                	li	a2,0
    2072:	4519                	li	a0,6
    2074:	1eb030ef          	jal	ra,5a5e <_Z14OsdWriteDirecttPKcbhii>
    2078:	44840593          	addi	a1,s0,1096
    207c:	4781                	li	a5,0
    207e:	02000713          	li	a4,32
    2082:	4681                	li	a3,0
    2084:	4601                	li	a2,0
    2086:	451d                	li	a0,7
    2088:	1d7030ef          	jal	ra,5a5e <_Z14OsdWriteDirecttPKcbhii>
    208c:	6599                	lui	a1,0x6
    208e:	44458593          	addi	a1,a1,1092 # 6444 <strlen+0x216>
    2092:	4781                	li	a5,0
    2094:	02000713          	li	a4,32
    2098:	4681                	li	a3,0
    209a:	4601                	li	a2,0
    209c:	4521                	li	a0,8
    209e:	1c1030ef          	jal	ra,5a5e <_Z14OsdWriteDirecttPKcbhii>
    20a2:	44840593          	addi	a1,s0,1096
    20a6:	4781                	li	a5,0
    20a8:	02000713          	li	a4,32
    20ac:	4681                	li	a3,0
    20ae:	4601                	li	a2,0
    20b0:	4525                	li	a0,9
    20b2:	1ad030ef          	jal	ra,5a5e <_Z14OsdWriteDirecttPKcbhii>
    20b6:	6599                	lui	a1,0x6
    20b8:	4e458593          	addi	a1,a1,1252 # 64e4 <strlen+0x2b6>
    20bc:	4781                	li	a5,0
    20be:	02000713          	li	a4,32
    20c2:	4681                	li	a3,0
    20c4:	4601                	li	a2,0
    20c6:	4529                	li	a0,10
    20c8:	197030ef          	jal	ra,5a5e <_Z14OsdWriteDirecttPKcbhii>
    20cc:	44840593          	addi	a1,s0,1096
    20d0:	4781                	li	a5,0
    20d2:	02000713          	li	a4,32
    20d6:	4681                	li	a3,0
    20d8:	4601                	li	a2,0
    20da:	452d                	li	a0,11
    20dc:	183030ef          	jal	ra,5a5e <_Z14OsdWriteDirecttPKcbhii>
    20e0:	6599                	lui	a1,0x6
    20e2:	49058593          	addi	a1,a1,1168 # 6490 <strlen+0x262>
    20e6:	4781                	li	a5,0
    20e8:	02000713          	li	a4,32
    20ec:	4681                	li	a3,0
    20ee:	4601                	li	a2,0
    20f0:	4531                	li	a0,12
    20f2:	16d030ef          	jal	ra,5a5e <_Z14OsdWriteDirecttPKcbhii>
    20f6:	44840593          	addi	a1,s0,1096
    20fa:	4781                	li	a5,0
    20fc:	02000713          	li	a4,32
    2100:	4681                	li	a3,0
    2102:	4601                	li	a2,0
    2104:	4535                	li	a0,13
    2106:	159030ef          	jal	ra,5a5e <_Z14OsdWriteDirecttPKcbhii>
    210a:	6599                	lui	a1,0x6
    210c:	4e858593          	addi	a1,a1,1256 # 64e8 <strlen+0x2ba>
    2110:	4781                	li	a5,0
    2112:	02000713          	li	a4,32
    2116:	4681                	li	a3,0
    2118:	4601                	li	a2,0
    211a:	4539                	li	a0,14
    211c:	143030ef          	jal	ra,5a5e <_Z14OsdWriteDirecttPKcbhii>
    2120:	44840593          	addi	a1,s0,1096
    2124:	4781                	li	a5,0
    2126:	02000713          	li	a4,32
    212a:	4681                	li	a3,0
    212c:	4601                	li	a2,0
    212e:	453d                	li	a0,15
    2130:	12f030ef          	jal	ra,5a5e <_Z14OsdWriteDirecttPKcbhii>
    2134:	6599                	lui	a1,0x6
    2136:	4ec58593          	addi	a1,a1,1260 # 64ec <strlen+0x2be>
    213a:	4781                	li	a5,0
    213c:	02000713          	li	a4,32
    2140:	4681                	li	a3,0
    2142:	4601                	li	a2,0
    2144:	4541                	li	a0,16
    2146:	119030ef          	jal	ra,5a5e <_Z14OsdWriteDirecttPKcbhii>
    214a:	44840593          	addi	a1,s0,1096
    214e:	4781                	li	a5,0
    2150:	02000713          	li	a4,32
    2154:	4681                	li	a3,0
    2156:	4601                	li	a2,0
    2158:	4545                	li	a0,17
    215a:	105030ef          	jal	ra,5a5e <_Z14OsdWriteDirecttPKcbhii>
    215e:	6599                	lui	a1,0x6
    2160:	4f058593          	addi	a1,a1,1264 # 64f0 <strlen+0x2c2>
    2164:	4781                	li	a5,0
    2166:	02000713          	li	a4,32
    216a:	4681                	li	a3,0
    216c:	4601                	li	a2,0
    216e:	4549                	li	a0,18
    2170:	0ef030ef          	jal	ra,5a5e <_Z14OsdWriteDirecttPKcbhii>
    2174:	44840593          	addi	a1,s0,1096
    2178:	4781                	li	a5,0
    217a:	02000713          	li	a4,32
    217e:	4681                	li	a3,0
    2180:	4601                	li	a2,0
    2182:	454d                	li	a0,19
    2184:	0db030ef          	jal	ra,5a5e <_Z14OsdWriteDirecttPKcbhii>
    2188:	6599                	lui	a1,0x6
    218a:	4f458593          	addi	a1,a1,1268 # 64f4 <strlen+0x2c6>
    218e:	4781                	li	a5,0
    2190:	02000713          	li	a4,32
    2194:	4681                	li	a3,0
    2196:	4601                	li	a2,0
    2198:	4551                	li	a0,20
    219a:	0c5030ef          	jal	ra,5a5e <_Z14OsdWriteDirecttPKcbhii>
    219e:	44840593          	addi	a1,s0,1096
    21a2:	4781                	li	a5,0
    21a4:	02000713          	li	a4,32
    21a8:	4681                	li	a3,0
    21aa:	4601                	li	a2,0
    21ac:	4555                	li	a0,21
    21ae:	0b1030ef          	jal	ra,5a5e <_Z14OsdWriteDirecttPKcbhii>
    21b2:	6599                	lui	a1,0x6
    21b4:	4f858593          	addi	a1,a1,1272 # 64f8 <strlen+0x2ca>
    21b8:	4781                	li	a5,0
    21ba:	02000713          	li	a4,32
    21be:	4681                	li	a3,0
    21c0:	4601                	li	a2,0
    21c2:	4559                	li	a0,22
    21c4:	09b030ef          	jal	ra,5a5e <_Z14OsdWriteDirecttPKcbhii>
    21c8:	44840593          	addi	a1,s0,1096
    21cc:	4781                	li	a5,0
    21ce:	02000713          	li	a4,32
    21d2:	4681                	li	a3,0
    21d4:	4601                	li	a2,0
    21d6:	455d                	li	a0,23
    21d8:	087030ef          	jal	ra,5a5e <_Z14OsdWriteDirecttPKcbhii>
    21dc:	6599                	lui	a1,0x6
    21de:	4a858593          	addi	a1,a1,1192 # 64a8 <strlen+0x27a>
    21e2:	4781                	li	a5,0
    21e4:	02000713          	li	a4,32
    21e8:	4681                	li	a3,0
    21ea:	4601                	li	a2,0
    21ec:	4561                	li	a0,24
    21ee:	071030ef          	jal	ra,5a5e <_Z14OsdWriteDirecttPKcbhii>
    21f2:	44098593          	addi	a1,s3,1088
    21f6:	4781                	li	a5,0
    21f8:	02000713          	li	a4,32
    21fc:	4681                	li	a3,0
    21fe:	4601                	li	a2,0
    2200:	4565                	li	a0,25
    2202:	05d030ef          	jal	ra,5a5e <_Z14OsdWriteDirecttPKcbhii>
    2206:	44c48593          	addi	a1,s1,1100
    220a:	4781                	li	a5,0
    220c:	02000713          	li	a4,32
    2210:	4681                	li	a3,0
    2212:	4601                	li	a2,0
    2214:	4569                	li	a0,26
    2216:	049030ef          	jal	ra,5a5e <_Z14OsdWriteDirecttPKcbhii>
    221a:	44840593          	addi	a1,s0,1096
    221e:	4781                	li	a5,0
    2220:	02000713          	li	a4,32
    2224:	4681                	li	a3,0
    2226:	4601                	li	a2,0
    2228:	456d                	li	a0,27
    222a:	035030ef          	jal	ra,5a5e <_Z14OsdWriteDirecttPKcbhii>
    222e:	4781                	li	a5,0
    2230:	02000713          	li	a4,32
    2234:	4681                	li	a3,0
    2236:	4601                	li	a2,0
    2238:	44840593          	addi	a1,s0,1096
    223c:	4571                	li	a0,28
    223e:	021030ef          	jal	ra,5a5e <_Z14OsdWriteDirecttPKcbhii>
    2242:	b385                	j	1fa2 <_Z19OSD_Keyboard_5_linebi+0x2cc>

00002244 <_Z19OSD_Keyboard_6_linebi>:
    2244:	7179                	addi	sp,sp,-48
    2246:	d226                	sw	s1,36(sp)
    2248:	84aa                	mv	s1,a0
    224a:	d422                	sw	s0,40(sp)
    224c:	d606                	sw	ra,44(sp)
    224e:	d04a                	sw	s2,32(sp)
    2250:	ce4e                	sw	s3,28(sp)
    2252:	cc52                	sw	s4,24(sp)
    2254:	ca56                	sw	s5,20(sp)
    2256:	c85a                	sw	s6,16(sp)
    2258:	c65e                	sw	s7,12(sp)
    225a:	c462                	sw	s8,8(sp)
    225c:	842e                	mv	s0,a1
    225e:	077030ef          	jal	ra,5ad4 <_Z8OsdClearv>
    2262:	2e048363          	beqz	s1,2548 <_Z19OSD_Keyboard_6_linebi+0x304>
    2266:	00143493          	seqz	s1,s0
    226a:	6c19                	lui	s8,0x6
    226c:	8626                	mv	a2,s1
    226e:	4781                	li	a5,0
    2270:	02000713          	li	a4,32
    2274:	4681                	li	a3,0
    2276:	444c0593          	addi	a1,s8,1092 # 6444 <strlen+0x216>
    227a:	4501                	li	a0,0
    227c:	7e2030ef          	jal	ra,5a5e <_Z14OsdWriteDirecttPKcbhii>
    2280:	6a99                	lui	s5,0x6
    2282:	8626                	mv	a2,s1
    2284:	4781                	li	a5,0
    2286:	02000713          	li	a4,32
    228a:	4681                	li	a3,0
    228c:	498a8593          	addi	a1,s5,1176 # 6498 <strlen+0x26a>
    2290:	4505                	li	a0,1
    2292:	7cc030ef          	jal	ra,5a5e <_Z14OsdWriteDirecttPKcbhii>
    2296:	6b19                	lui	s6,0x6
    2298:	8626                	mv	a2,s1
    229a:	4781                	li	a5,0
    229c:	02000713          	li	a4,32
    22a0:	4681                	li	a3,0
    22a2:	4a8b0593          	addi	a1,s6,1192 # 64a8 <strlen+0x27a>
    22a6:	4509                	li	a0,2
    22a8:	7b6030ef          	jal	ra,5a5e <_Z14OsdWriteDirecttPKcbhii>
    22ac:	6919                	lui	s2,0x6
    22ae:	8626                	mv	a2,s1
    22b0:	4781                	li	a5,0
    22b2:	02000713          	li	a4,32
    22b6:	4681                	li	a3,0
    22b8:	47c90593          	addi	a1,s2,1148 # 647c <strlen+0x24e>
    22bc:	450d                	li	a0,3
    22be:	7a0030ef          	jal	ra,5a5e <_Z14OsdWriteDirecttPKcbhii>
    22c2:	6a19                	lui	s4,0x6
    22c4:	4781                	li	a5,0
    22c6:	02000713          	li	a4,32
    22ca:	4681                	li	a3,0
    22cc:	4601                	li	a2,0
    22ce:	448a0593          	addi	a1,s4,1096 # 6448 <strlen+0x21a>
    22d2:	4511                	li	a0,4
    22d4:	fff40493          	addi	s1,s0,-1
    22d8:	786030ef          	jal	ra,5a5e <_Z14OsdWriteDirecttPKcbhii>
    22dc:	0014b493          	seqz	s1,s1
    22e0:	8626                	mv	a2,s1
    22e2:	4781                	li	a5,0
    22e4:	02000713          	li	a4,32
    22e8:	4681                	li	a3,0
    22ea:	47c90593          	addi	a1,s2,1148
    22ee:	4515                	li	a0,5
    22f0:	76e030ef          	jal	ra,5a5e <_Z14OsdWriteDirecttPKcbhii>
    22f4:	6999                	lui	s3,0x6
    22f6:	8626                	mv	a2,s1
    22f8:	4781                	li	a5,0
    22fa:	02000713          	li	a4,32
    22fe:	4681                	li	a3,0
    2300:	49c98593          	addi	a1,s3,1180 # 649c <strlen+0x26e>
    2304:	4519                	li	a0,6
    2306:	758030ef          	jal	ra,5a5e <_Z14OsdWriteDirecttPKcbhii>
    230a:	8626                	mv	a2,s1
    230c:	4781                	li	a5,0
    230e:	02000713          	li	a4,32
    2312:	4681                	li	a3,0
    2314:	47c90593          	addi	a1,s2,1148
    2318:	451d                	li	a0,7
    231a:	744030ef          	jal	ra,5a5e <_Z14OsdWriteDirecttPKcbhii>
    231e:	8626                	mv	a2,s1
    2320:	4781                	li	a5,0
    2322:	02000713          	li	a4,32
    2326:	4681                	li	a3,0
    2328:	498a8593          	addi	a1,s5,1176
    232c:	4521                	li	a0,8
    232e:	730030ef          	jal	ra,5a5e <_Z14OsdWriteDirecttPKcbhii>
    2332:	4781                	li	a5,0
    2334:	02000713          	li	a4,32
    2338:	4681                	li	a3,0
    233a:	4601                	li	a2,0
    233c:	448a0593          	addi	a1,s4,1096
    2340:	4525                	li	a0,9
    2342:	ffe40493          	addi	s1,s0,-2
    2346:	718030ef          	jal	ra,5a5e <_Z14OsdWriteDirecttPKcbhii>
    234a:	0014b493          	seqz	s1,s1
    234e:	8626                	mv	a2,s1
    2350:	4781                	li	a5,0
    2352:	02000713          	li	a4,32
    2356:	4681                	li	a3,0
    2358:	47c90593          	addi	a1,s2,1148
    235c:	4529                	li	a0,10
    235e:	700030ef          	jal	ra,5a5e <_Z14OsdWriteDirecttPKcbhii>
    2362:	8626                	mv	a2,s1
    2364:	4781                	li	a5,0
    2366:	02000713          	li	a4,32
    236a:	4681                	li	a3,0
    236c:	49c98593          	addi	a1,s3,1180
    2370:	452d                	li	a0,11
    2372:	6ec030ef          	jal	ra,5a5e <_Z14OsdWriteDirecttPKcbhii>
    2376:	6b99                	lui	s7,0x6
    2378:	8626                	mv	a2,s1
    237a:	4781                	li	a5,0
    237c:	02000713          	li	a4,32
    2380:	4681                	li	a3,0
    2382:	4ecb8593          	addi	a1,s7,1260 # 64ec <strlen+0x2be>
    2386:	4531                	li	a0,12
    2388:	ffd40493          	addi	s1,s0,-3
    238c:	0014b493          	seqz	s1,s1
    2390:	6ce030ef          	jal	ra,5a5e <_Z14OsdWriteDirecttPKcbhii>
    2394:	8626                	mv	a2,s1
    2396:	4781                	li	a5,0
    2398:	02000713          	li	a4,32
    239c:	4681                	li	a3,0
    239e:	448a0593          	addi	a1,s4,1096
    23a2:	4535                	li	a0,13
    23a4:	6ba030ef          	jal	ra,5a5e <_Z14OsdWriteDirecttPKcbhii>
    23a8:	6599                	lui	a1,0x6
    23aa:	8626                	mv	a2,s1
    23ac:	4781                	li	a5,0
    23ae:	02000713          	li	a4,32
    23b2:	4681                	li	a3,0
    23b4:	44058593          	addi	a1,a1,1088 # 6440 <strlen+0x212>
    23b8:	4539                	li	a0,14
    23ba:	6a4030ef          	jal	ra,5a5e <_Z14OsdWriteDirecttPKcbhii>
    23be:	6599                	lui	a1,0x6
    23c0:	8626                	mv	a2,s1
    23c2:	4781                	li	a5,0
    23c4:	02000713          	li	a4,32
    23c8:	4681                	li	a3,0
    23ca:	48058593          	addi	a1,a1,1152 # 6480 <strlen+0x252>
    23ce:	453d                	li	a0,15
    23d0:	68e030ef          	jal	ra,5a5e <_Z14OsdWriteDirecttPKcbhii>
    23d4:	8626                	mv	a2,s1
    23d6:	4781                	li	a5,0
    23d8:	02000713          	li	a4,32
    23dc:	4681                	li	a3,0
    23de:	49c98593          	addi	a1,s3,1180
    23e2:	4541                	li	a0,16
    23e4:	67a030ef          	jal	ra,5a5e <_Z14OsdWriteDirecttPKcbhii>
    23e8:	8626                	mv	a2,s1
    23ea:	4781                	li	a5,0
    23ec:	02000713          	li	a4,32
    23f0:	4681                	li	a3,0
    23f2:	444c0593          	addi	a1,s8,1092
    23f6:	4545                	li	a0,17
    23f8:	666030ef          	jal	ra,5a5e <_Z14OsdWriteDirecttPKcbhii>
    23fc:	6599                	lui	a1,0x6
    23fe:	8626                	mv	a2,s1
    2400:	4781                	li	a5,0
    2402:	02000713          	li	a4,32
    2406:	4681                	li	a3,0
    2408:	43c58593          	addi	a1,a1,1084 # 643c <strlen+0x20e>
    240c:	4549                	li	a0,18
    240e:	650030ef          	jal	ra,5a5e <_Z14OsdWriteDirecttPKcbhii>
    2412:	8626                	mv	a2,s1
    2414:	4781                	li	a5,0
    2416:	02000713          	li	a4,32
    241a:	4681                	li	a3,0
    241c:	448a0593          	addi	a1,s4,1096
    2420:	454d                	li	a0,19
    2422:	ffc40493          	addi	s1,s0,-4
    2426:	638030ef          	jal	ra,5a5e <_Z14OsdWriteDirecttPKcbhii>
    242a:	0014b493          	seqz	s1,s1
    242e:	8626                	mv	a2,s1
    2430:	4781                	li	a5,0
    2432:	02000713          	li	a4,32
    2436:	4681                	li	a3,0
    2438:	4a8b0593          	addi	a1,s6,1192
    243c:	4551                	li	a0,20
    243e:	620030ef          	jal	ra,5a5e <_Z14OsdWriteDirecttPKcbhii>
    2442:	8626                	mv	a2,s1
    2444:	4781                	li	a5,0
    2446:	02000713          	li	a4,32
    244a:	4681                	li	a3,0
    244c:	49c98593          	addi	a1,s3,1180
    2450:	4555                	li	a0,21
    2452:	60c030ef          	jal	ra,5a5e <_Z14OsdWriteDirecttPKcbhii>
    2456:	8626                	mv	a2,s1
    2458:	4781                	li	a5,0
    245a:	02000713          	li	a4,32
    245e:	4681                	li	a3,0
    2460:	4ecb8593          	addi	a1,s7,1260
    2464:	4559                	li	a0,22
    2466:	5f8030ef          	jal	ra,5a5e <_Z14OsdWriteDirecttPKcbhii>
    246a:	4781                	li	a5,0
    246c:	02000713          	li	a4,32
    2470:	4681                	li	a3,0
    2472:	4601                	li	a2,0
    2474:	448a0593          	addi	a1,s4,1096
    2478:	455d                	li	a0,23
    247a:	ffb40493          	addi	s1,s0,-5
    247e:	5e0030ef          	jal	ra,5a5e <_Z14OsdWriteDirecttPKcbhii>
    2482:	0014b493          	seqz	s1,s1
    2486:	8626                	mv	a2,s1
    2488:	4781                	li	a5,0
    248a:	02000713          	li	a4,32
    248e:	4681                	li	a3,0
    2490:	4a8b0593          	addi	a1,s6,1192
    2494:	4561                	li	a0,24
    2496:	5c8030ef          	jal	ra,5a5e <_Z14OsdWriteDirecttPKcbhii>
    249a:	8626                	mv	a2,s1
    249c:	4781                	li	a5,0
    249e:	02000713          	li	a4,32
    24a2:	4681                	li	a3,0
    24a4:	49c98593          	addi	a1,s3,1180
    24a8:	4565                	li	a0,25
    24aa:	5b4030ef          	jal	ra,5a5e <_Z14OsdWriteDirecttPKcbhii>
    24ae:	8626                	mv	a2,s1
    24b0:	4781                	li	a5,0
    24b2:	02000713          	li	a4,32
    24b6:	4681                	li	a3,0
    24b8:	47c90593          	addi	a1,s2,1148
    24bc:	4569                	li	a0,26
    24be:	5a0030ef          	jal	ra,5a5e <_Z14OsdWriteDirecttPKcbhii>
    24c2:	8626                	mv	a2,s1
    24c4:	4781                	li	a5,0
    24c6:	02000713          	li	a4,32
    24ca:	4681                	li	a3,0
    24cc:	498a8593          	addi	a1,s5,1176
    24d0:	456d                	li	a0,27
    24d2:	58c030ef          	jal	ra,5a5e <_Z14OsdWriteDirecttPKcbhii>
    24d6:	ffa40613          	addi	a2,s0,-6
    24da:	6599                	lui	a1,0x6
    24dc:	4781                	li	a5,0
    24de:	02000713          	li	a4,32
    24e2:	4681                	li	a3,0
    24e4:	00163613          	seqz	a2,a2
    24e8:	50058593          	addi	a1,a1,1280 # 6500 <strlen+0x2d2>
    24ec:	4571                	li	a0,28
    24ee:	570030ef          	jal	ra,5a5e <_Z14OsdWriteDirecttPKcbhii>
    24f2:	ff940613          	addi	a2,s0,-7
    24f6:	6599                	lui	a1,0x6
    24f8:	4575                	li	a0,29
    24fa:	4781                	li	a5,0
    24fc:	02000713          	li	a4,32
    2500:	4681                	li	a3,0
    2502:	00163613          	seqz	a2,a2
    2506:	50458593          	addi	a1,a1,1284 # 6504 <strlen+0x2d6>
    250a:	554030ef          	jal	ra,5a5e <_Z14OsdWriteDirecttPKcbhii>
    250e:	ff840513          	addi	a0,s0,-8
    2512:	00153493          	seqz	s1,a0
    2516:	6599                	lui	a1,0x6
    2518:	4579                	li	a0,30
    251a:	8626                	mv	a2,s1
    251c:	4781                	li	a5,0
    251e:	02000713          	li	a4,32
    2522:	4681                	li	a3,0
    2524:	50858593          	addi	a1,a1,1288 # 6508 <strlen+0x2da>
    2528:	536030ef          	jal	ra,5a5e <_Z14OsdWriteDirecttPKcbhii>
    252c:	5422                	lw	s0,40(sp)
    252e:	50b2                	lw	ra,44(sp)
    2530:	5492                	lw	s1,36(sp)
    2532:	5902                	lw	s2,32(sp)
    2534:	49f2                	lw	s3,28(sp)
    2536:	4a62                	lw	s4,24(sp)
    2538:	4ad2                	lw	s5,20(sp)
    253a:	4b42                	lw	s6,16(sp)
    253c:	4bb2                	lw	s7,12(sp)
    253e:	4c22                	lw	s8,8(sp)
    2540:	4519                	li	a0,6
    2542:	6145                	addi	sp,sp,48
    2544:	6300306f          	j	5b74 <_Z9OsdUpdatei>
    2548:	6b99                	lui	s7,0x6
    254a:	444b8593          	addi	a1,s7,1092 # 6444 <strlen+0x216>
    254e:	4781                	li	a5,0
    2550:	02000713          	li	a4,32
    2554:	4681                	li	a3,0
    2556:	4601                	li	a2,0
    2558:	4501                	li	a0,0
    255a:	504030ef          	jal	ra,5a5e <_Z14OsdWriteDirecttPKcbhii>
    255e:	6a19                	lui	s4,0x6
    2560:	498a0593          	addi	a1,s4,1176 # 6498 <strlen+0x26a>
    2564:	4781                	li	a5,0
    2566:	02000713          	li	a4,32
    256a:	4681                	li	a3,0
    256c:	4601                	li	a2,0
    256e:	4505                	li	a0,1
    2570:	4ee030ef          	jal	ra,5a5e <_Z14OsdWriteDirecttPKcbhii>
    2574:	6a99                	lui	s5,0x6
    2576:	4a8a8593          	addi	a1,s5,1192 # 64a8 <strlen+0x27a>
    257a:	4781                	li	a5,0
    257c:	02000713          	li	a4,32
    2580:	4681                	li	a3,0
    2582:	4601                	li	a2,0
    2584:	4509                	li	a0,2
    2586:	4d8030ef          	jal	ra,5a5e <_Z14OsdWriteDirecttPKcbhii>
    258a:	6419                	lui	s0,0x6
    258c:	47c40593          	addi	a1,s0,1148 # 647c <strlen+0x24e>
    2590:	4781                	li	a5,0
    2592:	02000713          	li	a4,32
    2596:	4681                	li	a3,0
    2598:	4601                	li	a2,0
    259a:	450d                	li	a0,3
    259c:	4c2030ef          	jal	ra,5a5e <_Z14OsdWriteDirecttPKcbhii>
    25a0:	6999                	lui	s3,0x6
    25a2:	44898593          	addi	a1,s3,1096 # 6448 <strlen+0x21a>
    25a6:	4781                	li	a5,0
    25a8:	02000713          	li	a4,32
    25ac:	4681                	li	a3,0
    25ae:	4601                	li	a2,0
    25b0:	4511                	li	a0,4
    25b2:	4ac030ef          	jal	ra,5a5e <_Z14OsdWriteDirecttPKcbhii>
    25b6:	47c40593          	addi	a1,s0,1148
    25ba:	4781                	li	a5,0
    25bc:	02000713          	li	a4,32
    25c0:	4681                	li	a3,0
    25c2:	4601                	li	a2,0
    25c4:	4515                	li	a0,5
    25c6:	498030ef          	jal	ra,5a5e <_Z14OsdWriteDirecttPKcbhii>
    25ca:	6919                	lui	s2,0x6
    25cc:	49c90593          	addi	a1,s2,1180 # 649c <strlen+0x26e>
    25d0:	4781                	li	a5,0
    25d2:	02000713          	li	a4,32
    25d6:	4681                	li	a3,0
    25d8:	4601                	li	a2,0
    25da:	4519                	li	a0,6
    25dc:	482030ef          	jal	ra,5a5e <_Z14OsdWriteDirecttPKcbhii>
    25e0:	47c40593          	addi	a1,s0,1148
    25e4:	4781                	li	a5,0
    25e6:	02000713          	li	a4,32
    25ea:	4681                	li	a3,0
    25ec:	4601                	li	a2,0
    25ee:	451d                	li	a0,7
    25f0:	46e030ef          	jal	ra,5a5e <_Z14OsdWriteDirecttPKcbhii>
    25f4:	498a0593          	addi	a1,s4,1176
    25f8:	4781                	li	a5,0
    25fa:	02000713          	li	a4,32
    25fe:	4681                	li	a3,0
    2600:	4601                	li	a2,0
    2602:	4521                	li	a0,8
    2604:	45a030ef          	jal	ra,5a5e <_Z14OsdWriteDirecttPKcbhii>
    2608:	44898593          	addi	a1,s3,1096
    260c:	4781                	li	a5,0
    260e:	02000713          	li	a4,32
    2612:	4681                	li	a3,0
    2614:	4601                	li	a2,0
    2616:	4525                	li	a0,9
    2618:	446030ef          	jal	ra,5a5e <_Z14OsdWriteDirecttPKcbhii>
    261c:	47c40593          	addi	a1,s0,1148
    2620:	4781                	li	a5,0
    2622:	02000713          	li	a4,32
    2626:	4681                	li	a3,0
    2628:	4601                	li	a2,0
    262a:	4529                	li	a0,10
    262c:	432030ef          	jal	ra,5a5e <_Z14OsdWriteDirecttPKcbhii>
    2630:	49c90593          	addi	a1,s2,1180
    2634:	4781                	li	a5,0
    2636:	02000713          	li	a4,32
    263a:	4681                	li	a3,0
    263c:	4601                	li	a2,0
    263e:	452d                	li	a0,11
    2640:	41e030ef          	jal	ra,5a5e <_Z14OsdWriteDirecttPKcbhii>
    2644:	6b19                	lui	s6,0x6
    2646:	4ecb0593          	addi	a1,s6,1260 # 64ec <strlen+0x2be>
    264a:	4781                	li	a5,0
    264c:	02000713          	li	a4,32
    2650:	4681                	li	a3,0
    2652:	4601                	li	a2,0
    2654:	4531                	li	a0,12
    2656:	408030ef          	jal	ra,5a5e <_Z14OsdWriteDirecttPKcbhii>
    265a:	44898593          	addi	a1,s3,1096
    265e:	4781                	li	a5,0
    2660:	02000713          	li	a4,32
    2664:	4681                	li	a3,0
    2666:	4601                	li	a2,0
    2668:	4535                	li	a0,13
    266a:	3f4030ef          	jal	ra,5a5e <_Z14OsdWriteDirecttPKcbhii>
    266e:	6599                	lui	a1,0x6
    2670:	44058593          	addi	a1,a1,1088 # 6440 <strlen+0x212>
    2674:	4781                	li	a5,0
    2676:	02000713          	li	a4,32
    267a:	4681                	li	a3,0
    267c:	4601                	li	a2,0
    267e:	4539                	li	a0,14
    2680:	3de030ef          	jal	ra,5a5e <_Z14OsdWriteDirecttPKcbhii>
    2684:	6599                	lui	a1,0x6
    2686:	48058593          	addi	a1,a1,1152 # 6480 <strlen+0x252>
    268a:	4781                	li	a5,0
    268c:	02000713          	li	a4,32
    2690:	4681                	li	a3,0
    2692:	4601                	li	a2,0
    2694:	453d                	li	a0,15
    2696:	3c8030ef          	jal	ra,5a5e <_Z14OsdWriteDirecttPKcbhii>
    269a:	49c90593          	addi	a1,s2,1180
    269e:	4781                	li	a5,0
    26a0:	02000713          	li	a4,32
    26a4:	4681                	li	a3,0
    26a6:	4601                	li	a2,0
    26a8:	4541                	li	a0,16
    26aa:	3b4030ef          	jal	ra,5a5e <_Z14OsdWriteDirecttPKcbhii>
    26ae:	444b8593          	addi	a1,s7,1092
    26b2:	4781                	li	a5,0
    26b4:	02000713          	li	a4,32
    26b8:	4681                	li	a3,0
    26ba:	4601                	li	a2,0
    26bc:	4545                	li	a0,17
    26be:	3a0030ef          	jal	ra,5a5e <_Z14OsdWriteDirecttPKcbhii>
    26c2:	6599                	lui	a1,0x6
    26c4:	43c58593          	addi	a1,a1,1084 # 643c <strlen+0x20e>
    26c8:	4781                	li	a5,0
    26ca:	02000713          	li	a4,32
    26ce:	4681                	li	a3,0
    26d0:	4601                	li	a2,0
    26d2:	4549                	li	a0,18
    26d4:	38a030ef          	jal	ra,5a5e <_Z14OsdWriteDirecttPKcbhii>
    26d8:	44898593          	addi	a1,s3,1096
    26dc:	4781                	li	a5,0
    26de:	02000713          	li	a4,32
    26e2:	4681                	li	a3,0
    26e4:	4601                	li	a2,0
    26e6:	454d                	li	a0,19
    26e8:	376030ef          	jal	ra,5a5e <_Z14OsdWriteDirecttPKcbhii>
    26ec:	4a8a8593          	addi	a1,s5,1192
    26f0:	4781                	li	a5,0
    26f2:	02000713          	li	a4,32
    26f6:	4681                	li	a3,0
    26f8:	4601                	li	a2,0
    26fa:	4551                	li	a0,20
    26fc:	362030ef          	jal	ra,5a5e <_Z14OsdWriteDirecttPKcbhii>
    2700:	49c90593          	addi	a1,s2,1180
    2704:	4781                	li	a5,0
    2706:	02000713          	li	a4,32
    270a:	4681                	li	a3,0
    270c:	4601                	li	a2,0
    270e:	4555                	li	a0,21
    2710:	34e030ef          	jal	ra,5a5e <_Z14OsdWriteDirecttPKcbhii>
    2714:	4ecb0593          	addi	a1,s6,1260
    2718:	4781                	li	a5,0
    271a:	02000713          	li	a4,32
    271e:	4681                	li	a3,0
    2720:	4601                	li	a2,0
    2722:	4559                	li	a0,22
    2724:	33a030ef          	jal	ra,5a5e <_Z14OsdWriteDirecttPKcbhii>
    2728:	44898593          	addi	a1,s3,1096
    272c:	4781                	li	a5,0
    272e:	02000713          	li	a4,32
    2732:	4681                	li	a3,0
    2734:	4601                	li	a2,0
    2736:	455d                	li	a0,23
    2738:	326030ef          	jal	ra,5a5e <_Z14OsdWriteDirecttPKcbhii>
    273c:	4a8a8593          	addi	a1,s5,1192
    2740:	4781                	li	a5,0
    2742:	02000713          	li	a4,32
    2746:	4681                	li	a3,0
    2748:	4601                	li	a2,0
    274a:	4561                	li	a0,24
    274c:	312030ef          	jal	ra,5a5e <_Z14OsdWriteDirecttPKcbhii>
    2750:	49c90593          	addi	a1,s2,1180
    2754:	4781                	li	a5,0
    2756:	02000713          	li	a4,32
    275a:	4681                	li	a3,0
    275c:	4601                	li	a2,0
    275e:	4565                	li	a0,25
    2760:	2fe030ef          	jal	ra,5a5e <_Z14OsdWriteDirecttPKcbhii>
    2764:	47c40593          	addi	a1,s0,1148
    2768:	4781                	li	a5,0
    276a:	02000713          	li	a4,32
    276e:	4681                	li	a3,0
    2770:	4601                	li	a2,0
    2772:	4569                	li	a0,26
    2774:	2ea030ef          	jal	ra,5a5e <_Z14OsdWriteDirecttPKcbhii>
    2778:	498a0593          	addi	a1,s4,1176
    277c:	4781                	li	a5,0
    277e:	02000713          	li	a4,32
    2782:	4681                	li	a3,0
    2784:	4601                	li	a2,0
    2786:	456d                	li	a0,27
    2788:	2d6030ef          	jal	ra,5a5e <_Z14OsdWriteDirecttPKcbhii>
    278c:	6599                	lui	a1,0x6
    278e:	50058593          	addi	a1,a1,1280 # 6500 <strlen+0x2d2>
    2792:	4781                	li	a5,0
    2794:	02000713          	li	a4,32
    2798:	4681                	li	a3,0
    279a:	4601                	li	a2,0
    279c:	4571                	li	a0,28
    279e:	2c0030ef          	jal	ra,5a5e <_Z14OsdWriteDirecttPKcbhii>
    27a2:	6599                	lui	a1,0x6
    27a4:	4781                	li	a5,0
    27a6:	02000713          	li	a4,32
    27aa:	4681                	li	a3,0
    27ac:	4601                	li	a2,0
    27ae:	50458593          	addi	a1,a1,1284 # 6504 <strlen+0x2d6>
    27b2:	4575                	li	a0,29
    27b4:	2aa030ef          	jal	ra,5a5e <_Z14OsdWriteDirecttPKcbhii>
    27b8:	bbb9                	j	2516 <_Z19OSD_Keyboard_6_linebi+0x2d2>

000027ba <_Z20OSD_Keyboard_processv>:
    27ba:	f2002783          	lw	a5,-224(zero) # ffffff20 <MEM_SIZE+0xfffdff20>
    27be:	1101                	addi	sp,sp,-32
    27c0:	6711                	lui	a4,0x4
    27c2:	ce06                	sw	ra,28(sp)
    27c4:	cc22                	sw	s0,24(sp)
    27c6:	ca26                	sw	s1,20(sp)
    27c8:	c84a                	sw	s2,16(sp)
    27ca:	c64e                	sw	s3,12(sp)
    27cc:	8ff9                	and	a5,a5,a4
    27ce:	16079f63          	bnez	a5,294c <_Z20OSD_Keyboard_processv+0x192>
    27d2:	6421                	lui	s0,0x8
    27d4:	64bd                	lui	s1,0xf
    27d6:	4701                	li	a4,0
    27d8:	f2002683          	lw	a3,-224(zero) # ffffff20 <MEM_SIZE+0xfffdff20>
    27dc:	6611                	lui	a2,0x4
    27de:	4781                	li	a5,0
    27e0:	8ef1                	and	a3,a3,a2
    27e2:	c699                	beqz	a3,27f0 <_Z20OSD_Keyboard_processv+0x36>
    27e4:	f2c02783          	lw	a5,-212(zero) # ffffff2c <MEM_SIZE+0xfffdff2c>
    27e8:	83f1                	srli	a5,a5,0x1c
    27ea:	17f1                	addi	a5,a5,-4 # 3fffc <MEM_SIZE+0x1fffc>
    27ec:	00f037b3          	snez	a5,a5
    27f0:	b4f40b23          	sb	a5,-1194(s0) # 7b56 <keyboard_toggle_button_pressed>
    27f4:	f2002783          	lw	a5,-224(zero) # ffffff20 <MEM_SIZE+0xfffdff20>
    27f8:	5a84c683          	lbu	a3,1448(s1) # f5a8 <keyboard_is_showing>
    27fc:	8b85                	andi	a5,a5,1
    27fe:	1c078563          	beqz	a5,29c8 <_Z20OSD_Keyboard_processv+0x20e>
    2802:	f2c02783          	lw	a5,-212(zero) # ffffff2c <MEM_SIZE+0xfffdff2c>
    2806:	4611                	li	a2,4
    2808:	83f1                	srli	a5,a5,0x1c
    280a:	1ac78f63          	beq	a5,a2,29c8 <_Z20OSD_Keyboard_processv+0x20e>
    280e:	6521                	lui	a0,0x8
    2810:	b5554783          	lbu	a5,-1195(a0) # 7b55 <keyboard_toggle_up_button_pressed>
    2814:	4601                	li	a2,0
    2816:	e781                	bnez	a5,281e <_Z20OSD_Keyboard_processv+0x64>
    2818:	c299                	beqz	a3,281e <_Z20OSD_Keyboard_processv+0x64>
    281a:	8636                	mv	a2,a3
    281c:	8736                	mv	a4,a3
    281e:	f2002583          	lw	a1,-224(zero) # ffffff20 <MEM_SIZE+0xfffdff20>
    2822:	4781                	li	a5,0
    2824:	8985                	andi	a1,a1,1
    2826:	c599                	beqz	a1,2834 <_Z20OSD_Keyboard_processv+0x7a>
    2828:	f2c02783          	lw	a5,-212(zero) # ffffff2c <MEM_SIZE+0xfffdff2c>
    282c:	83f1                	srli	a5,a5,0x1c
    282e:	17f1                	addi	a5,a5,-4
    2830:	00f037b3          	snez	a5,a5
    2834:	b4f50aa3          	sb	a5,-1195(a0)
    2838:	f2002783          	lw	a5,-224(zero) # ffffff20 <MEM_SIZE+0xfffdff20>
    283c:	8b89                	andi	a5,a5,2
    283e:	18078b63          	beqz	a5,29d4 <_Z20OSD_Keyboard_processv+0x21a>
    2842:	f2c02783          	lw	a5,-212(zero) # ffffff2c <MEM_SIZE+0xfffdff2c>
    2846:	4591                	li	a1,4
    2848:	83f1                	srli	a5,a5,0x1c
    284a:	18b78563          	beq	a5,a1,29d4 <_Z20OSD_Keyboard_processv+0x21a>
    284e:	6821                	lui	a6,0x8
    2850:	b5484783          	lbu	a5,-1196(a6) # 7b54 <keyboard_toggle_down_button_pressed>
    2854:	4501                	li	a0,0
    2856:	e781                	bnez	a5,285e <_Z20OSD_Keyboard_processv+0xa4>
    2858:	c299                	beqz	a3,285e <_Z20OSD_Keyboard_processv+0xa4>
    285a:	8536                	mv	a0,a3
    285c:	8736                	mv	a4,a3
    285e:	f2002583          	lw	a1,-224(zero) # ffffff20 <MEM_SIZE+0xfffdff20>
    2862:	4781                	li	a5,0
    2864:	8989                	andi	a1,a1,2
    2866:	c599                	beqz	a1,2874 <_Z20OSD_Keyboard_processv+0xba>
    2868:	f2c02783          	lw	a5,-212(zero) # ffffff2c <MEM_SIZE+0xfffdff2c>
    286c:	83f1                	srli	a5,a5,0x1c
    286e:	17f1                	addi	a5,a5,-4
    2870:	00f037b3          	snez	a5,a5
    2874:	b4f80a23          	sb	a5,-1196(a6)
    2878:	f2002783          	lw	a5,-224(zero) # ffffff20 <MEM_SIZE+0xfffdff20>
    287c:	8b91                	andi	a5,a5,4
    287e:	14078863          	beqz	a5,29ce <_Z20OSD_Keyboard_processv+0x214>
    2882:	f2c02783          	lw	a5,-212(zero) # ffffff2c <MEM_SIZE+0xfffdff2c>
    2886:	4591                	li	a1,4
    2888:	83f1                	srli	a5,a5,0x1c
    288a:	14b78263          	beq	a5,a1,29ce <_Z20OSD_Keyboard_processv+0x214>
    288e:	68a1                	lui	a7,0x8
    2890:	b538c783          	lbu	a5,-1197(a7) # 7b53 <keyboard_toggle_left_button_pressed>
    2894:	4801                	li	a6,0
    2896:	e781                	bnez	a5,289e <_Z20OSD_Keyboard_processv+0xe4>
    2898:	c299                	beqz	a3,289e <_Z20OSD_Keyboard_processv+0xe4>
    289a:	8836                	mv	a6,a3
    289c:	8736                	mv	a4,a3
    289e:	f2002583          	lw	a1,-224(zero) # ffffff20 <MEM_SIZE+0xfffdff20>
    28a2:	4781                	li	a5,0
    28a4:	8991                	andi	a1,a1,4
    28a6:	c599                	beqz	a1,28b4 <_Z20OSD_Keyboard_processv+0xfa>
    28a8:	f2c02783          	lw	a5,-212(zero) # ffffff2c <MEM_SIZE+0xfffdff2c>
    28ac:	83f1                	srli	a5,a5,0x1c
    28ae:	17f1                	addi	a5,a5,-4
    28b0:	00f037b3          	snez	a5,a5
    28b4:	b4f889a3          	sb	a5,-1197(a7)
    28b8:	f2002783          	lw	a5,-224(zero) # ffffff20 <MEM_SIZE+0xfffdff20>
    28bc:	8ba1                	andi	a5,a5,8
    28be:	10078263          	beqz	a5,29c2 <_Z20OSD_Keyboard_processv+0x208>
    28c2:	f2c02783          	lw	a5,-212(zero) # ffffff2c <MEM_SIZE+0xfffdff2c>
    28c6:	4591                	li	a1,4
    28c8:	83f1                	srli	a5,a5,0x1c
    28ca:	0eb78c63          	beq	a5,a1,29c2 <_Z20OSD_Keyboard_processv+0x208>
    28ce:	68a1                	lui	a7,0x8
    28d0:	b528c783          	lbu	a5,-1198(a7) # 7b52 <keyboard_toggle_right_button_pressed>
    28d4:	4301                	li	t1,0
    28d6:	e781                	bnez	a5,28de <_Z20OSD_Keyboard_processv+0x124>
    28d8:	c299                	beqz	a3,28de <_Z20OSD_Keyboard_processv+0x124>
    28da:	8336                	mv	t1,a3
    28dc:	8736                	mv	a4,a3
    28de:	f2002583          	lw	a1,-224(zero) # ffffff20 <MEM_SIZE+0xfffdff20>
    28e2:	4781                	li	a5,0
    28e4:	89a1                	andi	a1,a1,8
    28e6:	c599                	beqz	a1,28f4 <_Z20OSD_Keyboard_processv+0x13a>
    28e8:	f2c02783          	lw	a5,-212(zero) # ffffff2c <MEM_SIZE+0xfffdff2c>
    28ec:	83f1                	srli	a5,a5,0x1c
    28ee:	17f1                	addi	a5,a5,-4
    28f0:	00f037b3          	snez	a5,a5
    28f4:	b4f88923          	sb	a5,-1198(a7)
    28f8:	f2002583          	lw	a1,-224(zero) # ffffff20 <MEM_SIZE+0xfffdff20>
    28fc:	4781                	li	a5,0
    28fe:	89c1                	andi	a1,a1,16
    2900:	c991                	beqz	a1,2914 <_Z20OSD_Keyboard_processv+0x15a>
    2902:	f2c02783          	lw	a5,-212(zero) # ffffff2c <MEM_SIZE+0xfffdff2c>
    2906:	83f1                	srli	a5,a5,0x1c
    2908:	17f1                	addi	a5,a5,-4
    290a:	00f037b3          	snez	a5,a5
    290e:	40f007b3          	neg	a5,a5
    2912:	8ff5                	and	a5,a5,a3
    2914:	6921                	lui	s2,0x8
    2916:	64a1                	lui	s1,0x8
    2918:	6421                	lui	s0,0x8
    291a:	b4f90823          	sb	a5,-1200(s2) # 7b50 <keyboard_a_pressed>
    291e:	b5842583          	lw	a1,-1192(s0) # 7b58 <y>
    2922:	b5c4a783          	lw	a5,-1188(s1) # 7b5c <x>
    2926:	ca55                	beqz	a2,29da <_Z20OSD_Keyboard_processv+0x220>
    2928:	04b05b63          	blez	a1,297e <_Z20OSD_Keyboard_processv+0x1c4>
    292c:	fff58613          	addi	a2,a1,-1
    2930:	b4c42c23          	sw	a2,-1192(s0)
    2934:	20061263          	bnez	a2,2b38 <_Z20OSD_Keyboard_processv+0x37e>
    2938:	4639                	li	a2,14
    293a:	04f66463          	bltu	a2,a5,2982 <_Z20OSD_Keyboard_processv+0x1c8>
    293e:	6619                	lui	a2,0x6
    2940:	078a                	slli	a5,a5,0x2
    2942:	50c60613          	addi	a2,a2,1292 # 650c <strlen+0x2de>
    2946:	97b2                	add	a5,a5,a2
    2948:	439c                	lw	a5,0(a5)
    294a:	8782                	jr	a5
    294c:	f2c02783          	lw	a5,-212(zero) # ffffff2c <MEM_SIZE+0xfffdff2c>
    2950:	4711                	li	a4,4
    2952:	6421                	lui	s0,0x8
    2954:	83f1                	srli	a5,a5,0x1c
    2956:	64bd                	lui	s1,0xf
    2958:	e6e78fe3          	beq	a5,a4,27d6 <_Z20OSD_Keyboard_processv+0x1c>
    295c:	b5644783          	lbu	a5,-1194(s0) # 7b56 <keyboard_toggle_button_pressed>
    2960:	64bd                	lui	s1,0xf
    2962:	e6079ae3          	bnez	a5,27d6 <_Z20OSD_Keyboard_processv+0x1c>
    2966:	5a84c783          	lbu	a5,1448(s1) # f5a8 <keyboard_is_showing>
    296a:	22079b63          	bnez	a5,2ba0 <_Z20OSD_Keyboard_processv+0x3e6>
    296e:	4785                	li	a5,1
    2970:	4505                	li	a0,1
    2972:	5af48423          	sb	a5,1448(s1)
    2976:	508010ef          	jal	ra,3e7e <_Z15input_allow_osdb>
    297a:	4705                	li	a4,1
    297c:	bdb1                	j	27d8 <_Z20OSD_Keyboard_processv+0x1e>
    297e:	b4042c23          	sw	zero,-1192(s0)
    2982:	08080963          	beqz	a6,2a14 <_Z20OSD_Keyboard_processv+0x25a>
    2986:	0ef04a63          	bgtz	a5,2a7a <_Z20OSD_Keyboard_processv+0x2c0>
    298a:	b404ae23          	sw	zero,-1188(s1)
    298e:	c6d5                	beqz	a3,2a3a <_Z20OSD_Keyboard_processv+0x280>
    2990:	f5402783          	lw	a5,-172(zero) # ffffff54 <MEM_SIZE+0xfffdff54>
    2994:	0107e793          	ori	a5,a5,16
    2998:	f4f02a23          	sw	a5,-172(zero) # ffffff54 <MEM_SIZE+0xfffdff54>
    299c:	10071a63          	bnez	a4,2ab0 <_Z20OSD_Keyboard_processv+0x2f6>
    29a0:	b5094703          	lbu	a4,-1200(s2)
    29a4:	69a1                	lui	s3,0x8
    29a6:	b519c783          	lbu	a5,-1199(s3) # 7b51 <keyboard_toggle_a_button_pressed>
    29aa:	e35d                	bnez	a4,2a50 <_Z20OSD_Keyboard_processv+0x296>
    29ac:	1c079463          	bnez	a5,2b74 <_Z20OSD_Keyboard_processv+0x3ba>
    29b0:	40f2                	lw	ra,28(sp)
    29b2:	4462                	lw	s0,24(sp)
    29b4:	b4f988a3          	sb	a5,-1199(s3)
    29b8:	44d2                	lw	s1,20(sp)
    29ba:	4942                	lw	s2,16(sp)
    29bc:	49b2                	lw	s3,12(sp)
    29be:	6105                	addi	sp,sp,32
    29c0:	8082                	ret
    29c2:	4301                	li	t1,0
    29c4:	68a1                	lui	a7,0x8
    29c6:	bf21                	j	28de <_Z20OSD_Keyboard_processv+0x124>
    29c8:	4601                	li	a2,0
    29ca:	6521                	lui	a0,0x8
    29cc:	bd89                	j	281e <_Z20OSD_Keyboard_processv+0x64>
    29ce:	4801                	li	a6,0
    29d0:	68a1                	lui	a7,0x8
    29d2:	b5f1                	j	289e <_Z20OSD_Keyboard_processv+0xe4>
    29d4:	4501                	li	a0,0
    29d6:	6821                	lui	a6,0x8
    29d8:	b559                	j	285e <_Z20OSD_Keyboard_processv+0xa4>
    29da:	d545                	beqz	a0,2982 <_Z20OSD_Keyboard_processv+0x1c8>
    29dc:	4611                	li	a2,4
    29de:	18b64763          	blt	a2,a1,2b6c <_Z20OSD_Keyboard_processv+0x3b2>
    29e2:	0585                	addi	a1,a1,1
    29e4:	b4b42c23          	sw	a1,-1192(s0)
    29e8:	4605                	li	a2,1
    29ea:	24c58363          	beq	a1,a2,2c30 <_Z20OSD_Keyboard_processv+0x476>
    29ee:	4609                	li	a2,2
    29f0:	26c58563          	beq	a1,a2,2c5a <_Z20OSD_Keyboard_processv+0x4a0>
    29f4:	4615                	li	a2,5
    29f6:	f8c596e3          	bne	a1,a2,2982 <_Z20OSD_Keyboard_processv+0x1c8>
    29fa:	1c078c63          	beqz	a5,2bd2 <_Z20OSD_Keyboard_processv+0x418>
    29fe:	4631                	li	a2,12
    2a00:	f8f661e3          	bltu	a2,a5,2982 <_Z20OSD_Keyboard_processv+0x1c8>
    2a04:	6599                	lui	a1,0x6
    2a06:	00279613          	slli	a2,a5,0x2
    2a0a:	54858593          	addi	a1,a1,1352 # 6548 <strlen+0x31a>
    2a0e:	962e                	add	a2,a2,a1
    2a10:	4210                	lw	a2,0(a2)
    2a12:	8602                	jr	a2
    2a14:	b5842603          	lw	a2,-1192(s0)
    2a18:	06031563          	bnez	t1,2a82 <_Z20OSD_Keyboard_processv+0x2c8>
    2a1c:	4585                	li	a1,1
    2a1e:	18b60763          	beq	a2,a1,2bac <_Z20OSD_Keyboard_processv+0x3f2>
    2a22:	4589                	li	a1,2
    2a24:	18b60f63          	beq	a2,a1,2bc2 <_Z20OSD_Keyboard_processv+0x408>
    2a28:	4595                	li	a1,5
    2a2a:	22b60463          	beq	a2,a1,2c52 <_Z20OSD_Keyboard_processv+0x498>
    2a2e:	4631                	li	a2,12
    2a30:	f4f65fe3          	bge	a2,a5,298e <_Z20OSD_Keyboard_processv+0x1d4>
    2a34:	b4c4ae23          	sw	a2,-1188(s1)
    2a38:	fea1                	bnez	a3,2990 <_Z20OSD_Keyboard_processv+0x1d6>
    2a3a:	132030ef          	jal	ra,5b6c <_Z10OsdDisablev>
    2a3e:	f5402783          	lw	a5,-172(zero) # ffffff54 <MEM_SIZE+0xfffdff54>
    2a42:	69a1                	lui	s3,0x8
    2a44:	9bbd                	andi	a5,a5,-17
    2a46:	f4f02a23          	sw	a5,-172(zero) # ffffff54 <MEM_SIZE+0xfffdff54>
    2a4a:	b5094783          	lbu	a5,-1200(s2)
    2a4e:	b78d                	j	29b0 <_Z20OSD_Keyboard_processv+0x1f6>
    2a50:	f3a5                	bnez	a5,29b0 <_Z20OSD_Keyboard_processv+0x1f6>
    2a52:	b5842683          	lw	a3,-1192(s0)
    2a56:	b5c4a603          	lw	a2,-1188(s1)
    2a5a:	6799                	lui	a5,0x6
    2a5c:	00469713          	slli	a4,a3,0x4
    2a60:	8f15                	sub	a4,a4,a3
    2a62:	64478793          	addi	a5,a5,1604 # 6644 <_ZL18osdKeyboardlocater>
    2a66:	97ba                	add	a5,a5,a4
    2a68:	97b2                	add	a5,a5,a2
    2a6a:	0007c583          	lbu	a1,0(a5)
    2a6e:	4515                	li	a0,5
    2a70:	295020ef          	jal	ra,5504 <_Z16HPS_spi_uio_cmd8hh>
    2a74:	b5094783          	lbu	a5,-1200(s2)
    2a78:	bf25                	j	29b0 <_Z20OSD_Keyboard_processv+0x1f6>
    2a7a:	17fd                	addi	a5,a5,-1
    2a7c:	b4f4ae23          	sw	a5,-1188(s1)
    2a80:	b739                	j	298e <_Z20OSD_Keyboard_processv+0x1d4>
    2a82:	4585                	li	a1,1
    2a84:	00b60f63          	beq	a2,a1,2aa2 <_Z20OSD_Keyboard_processv+0x2e8>
    2a88:	4589                	li	a1,2
    2a8a:	12b60563          	beq	a2,a1,2bb4 <_Z20OSD_Keyboard_processv+0x3fa>
    2a8e:	4595                	li	a1,5
    2a90:	1ab60a63          	beq	a2,a1,2c44 <_Z20OSD_Keyboard_processv+0x48a>
    2a94:	462d                	li	a2,11
    2a96:	00f65963          	bge	a2,a5,2aa8 <_Z20OSD_Keyboard_processv+0x2ee>
    2a9a:	47b1                	li	a5,12
    2a9c:	b4f4ae23          	sw	a5,-1188(s1)
    2aa0:	b5fd                	j	298e <_Z20OSD_Keyboard_processv+0x1d4>
    2aa2:	4635                	li	a2,13
    2aa4:	12f64363          	blt	a2,a5,2bca <_Z20OSD_Keyboard_processv+0x410>
    2aa8:	0785                	addi	a5,a5,1
    2aaa:	b4f4ae23          	sw	a5,-1188(s1)
    2aae:	b5c5                	j	298e <_Z20OSD_Keyboard_processv+0x1d4>
    2ab0:	024030ef          	jal	ra,5ad4 <_Z8OsdClearv>
    2ab4:	4501                	li	a0,0
    2ab6:	0be030ef          	jal	ra,5b74 <_Z9OsdUpdatei>
    2aba:	b5842503          	lw	a0,-1192(s0)
    2abe:	b5c4a583          	lw	a1,-1188(s1)
    2ac2:	00153513          	seqz	a0,a0
    2ac6:	d41fd0ef          	jal	ra,806 <_Z19OSD_Keyboard_1_linebi>
    2aca:	b5842503          	lw	a0,-1192(s0)
    2ace:	b5c4a583          	lw	a1,-1188(s1)
    2ad2:	157d                	addi	a0,a0,-1 # 7fff <sector_buffer+0x47f>
    2ad4:	00153513          	seqz	a0,a0
    2ad8:	a68fe0ef          	jal	ra,d40 <_Z19OSD_Keyboard_2_linebi>
    2adc:	b5842503          	lw	a0,-1192(s0)
    2ae0:	b5c4a583          	lw	a1,-1188(s1)
    2ae4:	1579                	addi	a0,a0,-2
    2ae6:	00153513          	seqz	a0,a0
    2aea:	f96fe0ef          	jal	ra,1280 <_Z19OSD_Keyboard_3_linebi>
    2aee:	b5842503          	lw	a0,-1192(s0)
    2af2:	b5c4a583          	lw	a1,-1188(s1)
    2af6:	1575                	addi	a0,a0,-3
    2af8:	00153513          	seqz	a0,a0
    2afc:	cc7fe0ef          	jal	ra,17c2 <_Z19OSD_Keyboard_4_linebi>
    2b00:	b5842503          	lw	a0,-1192(s0)
    2b04:	b5c4a583          	lw	a1,-1188(s1)
    2b08:	1571                	addi	a0,a0,-4
    2b0a:	00153513          	seqz	a0,a0
    2b0e:	9c8ff0ef          	jal	ra,1cd6 <_Z19OSD_Keyboard_5_linebi>
    2b12:	b5842503          	lw	a0,-1192(s0)
    2b16:	b5c4a583          	lw	a1,-1188(s1)
    2b1a:	156d                	addi	a0,a0,-5
    2b1c:	00153513          	seqz	a0,a0
    2b20:	f24ff0ef          	jal	ra,2244 <_Z19OSD_Keyboard_6_linebi>
    2b24:	4781                	li	a5,0
    2b26:	577d                	li	a4,-1
    2b28:	46a1                	li	a3,8
    2b2a:	02000613          	li	a2,32
    2b2e:	45a9                	li	a1,10
    2b30:	4529                	li	a0,10
    2b32:	7bb020ef          	jal	ra,5aec <_Z10InfoEnableiiiiii>
    2b36:	b5ad                	j	29a0 <_Z20OSD_Keyboard_processv+0x1e6>
    2b38:	4505                	li	a0,1
    2b3a:	00a61c63          	bne	a2,a0,2b52 <_Z20OSD_Keyboard_processv+0x398>
    2b3e:	4635                	li	a2,13
    2b40:	e4f661e3          	bltu	a2,a5,2982 <_Z20OSD_Keyboard_processv+0x1c8>
    2b44:	6619                	lui	a2,0x6
    2b46:	078a                	slli	a5,a5,0x2
    2b48:	57c60613          	addi	a2,a2,1404 # 657c <strlen+0x34e>
    2b4c:	97b2                	add	a5,a5,a2
    2b4e:	439c                	lw	a5,0(a5)
    2b50:	8782                	jr	a5
    2b52:	4615                	li	a2,5
    2b54:	e2c597e3          	bne	a1,a2,2982 <_Z20OSD_Keyboard_processv+0x1c8>
    2b58:	4621                	li	a2,8
    2b5a:	e2f664e3          	bltu	a2,a5,2982 <_Z20OSD_Keyboard_processv+0x1c8>
    2b5e:	6619                	lui	a2,0x6
    2b60:	078a                	slli	a5,a5,0x2
    2b62:	5b460613          	addi	a2,a2,1460 # 65b4 <strlen+0x386>
    2b66:	97b2                	add	a5,a5,a2
    2b68:	439c                	lw	a5,0(a5)
    2b6a:	8782                	jr	a5
    2b6c:	4615                	li	a2,5
    2b6e:	b4c42c23          	sw	a2,-1192(s0)
    2b72:	bd01                	j	2982 <_Z20OSD_Keyboard_processv+0x1c8>
    2b74:	b5842683          	lw	a3,-1192(s0)
    2b78:	b5c4a603          	lw	a2,-1188(s1)
    2b7c:	6799                	lui	a5,0x6
    2b7e:	00469713          	slli	a4,a3,0x4
    2b82:	8f15                	sub	a4,a4,a3
    2b84:	64478793          	addi	a5,a5,1604 # 6644 <_ZL18osdKeyboardlocater>
    2b88:	97ba                	add	a5,a5,a4
    2b8a:	97b2                	add	a5,a5,a2
    2b8c:	0007c583          	lbu	a1,0(a5)
    2b90:	4515                	li	a0,5
    2b92:	0805e593          	ori	a1,a1,128
    2b96:	16f020ef          	jal	ra,5504 <_Z16HPS_spi_uio_cmd8hh>
    2b9a:	b5094783          	lbu	a5,-1200(s2)
    2b9e:	bd09                	j	29b0 <_Z20OSD_Keyboard_processv+0x1f6>
    2ba0:	4501                	li	a0,0
    2ba2:	5a048423          	sb	zero,1448(s1)
    2ba6:	2d8010ef          	jal	ra,3e7e <_Z15input_allow_osdb>
    2baa:	b135                	j	27d6 <_Z20OSD_Keyboard_processv+0x1c>
    2bac:	4639                	li	a2,14
    2bae:	e8f643e3          	blt	a2,a5,2a34 <_Z20OSD_Keyboard_processv+0x27a>
    2bb2:	bbf1                	j	298e <_Z20OSD_Keyboard_processv+0x1d4>
    2bb4:	4631                	li	a2,12
    2bb6:	eef659e3          	bge	a2,a5,2aa8 <_Z20OSD_Keyboard_processv+0x2ee>
    2bba:	47b5                	li	a5,13
    2bbc:	b4f4ae23          	sw	a5,-1188(s1)
    2bc0:	b3f9                	j	298e <_Z20OSD_Keyboard_processv+0x1d4>
    2bc2:	4635                	li	a2,13
    2bc4:	e6f648e3          	blt	a2,a5,2a34 <_Z20OSD_Keyboard_processv+0x27a>
    2bc8:	b3d9                	j	298e <_Z20OSD_Keyboard_processv+0x1d4>
    2bca:	47b9                	li	a5,14
    2bcc:	b4f4ae23          	sw	a5,-1188(s1)
    2bd0:	bb7d                	j	298e <_Z20OSD_Keyboard_processv+0x1d4>
    2bd2:	b404ae23          	sw	zero,-1188(s1)
    2bd6:	da081ae3          	bnez	a6,298a <_Z20OSD_Keyboard_processv+0x1d0>
    2bda:	da030ae3          	beqz	t1,298e <_Z20OSD_Keyboard_processv+0x1d4>
    2bde:	4781                	li	a5,0
    2be0:	b5e1                	j	2aa8 <_Z20OSD_Keyboard_processv+0x2ee>
    2be2:	47b1                	li	a5,12
    2be4:	b4f4ae23          	sw	a5,-1188(s1)
    2be8:	e80819e3          	bnez	a6,2a7a <_Z20OSD_Keyboard_processv+0x2c0>
    2bec:	b5842603          	lw	a2,-1192(s0)
    2bf0:	e80319e3          	bnez	t1,2a82 <_Z20OSD_Keyboard_processv+0x2c8>
    2bf4:	4585                	li	a1,1
    2bf6:	e2b616e3          	bne	a2,a1,2a22 <_Z20OSD_Keyboard_processv+0x268>
    2bfa:	bb51                	j	298e <_Z20OSD_Keyboard_processv+0x1d4>
    2bfc:	47a5                	li	a5,9
    2bfe:	b7dd                	j	2be4 <_Z20OSD_Keyboard_processv+0x42a>
    2c00:	47b5                	li	a5,13
    2c02:	b7cd                	j	2be4 <_Z20OSD_Keyboard_processv+0x42a>
    2c04:	4789                	li	a5,2
    2c06:	bff9                	j	2be4 <_Z20OSD_Keyboard_processv+0x42a>
    2c08:	4785                	li	a5,1
    2c0a:	bfe9                	j	2be4 <_Z20OSD_Keyboard_processv+0x42a>
    2c0c:	47ad                	li	a5,11
    2c0e:	bfd9                	j	2be4 <_Z20OSD_Keyboard_processv+0x42a>
    2c10:	478d                	li	a5,3
    2c12:	bfc9                	j	2be4 <_Z20OSD_Keyboard_processv+0x42a>
    2c14:	47a1                	li	a5,8
    2c16:	b7f9                	j	2be4 <_Z20OSD_Keyboard_processv+0x42a>
    2c18:	47a9                	li	a5,10
    2c1a:	b7e9                	j	2be4 <_Z20OSD_Keyboard_processv+0x42a>
    2c1c:	479d                	li	a5,7
    2c1e:	b7d9                	j	2be4 <_Z20OSD_Keyboard_processv+0x42a>
    2c20:	4799                	li	a5,6
    2c22:	b7c9                	j	2be4 <_Z20OSD_Keyboard_processv+0x42a>
    2c24:	4795                	li	a5,5
    2c26:	bf7d                	j	2be4 <_Z20OSD_Keyboard_processv+0x42a>
    2c28:	4791                	li	a5,4
    2c2a:	bf6d                	j	2be4 <_Z20OSD_Keyboard_processv+0x42a>
    2c2c:	47b9                	li	a5,14
    2c2e:	bf5d                	j	2be4 <_Z20OSD_Keyboard_processv+0x42a>
    2c30:	462d                	li	a2,11
    2c32:	d4f668e3          	bltu	a2,a5,2982 <_Z20OSD_Keyboard_processv+0x1c8>
    2c36:	6619                	lui	a2,0x6
    2c38:	078a                	slli	a5,a5,0x2
    2c3a:	5d860613          	addi	a2,a2,1496 # 65d8 <strlen+0x3aa>
    2c3e:	97b2                	add	a5,a5,a2
    2c40:	439c                	lw	a5,0(a5)
    2c42:	8782                	jr	a5
    2c44:	461d                	li	a2,7
    2c46:	e6f651e3          	bge	a2,a5,2aa8 <_Z20OSD_Keyboard_processv+0x2ee>
    2c4a:	47a1                	li	a5,8
    2c4c:	b4f4ae23          	sw	a5,-1188(s1)
    2c50:	bb3d                	j	298e <_Z20OSD_Keyboard_processv+0x1d4>
    2c52:	4621                	li	a2,8
    2c54:	def640e3          	blt	a2,a5,2a34 <_Z20OSD_Keyboard_processv+0x27a>
    2c58:	bb1d                	j	298e <_Z20OSD_Keyboard_processv+0x1d4>
    2c5a:	dfa5                	beqz	a5,2bd2 <_Z20OSD_Keyboard_processv+0x418>
    2c5c:	4639                	li	a2,14
    2c5e:	d2f662e3          	bltu	a2,a5,2982 <_Z20OSD_Keyboard_processv+0x1c8>
    2c62:	6599                	lui	a1,0x6
    2c64:	00279613          	slli	a2,a5,0x2
    2c68:	60858593          	addi	a1,a1,1544 # 6608 <strlen+0x3da>
    2c6c:	962e                	add	a2,a2,a1
    2c6e:	4210                	lw	a2,0(a2)
    2c70:	8602                	jr	a2

00002c72 <_ZL7put_lbaP10ide_configm>:
    2c72:	02054783          	lbu	a5,32(a0)
    2c76:	15fd                	addi	a1,a1,-1
    2c78:	cf89                	beqz	a5,2c92 <_ZL7put_lbaP10ide_configm+0x20>
    2c7a:	0185d793          	srli	a5,a1,0x18
    2c7e:	0085d713          	srli	a4,a1,0x8
    2c82:	8bbd                	andi	a5,a5,15
    2c84:	00b50da3          	sb	a1,27(a0)
    2c88:	00e51e23          	sh	a4,28(a0)
    2c8c:	00f50f23          	sb	a5,30(a0)
    2c90:	8082                	ret
    2c92:	01f54783          	lbu	a5,31(a0)
    2c96:	7bc00713          	li	a4,1980
    2c9a:	02e787b3          	mul	a5,a5,a4
    2c9e:	97aa                	add	a5,a5,a0
    2ca0:	0407d683          	lhu	a3,64(a5)
    2ca4:	03e7d703          	lhu	a4,62(a5)
    2ca8:	02d70733          	mul	a4,a4,a3
    2cac:	02e5f7b3          	remu	a5,a1,a4
    2cb0:	02d7f633          	remu	a2,a5,a3
    2cb4:	02e5d5b3          	divu	a1,a1,a4
    2cb8:	00160713          	addi	a4,a2,1
    2cbc:	00e50da3          	sb	a4,27(a0)
    2cc0:	02d7d7b3          	divu	a5,a5,a3
    2cc4:	00b51e23          	sh	a1,28(a0)
    2cc8:	00f50f23          	sb	a5,30(a0)
    2ccc:	8082                	ret

00002cce <_ZL16ide_set_geometryP7drive_ttt>:
    2cce:	00a55783          	lhu	a5,10(a0)
    2cd2:	1141                	addi	sp,sp,-16
    2cd4:	c422                	sw	s0,8(sp)
    2cd6:	c226                	sw	s1,4(sp)
    2cd8:	c04a                	sw	s2,0(sp)
    2cda:	c606                	sw	ra,12(sp)
    2cdc:	842a                	mv	s0,a0
    2cde:	84b2                	mv	s1,a2
    2ce0:	892e                	mv	s2,a1
    2ce2:	00c79663          	bne	a5,a2,2cee <_ZL16ide_set_geometryP7drive_ttt+0x20>
    2ce6:	00c55783          	lhu	a5,12(a0)
    2cea:	00b78963          	beq	a5,a1,2cfc <_ZL16ide_set_geometryP7drive_ttt+0x2e>
    2cee:	6519                	lui	a0,0x6
    2cf0:	8626                	mv	a2,s1
    2cf2:	85ca                	mv	a1,s2
    2cf4:	6a050513          	addi	a0,a0,1696 # 66a0 <_ZL18osdKeyboardlocater+0x5c>
    2cf8:	6eb020ef          	jal	ra,5be2 <riscprintff_>
    2cfc:	8626                	mv	a2,s1
    2cfe:	e099                	bnez	s1,2d04 <_ZL16ide_set_geometryP7drive_ttt+0x36>
    2d00:	4641                	li	a2,16
    2d02:	44c1                	li	s1,16
    2d04:	00941523          	sh	s1,10(s0)
    2d08:	85ca                	mv	a1,s2
    2d0a:	00091663          	bnez	s2,2d16 <_ZL16ide_set_geometryP7drive_ttt+0x48>
    2d0e:	10000593          	li	a1,256
    2d12:	10000913          	li	s2,256
    2d16:	02b607b3          	mul	a5,a2,a1
    2d1a:	4054                	lw	a3,4(s0)
    2d1c:	4c18                	lw	a4,24(s0)
    2d1e:	01241623          	sh	s2,12(s0)
    2d22:	00979513          	slli	a0,a5,0x9
    2d26:	02a6d6b3          	divu	a3,a3,a0
    2d2a:	c319                	beqz	a4,2d30 <_ZL16ide_set_geometryP7drive_ttt+0x62>
    2d2c:	0685                	addi	a3,a3,1 # 40001 <MEM_SIZE+0x20001>
    2d2e:	cc1c                	sw	a5,24(s0)
    2d30:	67c1                	lui	a5,0x10
    2d32:	00f6e463          	bltu	a3,a5,2d3a <_ZL16ide_set_geometryP7drive_ttt+0x6c>
    2d36:	fff78693          	addi	a3,a5,-1 # ffff <_ZL5arrow+0xa47>
    2d3a:	00d41423          	sh	a3,8(s0)
    2d3e:	4422                	lw	s0,8(sp)
    2d40:	40b2                	lw	ra,12(sp)
    2d42:	4492                	lw	s1,4(sp)
    2d44:	4902                	lw	s2,0(sp)
    2d46:	6519                	lui	a0,0x6
    2d48:	6b450513          	addi	a0,a0,1716 # 66b4 <_ZL18osdKeyboardlocater+0x70>
    2d4c:	0141                	addi	sp,sp,16
    2d4e:	6950206f          	j	5be2 <riscprintff_>

00002d52 <_ZL7get_lbaP10ide_config>:
    2d52:	02054783          	lbu	a5,32(a0)
    2d56:	c385                	beqz	a5,2d76 <_ZL7get_lbaP10ide_config+0x24>
    2d58:	01c54703          	lbu	a4,28(a0)
    2d5c:	01b54683          	lbu	a3,27(a0)
    2d60:	01d54783          	lbu	a5,29(a0)
    2d64:	01e54503          	lbu	a0,30(a0)
    2d68:	0722                	slli	a4,a4,0x8
    2d6a:	8f55                	or	a4,a4,a3
    2d6c:	07c2                	slli	a5,a5,0x10
    2d6e:	8fd9                	or	a5,a5,a4
    2d70:	0562                	slli	a0,a0,0x18
    2d72:	8d5d                	or	a0,a0,a5
    2d74:	8082                	ret
    2d76:	01f54703          	lbu	a4,31(a0)
    2d7a:	7bc00793          	li	a5,1980
    2d7e:	01c55583          	lhu	a1,28(a0)
    2d82:	02f70733          	mul	a4,a4,a5
    2d86:	01e54683          	lbu	a3,30(a0)
    2d8a:	01b54783          	lbu	a5,27(a0)
    2d8e:	17fd                	addi	a5,a5,-1
    2d90:	953a                	add	a0,a0,a4
    2d92:	03e55603          	lhu	a2,62(a0)
    2d96:	04055703          	lhu	a4,64(a0)
    2d9a:	02b60633          	mul	a2,a2,a1
    2d9e:	96b2                	add	a3,a3,a2
    2da0:	02d70733          	mul	a4,a4,a3
    2da4:	00e78533          	add	a0,a5,a4
    2da8:	8082                	ret

00002daa <_Z9ide_checkv>:
    2daa:	1141                	addi	sp,sp,-16
    2dac:	c606                	sw	ra,12(sp)
    2dae:	c422                	sw	s0,8(sp)
    2db0:	684020ef          	jal	ra,5434 <_Z12HPS_EnableIOv>
    2db4:	06300513          	li	a0,99
    2db8:	6d8020ef          	jal	ra,5490 <_Z12HPS_fpga_spit>
    2dbc:	842a                	mv	s0,a0
    2dbe:	c901                	beqz	a0,2dce <_Z9ide_checkv+0x24>
    2dc0:	694020ef          	jal	ra,5454 <_Z13HPS_DisableIOv>
    2dc4:	40b2                	lw	ra,12(sp)
    2dc6:	8522                	mv	a0,s0
    2dc8:	4422                	lw	s0,8(sp)
    2dca:	0141                	addi	sp,sp,16
    2dcc:	8082                	ret
    2dce:	6c2020ef          	jal	ra,5490 <_Z12HPS_fpga_spit>
    2dd2:	0ff57413          	zext.b	s0,a0
    2dd6:	67e020ef          	jal	ra,5454 <_Z13HPS_DisableIOv>
    2dda:	40b2                	lw	ra,12(sp)
    2ddc:	8522                	mv	a0,s0
    2dde:	4422                	lw	s0,8(sp)
    2de0:	0141                	addi	sp,sp,16
    2de2:	8082                	ret

00002de4 <_Z12ide_get_regsP10ide_config>:
    2de4:	1101                	addi	sp,sp,-32
    2de6:	ce06                	sw	ra,28(sp)
    2de8:	cc22                	sw	s0,24(sp)
    2dea:	842a                	mv	s0,a0
    2dec:	648020ef          	jal	ra,5434 <_Z12HPS_EnableIOv>
    2df0:	06200513          	li	a0,98
    2df4:	774020ef          	jal	ra,5568 <_Z17HPS_fpga_spi_fastt>
    2df8:	00045503          	lhu	a0,0(s0)
    2dfc:	76c020ef          	jal	ra,5568 <_Z17HPS_fpga_spi_fastt>
    2e00:	4501                	li	a0,0
    2e02:	766020ef          	jal	ra,5568 <_Z17HPS_fpga_spi_fastt>
    2e06:	0048                	addi	a0,sp,4
    2e08:	4601                	li	a2,0
    2e0a:	4599                	li	a1,6
    2e0c:	7be020ef          	jal	ra,55ca <_Z28HPS_fpga_spi_fast_block_readPtmb>
    2e10:	644020ef          	jal	ra,5454 <_Z13HPS_DisableIOv>
    2e14:	4792                	lw	a5,4(sp)
    2e16:	4732                	lw	a4,12(sp)
    2e18:	020408a3          	sb	zero,49(s0)
    2e1c:	0027f313          	andi	t1,a5,2
    2e20:	0107d693          	srli	a3,a5,0x10
    2e24:	0187d893          	srli	a7,a5,0x18
    2e28:	0017f813          	andi	a6,a5,1
    2e2c:	83a1                	srli	a5,a5,0x8
    2e2e:	00f40b23          	sb	a5,22(s0)
    2e32:	01075513          	srli	a0,a4,0x10
    2e36:	47a2                	lw	a5,8(sp)
    2e38:	01475593          	srli	a1,a4,0x14
    2e3c:	01675613          	srli	a2,a4,0x16
    2e40:	0322                	slli	t1,t1,0x8
    2e42:	08a2                	slli	a7,a7,0x8
    2e44:	0ff6f693          	zext.b	a3,a3
    2e48:	00686833          	or	a6,a6,t1
    2e4c:	0116e6b3          	or	a3,a3,a7
    2e50:	893d                	andi	a0,a0,15
    2e52:	8985                	andi	a1,a1,1
    2e54:	8a05                	andi	a2,a2,1
    2e56:	8361                	srli	a4,a4,0x18
    2e58:	01041a23          	sh	a6,20(s0)
    2e5c:	00d41d23          	sh	a3,26(s0)
    2e60:	00a40f23          	sb	a0,30(s0)
    2e64:	00b40fa3          	sb	a1,31(s0)
    2e68:	02c40023          	sb	a2,32(s0)
    2e6c:	02e400a3          	sb	a4,33(s0)
    2e70:	02040923          	sb	zero,50(s0)
    2e74:	40f2                	lw	ra,28(sp)
    2e76:	00f41e23          	sh	a5,28(s0)
    2e7a:	4462                	lw	s0,24(sp)
    2e7c:	6105                	addi	sp,sp,32
    2e7e:	8082                	ret

00002e80 <_Z12ide_set_regsP10ide_config>:
    2e80:	1101                	addi	sp,sp,-32
    2e82:	cc22                	sw	s0,24(sp)
    2e84:	ce06                	sw	ra,28(sp)
    2e86:	03254683          	lbu	a3,50(a0)
    2e8a:	842a                	mv	s0,a0
    2e8c:	0816f793          	andi	a5,a3,129
    2e90:	e789                	bnez	a5,2e9a <_Z12ide_set_regsP10ide_config+0x1a>
    2e92:	0106e693          	ori	a3,a3,16
    2e96:	02d50923          	sb	a3,50(a0)
    2e9a:	01f44703          	lbu	a4,31(s0)
    2e9e:	7bc00793          	li	a5,1980
    2ea2:	01a44583          	lbu	a1,26(s0)
    2ea6:	02f707b3          	mul	a5,a4,a5
    2eaa:	03144503          	lbu	a0,49(s0)
    2eae:	01b44603          	lbu	a2,27(s0)
    2eb2:	01c45803          	lhu	a6,28(s0)
    2eb6:	97a2                	add	a5,a5,s0
    2eb8:	0567c783          	lbu	a5,86(a5)
    2ebc:	efb5                	bnez	a5,2f38 <_Z12ide_set_regsP10ide_config+0xb8>
    2ebe:	03044783          	lbu	a5,48(s0)
    2ec2:	0522                	slli	a0,a0,0x8
    2ec4:	05c2                	slli	a1,a1,0x10
    2ec6:	8fc9                	or	a5,a5,a0
    2ec8:	0662                	slli	a2,a2,0x18
    2eca:	8fcd                	or	a5,a5,a1
    2ecc:	8fd1                	or	a5,a5,a2
    2ece:	c23e                	sw	a5,4(sp)
    2ed0:	01011423          	sh	a6,8(sp)
    2ed4:	00011523          	sh	zero,10(sp)
    2ed8:	4881                	li	a7,0
    2eda:	02044783          	lbu	a5,32(s0)
    2ede:	01e44603          	lbu	a2,30(s0)
    2ee2:	00e03733          	snez	a4,a4
    2ee6:	0017b793          	seqz	a5,a5
    2eea:	40f007b3          	neg	a5,a5
    2eee:	fc07f793          	andi	a5,a5,-64
    2ef2:	0712                	slli	a4,a4,0x4
    2ef4:	1781                	addi	a5,a5,-32
    2ef6:	8fd9                	or	a5,a5,a4
    2ef8:	8fd1                	or	a5,a5,a2
    2efa:	06a2                	slli	a3,a3,0x8
    2efc:	0ff7f793          	zext.b	a5,a5
    2f00:	8fd5                	or	a5,a5,a3
    2f02:	01111623          	sh	a7,12(sp)
    2f06:	00f11723          	sh	a5,14(sp)
    2f0a:	52a020ef          	jal	ra,5434 <_Z12HPS_EnableIOv>
    2f0e:	06100513          	li	a0,97
    2f12:	656020ef          	jal	ra,5568 <_Z17HPS_fpga_spi_fastt>
    2f16:	00045503          	lhu	a0,0(s0)
    2f1a:	64e020ef          	jal	ra,5568 <_Z17HPS_fpga_spi_fastt>
    2f1e:	4501                	li	a0,0
    2f20:	648020ef          	jal	ra,5568 <_Z17HPS_fpga_spi_fastt>
    2f24:	0048                	addi	a0,sp,4
    2f26:	4599                	li	a1,6
    2f28:	664020ef          	jal	ra,558c <_Z29HPS_fpga_spi_fast_block_writePKtm>
    2f2c:	528020ef          	jal	ra,5454 <_Z13HPS_DisableIOv>
    2f30:	40f2                	lw	ra,28(sp)
    2f32:	4462                	lw	s0,24(sp)
    2f34:	6105                	addi	sp,sp,32
    2f36:	8082                	ret
    2f38:	f8000793          	li	a5,-128
    2f3c:	02445883          	lhu	a7,36(s0)
    2f40:	00f10223          	sb	a5,4(sp)
    2f44:	00a102a3          	sb	a0,5(sp)
    2f48:	00b10323          	sb	a1,6(sp)
    2f4c:	00c103a3          	sb	a2,7(sp)
    2f50:	01011423          	sh	a6,8(sp)
    2f54:	00011523          	sh	zero,10(sp)
    2f58:	b749                	j	2eda <_Z12ide_set_regsP10ide_config+0x5a>

00002f5a <_ZL12process_readP10ide_configi>:
    2f5a:	7139                	addi	sp,sp,-64
    2f5c:	de06                	sw	ra,60(sp)
    2f5e:	da26                	sw	s1,52(sp)
    2f60:	d64e                	sw	s3,44(sp)
    2f62:	84aa                	mv	s1,a0
    2f64:	d05a                	sw	s6,32(sp)
    2f66:	dc22                	sw	s0,56(sp)
    2f68:	8b2e                	mv	s6,a1
    2f6a:	d84a                	sw	s2,48(sp)
    2f6c:	d452                	sw	s4,40(sp)
    2f6e:	d256                	sw	s5,36(sp)
    2f70:	ce5e                	sw	s7,28(sp)
    2f72:	cc62                	sw	s8,24(sp)
    2f74:	ca66                	sw	s9,20(sp)
    2f76:	c86a                	sw	s10,16(sp)
    2f78:	c66e                	sw	s11,12(sp)
    2f7a:	dd9ff0ef          	jal	ra,2d52 <_ZL7get_lbaP10ide_config>
    2f7e:	01a4c583          	lbu	a1,26(s1)
    2f82:	89aa                	mv	s3,a0
    2f84:	6519                	lui	a0,0x6
    2f86:	6f850513          	addi	a0,a0,1784 # 66f8 <_ZL18osdKeyboardlocater+0xb4>
    2f8a:	459020ef          	jal	ra,5be2 <riscprintff_>
    2f8e:	01f4c783          	lbu	a5,31(s1)
    2f92:	1c0b1963          	bnez	s6,3164 <_ZL12process_readP10ide_configi+0x20a>
    2f96:	7bc00713          	li	a4,1980
    2f9a:	02e787b3          	mul	a5,a5,a4
    2f9e:	4685                	li	a3,1
    2fa0:	4905                	li	s2,1
    2fa2:	97a6                	add	a5,a5,s1
    2fa4:	47f8                	lw	a4,76(a5)
    2fa6:	1ee9e663          	bltu	s3,a4,3192 <_ZL12process_readP10ide_configi+0x238>
    2faa:	0347d503          	lhu	a0,52(a5)
    2fae:	6a21                	lui	s4,0x8
    2fb0:	06a6                	slli	a3,a3,0x9
    2fb2:	00999613          	slli	a2,s3,0x9
    2fb6:	b80a0593          	addi	a1,s4,-1152 # 7b80 <sector_buffer>
    2fba:	606010ef          	jal	ra,45c0 <_Z13dataslot_readtmmm>
    2fbe:	c4c8                	sw	a0,12(s1)
    2fc0:	1e051163          	bnez	a0,31a2 <_ZL12process_readP10ide_configi+0x248>
    2fc4:	6b99                	lui	s7,0x6
    2fc6:	4d05                	li	s10,1
    2fc8:	7bc00a93          	li	s5,1980
    2fcc:	6c99                	lui	s9,0x6
    2fce:	4c15                	li	s8,5
    2fd0:	01a4c403          	lbu	s0,26(s1)
    2fd4:	0ff97d93          	zext.b	s11,s2
    2fd8:	99ca                	add	s3,s3,s2
    2fda:	41b40433          	sub	s0,s0,s11
    2fde:	0ff47413          	zext.b	s0,s0
    2fe2:	8526                	mv	a0,s1
    2fe4:	85ce                	mv	a1,s3
    2fe6:	00848d23          	sb	s0,26(s1)
    2fea:	c89ff0ef          	jal	ra,2c72 <_ZL7put_lbaP10ide_configm>
    2fee:	85a2                	mv	a1,s0
    2ff0:	720b8513          	addi	a0,s7,1824 # 6720 <_ZL18osdKeyboardlocater+0xdc>
    2ff4:	3ef020ef          	jal	ra,5be2 <riscprintff_>
    2ff8:	01a4c783          	lbu	a5,26(s1)
    2ffc:	0154c703          	lbu	a4,21(s1)
    3000:	03b48823          	sb	s11,48(s1)
    3004:	00f037b3          	snez	a5,a5
    3008:	40f007b3          	neg	a5,a5
    300c:	9bf9                	andi	a5,a5,-2
    300e:	06e78793          	addi	a5,a5,110
    3012:	02f48923          	sb	a5,50(s1)
    3016:	0922                	slli	s2,s2,0x8
    3018:	0c070f63          	beqz	a4,30f6 <_ZL12process_readP10ide_configi+0x19c>
    301c:	8526                	mv	a0,s1
    301e:	e63ff0ef          	jal	ra,2e80 <_Z12ide_set_regsP10ide_config>
    3022:	412020ef          	jal	ra,5434 <_Z12HPS_EnableIOv>
    3026:	06100513          	li	a0,97
    302a:	53e020ef          	jal	ra,5568 <_Z17HPS_fpga_spi_fastt>
    302e:	4088                	lw	a0,0(s1)
    3030:	0ff50513          	addi	a0,a0,255
    3034:	0542                	slli	a0,a0,0x10
    3036:	8141                	srli	a0,a0,0x10
    3038:	530020ef          	jal	ra,5568 <_Z17HPS_fpga_spi_fastt>
    303c:	4501                	li	a0,0
    303e:	52a020ef          	jal	ra,5568 <_Z17HPS_fpga_spi_fastt>
    3042:	85ca                	mv	a1,s2
    3044:	b80a0513          	addi	a0,s4,-1152
    3048:	544020ef          	jal	ra,558c <_Z29HPS_fpga_spi_fast_block_writePKtm>
    304c:	408020ef          	jal	ra,5454 <_Z13HPS_DisableIOv>
    3050:	01a4c703          	lbu	a4,26(s1)
    3054:	cf25                	beqz	a4,30cc <_ZL12process_readP10ide_configi+0x172>
    3056:	01f4c783          	lbu	a5,31(s1)
    305a:	0c0b0f63          	beqz	s6,3138 <_ZL12process_readP10ide_configi+0x1de>
    305e:	035786b3          	mul	a3,a5,s5
    3062:	96a6                	add	a3,a3,s1
    3064:	0486a903          	lw	s2,72(a3)
    3068:	01277363          	bgeu	a4,s2,306e <_ZL12process_readP10ide_configi+0x114>
    306c:	893a                	mv	s2,a4
    306e:	035787b3          	mul	a5,a5,s5
    3072:	86ca                	mv	a3,s2
    3074:	97a6                	add	a5,a5,s1
    3076:	47f8                	lw	a4,76(a5)
    3078:	0ce9e863          	bltu	s3,a4,3148 <_ZL12process_readP10ide_configi+0x1ee>
    307c:	0347d503          	lhu	a0,52(a5)
    3080:	06a6                	slli	a3,a3,0x9
    3082:	00999613          	slli	a2,s3,0x9
    3086:	b80a0593          	addi	a1,s4,-1152
    308a:	536010ef          	jal	ra,45c0 <_Z13dataslot_readtmmm>
    308e:	c4c8                	sw	a0,12(s1)
    3090:	c909                	beqz	a0,30a2 <_ZL12process_readP10ide_configi+0x148>
    3092:	a0c9                	j	3154 <_ZL12process_readP10ide_configi+0x1fa>
    3094:	3c0020ef          	jal	ra,5454 <_Z13HPS_DisableIOv>
    3098:	40dc                	lw	a5,4(s1)
    309a:	40f45433          	sra	s0,s0,a5
    309e:	881d                	andi	s0,s0,7
    30a0:	e405                	bnez	s0,30c8 <_ZL12process_readP10ide_configi+0x16e>
    30a2:	392020ef          	jal	ra,5434 <_Z12HPS_EnableIOv>
    30a6:	06300513          	li	a0,99
    30aa:	3e6020ef          	jal	ra,5490 <_Z12HPS_fpga_spit>
    30ae:	842a                	mv	s0,a0
    30b0:	f175                	bnez	a0,3094 <_ZL12process_readP10ide_configi+0x13a>
    30b2:	3de020ef          	jal	ra,5490 <_Z12HPS_fpga_spit>
    30b6:	0ff57413          	zext.b	s0,a0
    30ba:	39a020ef          	jal	ra,5454 <_Z13HPS_DisableIOv>
    30be:	40dc                	lw	a5,4(s1)
    30c0:	40f45433          	sra	s0,s0,a5
    30c4:	881d                	andi	s0,s0,7
    30c6:	dc71                	beqz	s0,30a2 <_ZL12process_readP10ide_configi+0x148>
    30c8:	f18404e3          	beq	s0,s8,2fd0 <_ZL12process_readP10ide_configi+0x76>
    30cc:	5462                	lw	s0,56(sp)
    30ce:	50f2                	lw	ra,60(sp)
    30d0:	5942                	lw	s2,48(sp)
    30d2:	59b2                	lw	s3,44(sp)
    30d4:	5a22                	lw	s4,40(sp)
    30d6:	5a92                	lw	s5,36(sp)
    30d8:	5b02                	lw	s6,32(sp)
    30da:	4bf2                	lw	s7,28(sp)
    30dc:	4c62                	lw	s8,24(sp)
    30de:	4cd2                	lw	s9,20(sp)
    30e0:	4d42                	lw	s10,16(sp)
    30e2:	4db2                	lw	s11,12(sp)
    30e4:	0004a423          	sw	zero,8(s1)
    30e8:	54d2                	lw	s1,52(sp)
    30ea:	6519                	lui	a0,0x6
    30ec:	73050513          	addi	a0,a0,1840 # 6730 <_ZL18osdKeyboardlocater+0xec>
    30f0:	6121                	addi	sp,sp,64
    30f2:	2f10206f          	j	5be2 <riscprintff_>
    30f6:	33e020ef          	jal	ra,5434 <_Z12HPS_EnableIOv>
    30fa:	06100513          	li	a0,97
    30fe:	46a020ef          	jal	ra,5568 <_Z17HPS_fpga_spi_fastt>
    3102:	4088                	lw	a0,0(s1)
    3104:	0ff50513          	addi	a0,a0,255
    3108:	0542                	slli	a0,a0,0x10
    310a:	8141                	srli	a0,a0,0x10
    310c:	45c020ef          	jal	ra,5568 <_Z17HPS_fpga_spi_fastt>
    3110:	4501                	li	a0,0
    3112:	456020ef          	jal	ra,5568 <_Z17HPS_fpga_spi_fastt>
    3116:	b80a0513          	addi	a0,s4,-1152
    311a:	85ca                	mv	a1,s2
    311c:	470020ef          	jal	ra,558c <_Z29HPS_fpga_spi_fast_block_writePKtm>
    3120:	334020ef          	jal	ra,5454 <_Z13HPS_DisableIOv>
    3124:	0324c783          	lbu	a5,50(s1)
    3128:	8526                	mv	a0,s1
    312a:	fdf7f793          	andi	a5,a5,-33
    312e:	02f48923          	sb	a5,50(s1)
    3132:	d4fff0ef          	jal	ra,2e80 <_Z12ide_set_regsP10ide_config>
    3136:	bf29                	j	3050 <_ZL12process_readP10ide_configi+0xf6>
    3138:	035787b3          	mul	a5,a5,s5
    313c:	4685                	li	a3,1
    313e:	4905                	li	s2,1
    3140:	97a6                	add	a5,a5,s1
    3142:	47f8                	lw	a4,76(a5)
    3144:	f2e9fce3          	bgeu	s3,a4,307c <_ZL12process_readP10ide_configi+0x122>
    3148:	710c8513          	addi	a0,s9,1808 # 6710 <_ZL18osdKeyboardlocater+0xcc>
    314c:	297020ef          	jal	ra,5be2 <riscprintff_>
    3150:	01a4a623          	sw	s10,12(s1)
    3154:	00991613          	slli	a2,s2,0x9
    3158:	4581                	li	a1,0
    315a:	b80a0513          	addi	a0,s4,-1152
    315e:	2cb020ef          	jal	ra,5c28 <memset>
    3162:	b781                	j	30a2 <_ZL12process_readP10ide_configi+0x148>
    3164:	7bc00713          	li	a4,1980
    3168:	02e78733          	mul	a4,a5,a4
    316c:	01a4c903          	lbu	s2,26(s1)
    3170:	9726                	add	a4,a4,s1
    3172:	4738                	lw	a4,72(a4)
    3174:	02091f63          	bnez	s2,31b2 <_ZL12process_readP10ide_configi+0x258>
    3178:	01071913          	slli	s2,a4,0x10
    317c:	01095913          	srli	s2,s2,0x10
    3180:	7bc00713          	li	a4,1980
    3184:	02e787b3          	mul	a5,a5,a4
    3188:	86ca                	mv	a3,s2
    318a:	97a6                	add	a5,a5,s1
    318c:	47f8                	lw	a4,76(a5)
    318e:	e0e9fee3          	bgeu	s3,a4,2faa <_ZL12process_readP10ide_configi+0x50>
    3192:	6519                	lui	a0,0x6
    3194:	71050513          	addi	a0,a0,1808 # 6710 <_ZL18osdKeyboardlocater+0xcc>
    3198:	24b020ef          	jal	ra,5be2 <riscprintff_>
    319c:	4785                	li	a5,1
    319e:	c4dc                	sw	a5,12(s1)
    31a0:	6a21                	lui	s4,0x8
    31a2:	00991613          	slli	a2,s2,0x9
    31a6:	4581                	li	a1,0
    31a8:	b80a0513          	addi	a0,s4,-1152 # 7b80 <sector_buffer>
    31ac:	27d020ef          	jal	ra,5c28 <memset>
    31b0:	bd11                	j	2fc4 <_ZL12process_readP10ide_configi+0x6a>
    31b2:	fd2777e3          	bgeu	a4,s2,3180 <_ZL12process_readP10ide_configi+0x226>
    31b6:	01071913          	slli	s2,a4,0x10
    31ba:	01095913          	srli	s2,s2,0x10
    31be:	b7c9                	j	3180 <_ZL12process_readP10ide_configi+0x226>

000031c0 <_ZL13process_writeP10ide_configi>:
    31c0:	7179                	addi	sp,sp,-48
    31c2:	d226                	sw	s1,36(sp)
    31c4:	ce4e                	sw	s3,28(sp)
    31c6:	ca56                	sw	s5,20(sp)
    31c8:	c85a                	sw	s6,16(sp)
    31ca:	c65e                	sw	s7,12(sp)
    31cc:	c462                	sw	s8,8(sp)
    31ce:	c266                	sw	s9,4(sp)
    31d0:	c06a                	sw	s10,0(sp)
    31d2:	d606                	sw	ra,44(sp)
    31d4:	d422                	sw	s0,40(sp)
    31d6:	d04a                	sw	s2,32(sp)
    31d8:	cc52                	sw	s4,24(sp)
    31da:	84aa                	mv	s1,a0
    31dc:	8aae                	mv	s5,a1
    31de:	6d41                	lui	s10,0x10
    31e0:	b73ff0ef          	jal	ra,2d52 <_ZL7get_lbaP10ide_config>
    31e4:	89aa                	mv	s3,a0
    31e6:	4781                	li	a5,0
    31e8:	7bc00c13          	li	s8,1980
    31ec:	1d7d                	addi	s10,s10,-1 # ffff <_ZL5arrow+0xa47>
    31ee:	4b95                	li	s7,5
    31f0:	6b21                	lui	s6,0x8
    31f2:	0fa00c93          	li	s9,250
    31f6:	0c0a8e63          	beqz	s5,32d2 <_ZL13process_writeP10ide_configi+0x112>
    31fa:	01f4c703          	lbu	a4,31(s1)
    31fe:	01a4c903          	lbu	s2,26(s1)
    3202:	03870733          	mul	a4,a4,s8
    3206:	9726                	add	a4,a4,s1
    3208:	4738                	lw	a4,72(a4)
    320a:	00090563          	beqz	s2,3214 <_ZL13process_writeP10ide_configi+0x54>
    320e:	8a4a                	mv	s4,s2
    3210:	01277663          	bgeu	a4,s2,321c <_ZL13process_writeP10ide_configi+0x5c>
    3214:	01a77a33          	and	s4,a4,s10
    3218:	0ffa7913          	zext.b	s2,s4
    321c:	0487e793          	ori	a5,a5,72
    3220:	02f48923          	sb	a5,50(s1)
    3224:	03248823          	sb	s2,48(s1)
    3228:	8526                	mv	a0,s1
    322a:	c57ff0ef          	jal	ra,2e80 <_Z12ide_set_regsP10ide_config>
    322e:	a801                	j	323e <_ZL13process_writeP10ide_configi+0x7e>
    3230:	224020ef          	jal	ra,5454 <_Z13HPS_DisableIOv>
    3234:	40dc                	lw	a5,4(s1)
    3236:	40f45433          	sra	s0,s0,a5
    323a:	881d                	andi	s0,s0,7
    323c:	e405                	bnez	s0,3264 <_ZL13process_writeP10ide_configi+0xa4>
    323e:	1f6020ef          	jal	ra,5434 <_Z12HPS_EnableIOv>
    3242:	06300513          	li	a0,99
    3246:	24a020ef          	jal	ra,5490 <_Z12HPS_fpga_spit>
    324a:	842a                	mv	s0,a0
    324c:	f175                	bnez	a0,3230 <_ZL13process_writeP10ide_configi+0x70>
    324e:	242020ef          	jal	ra,5490 <_Z12HPS_fpga_spit>
    3252:	0ff57413          	zext.b	s0,a0
    3256:	1fe020ef          	jal	ra,5454 <_Z13HPS_DisableIOv>
    325a:	40dc                	lw	a5,4(s1)
    325c:	40f45433          	sra	s0,s0,a5
    3260:	881d                	andi	s0,s0,7
    3262:	dc71                	beqz	s0,323e <_ZL13process_writeP10ide_configi+0x7e>
    3264:	0b741d63          	bne	s0,s7,331e <_ZL13process_writeP10ide_configi+0x15e>
    3268:	1cc020ef          	jal	ra,5434 <_Z12HPS_EnableIOv>
    326c:	06200513          	li	a0,98
    3270:	2f8020ef          	jal	ra,5568 <_Z17HPS_fpga_spi_fastt>
    3274:	4088                	lw	a0,0(s1)
    3276:	0ff50513          	addi	a0,a0,255
    327a:	0542                	slli	a0,a0,0x10
    327c:	8141                	srli	a0,a0,0x10
    327e:	2ea020ef          	jal	ra,5568 <_Z17HPS_fpga_spi_fastt>
    3282:	4501                	li	a0,0
    3284:	2e4020ef          	jal	ra,5568 <_Z17HPS_fpga_spi_fastt>
    3288:	4605                	li	a2,1
    328a:	008a1593          	slli	a1,s4,0x8
    328e:	b80b0513          	addi	a0,s6,-1152 # 7b80 <sector_buffer>
    3292:	338020ef          	jal	ra,55ca <_Z28HPS_fpga_spi_fast_block_readPtmb>
    3296:	1be020ef          	jal	ra,5454 <_Z13HPS_DisableIOv>
    329a:	0214c783          	lbu	a5,33(s1)
    329e:	03979d63          	bne	a5,s9,32d8 <_ZL13process_writeP10ide_configi+0x118>
    32a2:	00048d23          	sb	zero,26(s1)
    32a6:	04400793          	li	a5,68
    32aa:	02f48923          	sb	a5,50(s1)
    32ae:	5422                	lw	s0,40(sp)
    32b0:	50b2                	lw	ra,44(sp)
    32b2:	5902                	lw	s2,32(sp)
    32b4:	49f2                	lw	s3,28(sp)
    32b6:	4a62                	lw	s4,24(sp)
    32b8:	4ad2                	lw	s5,20(sp)
    32ba:	4b42                	lw	s6,16(sp)
    32bc:	4bb2                	lw	s7,12(sp)
    32be:	4c22                	lw	s8,8(sp)
    32c0:	4c92                	lw	s9,4(sp)
    32c2:	4d02                	lw	s10,0(sp)
    32c4:	0004a423          	sw	zero,8(s1)
    32c8:	8526                	mv	a0,s1
    32ca:	5492                	lw	s1,36(sp)
    32cc:	6145                	addi	sp,sp,48
    32ce:	bb3ff06f          	j	2e80 <_Z12ide_set_regsP10ide_config>
    32d2:	4905                	li	s2,1
    32d4:	4a05                	li	s4,1
    32d6:	b799                	j	321c <_ZL13process_writeP10ide_configi+0x5c>
    32d8:	01f4c783          	lbu	a5,31(s1)
    32dc:	038787b3          	mul	a5,a5,s8
    32e0:	97a6                	add	a5,a5,s1
    32e2:	47f8                	lw	a4,76(a5)
    32e4:	00e9ec63          	bltu	s3,a4,32fc <_ZL13process_writeP10ide_configi+0x13c>
    32e8:	0347d503          	lhu	a0,52(a5)
    32ec:	009a1693          	slli	a3,s4,0x9
    32f0:	00999613          	slli	a2,s3,0x9
    32f4:	b80b0593          	addi	a1,s6,-1152
    32f8:	384010ef          	jal	ra,467c <_Z14dataslot_writetmmm>
    32fc:	01a4c403          	lbu	s0,26(s1)
    3300:	99d2                	add	s3,s3,s4
    3302:	85ce                	mv	a1,s3
    3304:	41240433          	sub	s0,s0,s2
    3308:	0ff47413          	zext.b	s0,s0
    330c:	00848d23          	sb	s0,26(s1)
    3310:	8526                	mv	a0,s1
    3312:	961ff0ef          	jal	ra,2c72 <_ZL7put_lbaP10ide_configm>
    3316:	4791                	li	a5,4
    3318:	ec041fe3          	bnez	s0,31f6 <_ZL13process_writeP10ide_configi+0x36>
    331c:	b769                	j	32a6 <_ZL13process_writeP10ide_configi+0xe6>
    331e:	50b2                	lw	ra,44(sp)
    3320:	5422                	lw	s0,40(sp)
    3322:	0004a423          	sw	zero,8(s1)
    3326:	5902                	lw	s2,32(sp)
    3328:	5492                	lw	s1,36(sp)
    332a:	49f2                	lw	s3,28(sp)
    332c:	4a62                	lw	s4,24(sp)
    332e:	4ad2                	lw	s5,20(sp)
    3330:	4b42                	lw	s6,16(sp)
    3332:	4bb2                	lw	s7,12(sp)
    3334:	4c22                	lw	s8,8(sp)
    3336:	4c92                	lw	s9,4(sp)
    3338:	4d02                	lw	s10,0(sp)
    333a:	6145                	addi	sp,sp,48
    333c:	8082                	ret

0000333e <_ZL10handle_hddP10ide_config>:
    333e:	1141                	addi	sp,sp,-16
    3340:	c422                	sw	s0,8(sp)
    3342:	c606                	sw	ra,12(sp)
    3344:	c226                	sw	s1,4(sp)
    3346:	02154783          	lbu	a5,33(a0)
    334a:	09100713          	li	a4,145
    334e:	842a                	mv	s0,a0
    3350:	0ce78a63          	beq	a5,a4,3424 <_ZL10handle_hddP10ide_config+0xe6>
    3354:	02f77d63          	bgeu	a4,a5,338e <_ZL10handle_hddP10ide_config+0x50>
    3358:	0c600713          	li	a4,198
    335c:	0ee78c63          	beq	a5,a4,3454 <_ZL10handle_hddP10ide_config+0x116>
    3360:	04f77563          	bgeu	a4,a5,33aa <_ZL10handle_hddP10ide_config+0x6c>
    3364:	0ec00713          	li	a4,236
    3368:	12e78163          	beq	a5,a4,348a <_ZL10handle_hddP10ide_config+0x14c>
    336c:	0fa00713          	li	a4,250
    3370:	04e79963          	bne	a5,a4,33c2 <_ZL10handle_hddP10ide_config+0x84>
    3374:	10000793          	li	a5,256
    3378:	02f51223          	sh	a5,36(a0)
    337c:	4581                	li	a1,0
    337e:	e43ff0ef          	jal	ra,31c0 <_ZL13process_writeP10ide_configi>
    3382:	4501                	li	a0,0
    3384:	40b2                	lw	ra,12(sp)
    3386:	4422                	lw	s0,8(sp)
    3388:	4492                	lw	s1,4(sp)
    338a:	0141                	addi	sp,sp,16
    338c:	8082                	ret
    338e:	17e1                	addi	a5,a5,-8
    3390:	0ff7f793          	zext.b	a5,a5
    3394:	03800713          	li	a4,56
    3398:	02f76563          	bltu	a4,a5,33c2 <_ZL10handle_hddP10ide_config+0x84>
    339c:	6719                	lui	a4,0x6
    339e:	078a                	slli	a5,a5,0x2
    33a0:	7e870713          	addi	a4,a4,2024 # 67e8 <_ZL18osdKeyboardlocater+0x1a4>
    33a4:	97ba                	add	a5,a5,a4
    33a6:	439c                	lw	a5,0(a5)
    33a8:	8782                	jr	a5
    33aa:	0c400713          	li	a4,196
    33ae:	06e78763          	beq	a5,a4,341c <_ZL10handle_hddP10ide_config+0xde>
    33b2:	0c500713          	li	a4,197
    33b6:	00e79663          	bne	a5,a4,33c2 <_ZL10handle_hddP10ide_config+0x84>
    33ba:	4585                	li	a1,1
    33bc:	e05ff0ef          	jal	ra,31c0 <_ZL13process_writeP10ide_configi>
    33c0:	b7c9                	j	3382 <_ZL10handle_hddP10ide_config+0x44>
    33c2:	400c                	lw	a1,0(s0)
    33c4:	6519                	lui	a0,0x6
    33c6:	7c450513          	addi	a0,a0,1988 # 67c4 <_ZL18osdKeyboardlocater+0x180>
    33ca:	019020ef          	jal	ra,5be2 <riscprintff_>
    33ce:	4505                	li	a0,1
    33d0:	bf55                	j	3384 <_ZL10handle_hddP10ide_config+0x46>
    33d2:	04400793          	li	a5,68
    33d6:	02f50923          	sb	a5,50(a0)
    33da:	00051e23          	sh	zero,28(a0)
    33de:	aa3ff0ef          	jal	ra,2e80 <_Z12ide_set_regsP10ide_config>
    33e2:	b745                	j	3382 <_ZL10handle_hddP10ide_config+0x44>
    33e4:	4581                	li	a1,0
    33e6:	ddbff0ef          	jal	ra,31c0 <_ZL13process_writeP10ide_configi>
    33ea:	bf61                	j	3382 <_ZL10handle_hddP10ide_config+0x44>
    33ec:	4581                	li	a1,0
    33ee:	b6dff0ef          	jal	ra,2f5a <_ZL12process_readP10ide_configi>
    33f2:	bf41                	j	3382 <_ZL10handle_hddP10ide_config+0x44>
    33f4:	6519                	lui	a0,0x6
    33f6:	78050513          	addi	a0,a0,1920 # 6780 <_ZL18osdKeyboardlocater+0x13c>
    33fa:	7e8020ef          	jal	ra,5be2 <riscprintff_>
    33fe:	04400793          	li	a5,68
    3402:	02f40923          	sb	a5,50(s0)
    3406:	8522                	mv	a0,s0
    3408:	a79ff0ef          	jal	ra,2e80 <_Z12ide_set_regsP10ide_config>
    340c:	bf9d                	j	3382 <_ZL10handle_hddP10ide_config+0x44>
    340e:	6519                	lui	a0,0x6
    3410:	75450513          	addi	a0,a0,1876 # 6754 <_ZL18osdKeyboardlocater+0x110>
    3414:	7ce020ef          	jal	ra,5be2 <riscprintff_>
    3418:	4505                	li	a0,1
    341a:	b7ad                	j	3384 <_ZL10handle_hddP10ide_config+0x46>
    341c:	4585                	li	a1,1
    341e:	b3dff0ef          	jal	ra,2f5a <_ZL12process_readP10ide_configi>
    3422:	b785                	j	3382 <_ZL10handle_hddP10ide_config+0x44>
    3424:	01f54503          	lbu	a0,31(a0)
    3428:	7bc00793          	li	a5,1980
    342c:	01e44603          	lbu	a2,30(s0)
    3430:	02f50533          	mul	a0,a0,a5
    3434:	01a44583          	lbu	a1,26(s0)
    3438:	0605                	addi	a2,a2,1
    343a:	03450513          	addi	a0,a0,52
    343e:	9522                	add	a0,a0,s0
    3440:	88fff0ef          	jal	ra,2cce <_ZL16ide_set_geometryP7drive_ttt>
    3444:	04400793          	li	a5,68
    3448:	02f40923          	sb	a5,50(s0)
    344c:	8522                	mv	a0,s0
    344e:	a33ff0ef          	jal	ra,2e80 <_Z12ide_set_regsP10ide_config>
    3452:	bf05                	j	3382 <_ZL10handle_hddP10ide_config+0x44>
    3454:	01a54583          	lbu	a1,26(a0)
    3458:	02000793          	li	a5,32
    345c:	f6b7e9e3          	bltu	a5,a1,33ce <_ZL10handle_hddP10ide_config+0x90>
    3460:	01f54783          	lbu	a5,31(a0)
    3464:	7bc00713          	li	a4,1980
    3468:	6519                	lui	a0,0x6
    346a:	02e787b3          	mul	a5,a5,a4
    346e:	73c50513          	addi	a0,a0,1852 # 673c <_ZL18osdKeyboardlocater+0xf8>
    3472:	97a2                	add	a5,a5,s0
    3474:	c7ac                	sw	a1,72(a5)
    3476:	76c020ef          	jal	ra,5be2 <riscprintff_>
    347a:	04400793          	li	a5,68
    347e:	02f40923          	sb	a5,50(s0)
    3482:	8522                	mv	a0,s0
    3484:	9fdff0ef          	jal	ra,2e80 <_Z12ide_set_regsP10ide_config>
    3488:	bded                	j	3382 <_ZL10handle_hddP10ide_config+0x44>
    348a:	01f54783          	lbu	a5,31(a0)
    348e:	7bc00493          	li	s1,1980
    3492:	00052e23          	sw	zero,28(a0)
    3496:	029784b3          	mul	s1,a5,s1
    349a:	02052823          	sw	zero,48(a0)
    349e:	00f50fa3          	sb	a5,31(a0)
    34a2:	4785                	li	a5,1
    34a4:	02f50823          	sb	a5,48(a0)
    34a8:	04e00793          	li	a5,78
    34ac:	02f50923          	sb	a5,50(a0)
    34b0:	00052a23          	sw	zero,20(a0)
    34b4:	00052c23          	sw	zero,24(a0)
    34b8:	02052023          	sw	zero,32(a0)
    34bc:	02052223          	sw	zero,36(a0)
    34c0:	02052423          	sw	zero,40(a0)
    34c4:	02052623          	sw	zero,44(a0)
    34c8:	5f048493          	addi	s1,s1,1520
    34cc:	94aa                	add	s1,s1,a0
    34ce:	767010ef          	jal	ra,5434 <_Z12HPS_EnableIOv>
    34d2:	06100513          	li	a0,97
    34d6:	092020ef          	jal	ra,5568 <_Z17HPS_fpga_spi_fastt>
    34da:	4008                	lw	a0,0(s0)
    34dc:	0ff50513          	addi	a0,a0,255
    34e0:	0542                	slli	a0,a0,0x10
    34e2:	8141                	srli	a0,a0,0x10
    34e4:	084020ef          	jal	ra,5568 <_Z17HPS_fpga_spi_fastt>
    34e8:	4501                	li	a0,0
    34ea:	07e020ef          	jal	ra,5568 <_Z17HPS_fpga_spi_fastt>
    34ee:	8526                	mv	a0,s1
    34f0:	10000593          	li	a1,256
    34f4:	098020ef          	jal	ra,558c <_Z29HPS_fpga_spi_fast_block_writePKtm>
    34f8:	75d010ef          	jal	ra,5454 <_Z13HPS_DisableIOv>
    34fc:	8522                	mv	a0,s0
    34fe:	983ff0ef          	jal	ra,2e80 <_Z12ide_set_regsP10ide_config>
    3502:	b541                	j	3382 <_ZL10handle_hddP10ide_config+0x44>

00003504 <_Z13calc_geometryP7hdfTYPE>:
    3504:	00c52803          	lw	a6,12(a0)
    3508:	1141                	addi	sp,sp,-16
    350a:	07f00793          	li	a5,127
    350e:	c23e                	sw	a5,4(sp)
    3510:	200005b7          	lui	a1,0x20000
    3514:	0ff00793          	li	a5,255
    3518:	c43e                	sw	a5,8(sp)
    351a:	c602                	sw	zero,12(sp)
    351c:	00985893          	srli	a7,a6,0x9
    3520:	8e0a                	mv	t3,sp
    3522:	03f00613          	li	a2,63
    3526:	1ff58593          	addi	a1,a1,511 # 200001ff <MEM_SIZE+0x1ffe01ff>
    352a:	6f41                	lui	t5,0x10
    352c:	3ff00e93          	li	t4,1023
    3530:	4345                	li	t1,17
    3532:	00261713          	slli	a4,a2,0x2
    3536:	4791                	li	a5,4
    3538:	02e8d6b3          	divu	a3,a7,a4
    353c:	0105ee63          	bltu	a1,a6,3558 <_Z13calc_geometryP7hdfTYPE+0x54>
    3540:	00defe63          	bgeu	t4,a3,355c <_Z13calc_geometryP7hdfTYPE+0x58>
    3544:	0785                	addi	a5,a5,1
    3546:	9732                	add	a4,a4,a2
    3548:	fe6798e3          	bne	a5,t1,3538 <_Z13calc_geometryP7hdfTYPE+0x34>
    354c:	004e2783          	lw	a5,4(t3)
    3550:	0e11                	addi	t3,t3,4
    3552:	cf89                	beqz	a5,356c <_Z13calc_geometryP7hdfTYPE+0x68>
    3554:	863e                	mv	a2,a5
    3556:	bff1                	j	3532 <_Z13calc_geometryP7hdfTYPE+0x2e>
    3558:	fedf66e3          	bltu	t5,a3,3544 <_Z13calc_geometryP7hdfTYPE+0x40>
    355c:	07c2                	slli	a5,a5,0x10
    355e:	83c1                	srli	a5,a5,0x10
    3560:	0642                	slli	a2,a2,0x10
    3562:	8fd1                	or	a5,a5,a2
    3564:	c914                	sw	a3,16(a0)
    3566:	c95c                	sw	a5,20(a0)
    3568:	0141                	addi	sp,sp,16
    356a:	8082                	ret
    356c:	47c5                	li	a5,17
    356e:	0642                	slli	a2,a2,0x10
    3570:	8fd1                	or	a5,a5,a2
    3572:	c914                	sw	a3,16(a0)
    3574:	c95c                	sw	a5,20(a0)
    3576:	0141                	addi	sp,sp,16
    3578:	8082                	ret

0000357a <_Z16get_rdb_geometryP7hdfTYPE>:
    357a:	67a1                	lui	a5,0x8
    357c:	b8078793          	addi	a5,a5,-1152 # 7b80 <sector_buffer>
    3580:	47b0                	lw	a2,72(a5)
    3582:	0447a803          	lw	a6,68(a5)
    3586:	43b8                	lw	a4,64(a5)
    3588:	00865693          	srli	a3,a2,0x8
    358c:	00885793          	srli	a5,a6,0x8
    3590:	01865593          	srli	a1,a2,0x18
    3594:	01885813          	srli	a6,a6,0x18
    3598:	f006f693          	andi	a3,a3,-256
    359c:	f007f793          	andi	a5,a5,-256
    35a0:	0107e7b3          	or	a5,a5,a6
    35a4:	01871613          	slli	a2,a4,0x18
    35a8:	01875313          	srli	t1,a4,0x18
    35ac:	00871893          	slli	a7,a4,0x8
    35b0:	8ecd                	or	a3,a3,a1
    35b2:	6841                	lui	a6,0x10
    35b4:	00ff05b7          	lui	a1,0xff0
    35b8:	00b8f8b3          	and	a7,a7,a1
    35bc:	00666633          	or	a2,a2,t1
    35c0:	8321                	srli	a4,a4,0x8
    35c2:	06c2                	slli	a3,a3,0x10
    35c4:	f0080813          	addi	a6,a6,-256 # ff00 <_ZL5arrow+0x948>
    35c8:	1141                	addi	sp,sp,-16
    35ca:	01079593          	slli	a1,a5,0x10
    35ce:	01077733          	and	a4,a4,a6
    35d2:	82c1                	srli	a3,a3,0x10
    35d4:	01166633          	or	a2,a2,a7
    35d8:	c422                	sw	s0,8(sp)
    35da:	c606                	sw	ra,12(sp)
    35dc:	8e59                	or	a2,a2,a4
    35de:	8dd5                	or	a1,a1,a3
    35e0:	07c2                	slli	a5,a5,0x10
    35e2:	83c1                	srli	a5,a5,0x10
    35e4:	c94c                	sw	a1,20(a0)
    35e6:	c910                	sw	a2,16(a0)
    35e8:	0ff00713          	li	a4,255
    35ec:	842a                	mv	s0,a0
    35ee:	00f76563          	bltu	a4,a5,35f8 <_Z16get_rdb_geometryP7hdfTYPE+0x7e>
    35f2:	47c1                	li	a5,16
    35f4:	06d7f463          	bgeu	a5,a3,365c <_Z16get_rdb_geometryP7hdfTYPE+0xe2>
    35f8:	651d                	lui	a0,0x7
    35fa:	8cc50513          	addi	a0,a0,-1844 # 68cc <_ZL18osdKeyboardlocater+0x288>
    35fe:	5e4020ef          	jal	ra,5be2 <riscprintff_>
    3602:	01645583          	lhu	a1,22(s0)
    3606:	0015f793          	andi	a5,a1,1
    360a:	eb91                	bnez	a5,361e <_Z16get_rdb_geometryP7hdfTYPE+0xa4>
    360c:	1ff00793          	li	a5,511
    3610:	00b7e763          	bltu	a5,a1,361e <_Z16get_rdb_geometryP7hdfTYPE+0xa4>
    3614:	01445683          	lhu	a3,20(s0)
    3618:	47a1                	li	a5,8
    361a:	00d7fd63          	bgeu	a5,a3,3634 <_Z16get_rdb_geometryP7hdfTYPE+0xba>
    361e:	651d                	lui	a0,0x7
    3620:	91850513          	addi	a0,a0,-1768 # 6918 <_ZL18osdKeyboardlocater+0x2d4>
    3624:	5be020ef          	jal	ra,5be2 <riscprintff_>
    3628:	8522                	mv	a0,s0
    362a:	4422                	lw	s0,8(sp)
    362c:	40b2                	lw	ra,12(sp)
    362e:	0141                	addi	sp,sp,16
    3630:	ed5ff06f          	j	3504 <_Z13calc_geometryP7hdfTYPE>
    3634:	651d                	lui	a0,0x7
    3636:	00169713          	slli	a4,a3,0x1
    363a:	0015d613          	srli	a2,a1,0x1
    363e:	8ec50513          	addi	a0,a0,-1812 # 68ec <_ZL18osdKeyboardlocater+0x2a8>
    3642:	5a0020ef          	jal	ra,5be2 <riscprintff_>
    3646:	01445783          	lhu	a5,20(s0)
    364a:	01645703          	lhu	a4,22(s0)
    364e:	0786                	slli	a5,a5,0x1
    3650:	8305                	srli	a4,a4,0x1
    3652:	07c2                	slli	a5,a5,0x10
    3654:	83c1                	srli	a5,a5,0x10
    3656:	0742                	slli	a4,a4,0x10
    3658:	8fd9                	or	a5,a5,a4
    365a:	c85c                	sw	a5,20(s0)
    365c:	40b2                	lw	ra,12(sp)
    365e:	4422                	lw	s0,8(sp)
    3660:	0141                	addi	sp,sp,16
    3662:	8082                	ret

00003664 <_Z14guess_geometryP7hdfTYPE>:
    3664:	1101                	addi	sp,sp,-32
    3666:	cc22                	sw	s0,24(sp)
    3668:	ca26                	sw	s1,20(sp)
    366a:	c84a                	sw	s2,16(sp)
    366c:	c64e                	sw	s3,12(sp)
    366e:	c452                	sw	s4,8(sp)
    3670:	c256                	sw	s5,4(sp)
    3672:	c05a                	sw	s6,0(sp)
    3674:	ce06                	sw	ra,28(sp)
    3676:	69a1                	lui	s3,0x8
    3678:	64a1                	lui	s1,0x8
    367a:	4b534ab7          	lui	s5,0x4b534
    367e:	8a2a                	mv	s4,a0
    3680:	00052e23          	sw	zero,28(a0)
    3684:	b8098993          	addi	s3,s3,-1152 # 7b80 <sector_buffer>
    3688:	4901                	li	s2,0
    368a:	4401                	li	s0,0
    368c:	d8048493          	addi	s1,s1,-640 # 7d80 <sector_buffer+0x200>
    3690:	452a8a93          	addi	s5,s5,1106 # 4b534452 <MEM_SIZE+0x4b514452>
    3694:	6b09                	lui	s6,0x2
    3696:	008a5503          	lhu	a0,8(s4)
    369a:	20000693          	li	a3,512
    369e:	864a                	mv	a2,s2
    36a0:	85ce                	mv	a1,s3
    36a2:	71f000ef          	jal	ra,45c0 <_Z13dataslot_readtmmm>
    36a6:	87ce                	mv	a5,s3
    36a8:	0007c703          	lbu	a4,0(a5)
    36ac:	0785                	addi	a5,a5,1
    36ae:	8c59                	or	s0,s0,a4
    36b0:	fef49ce3          	bne	s1,a5,36a8 <_Z14guess_geometryP7hdfTYPE+0x44>
    36b4:	0009a783          	lw	a5,0(s3)
    36b8:	07578d63          	beq	a5,s5,3732 <_Z14guess_geometryP7hdfTYPE+0xce>
    36bc:	20090913          	addi	s2,s2,512
    36c0:	fd691be3          	bne	s2,s6,3696 <_Z14guess_geometryP7hdfTYPE+0x32>
    36c4:	c859                	beqz	s0,375a <_Z14guess_geometryP7hdfTYPE+0xf6>
    36c6:	00ca2603          	lw	a2,12(s4)
    36ca:	008007b7          	lui	a5,0x800
    36ce:	07c1                	addi	a5,a5,16 # 800010 <MEM_SIZE+0x7e0010>
    36d0:	00e65693          	srli	a3,a2,0xe
    36d4:	00fa2a23          	sw	a5,20(s4)
    36d8:	0685                	addi	a3,a3,1
    36da:	67c1                	lui	a5,0x10
    36dc:	0cf6e263          	bltu	a3,a5,37a0 <_Z14guess_geometryP7hdfTYPE+0x13c>
    36e0:	471d                	li	a4,7
    36e2:	02000793          	li	a5,32
    36e6:	65c1                	lui	a1,0x10
    36e8:	a031                	j	36f4 <_Z14guess_geometryP7hdfTYPE+0x90>
    36ea:	02d656b3          	divu	a3,a2,a3
    36ee:	0685                	addi	a3,a3,1
    36f0:	06b6ec63          	bltu	a3,a1,3768 <_Z14guess_geometryP7hdfTYPE+0x104>
    36f4:	0786                	slli	a5,a5,0x1
    36f6:	177d                	addi	a4,a4,-1
    36f8:	00979693          	slli	a3,a5,0x9
    36fc:	f77d                	bnez	a4,36ea <_Z14guess_geometryP7hdfTYPE+0x86>
    36fe:	8251                	srli	a2,a2,0x14
    3700:	00160693          	addi	a3,a2,1
    3704:	80000713          	li	a4,-2048
    3708:	67c1                	lui	a5,0x10
    370a:	04f6f563          	bgeu	a3,a5,3754 <_Z14guess_geometryP7hdfTYPE+0xf0>
    370e:	651d                	lui	a0,0x7
    3710:	00da2823          	sw	a3,16(s4)
    3714:	00ea2e23          	sw	a4,28(s4)
    3718:	99050513          	addi	a0,a0,-1648 # 6990 <_ZL18osdKeyboardlocater+0x34c>
    371c:	4462                	lw	s0,24(sp)
    371e:	40f2                	lw	ra,28(sp)
    3720:	44d2                	lw	s1,20(sp)
    3722:	4942                	lw	s2,16(sp)
    3724:	49b2                	lw	s3,12(sp)
    3726:	4a22                	lw	s4,8(sp)
    3728:	4a92                	lw	s5,4(sp)
    372a:	4b02                	lw	s6,0(sp)
    372c:	6105                	addi	sp,sp,32
    372e:	4b40206f          	j	5be2 <riscprintff_>
    3732:	651d                	lui	a0,0x7
    3734:	96450513          	addi	a0,a0,-1692 # 6964 <_ZL18osdKeyboardlocater+0x320>
    3738:	4aa020ef          	jal	ra,5be2 <riscprintff_>
    373c:	4462                	lw	s0,24(sp)
    373e:	40f2                	lw	ra,28(sp)
    3740:	44d2                	lw	s1,20(sp)
    3742:	4942                	lw	s2,16(sp)
    3744:	49b2                	lw	s3,12(sp)
    3746:	4a92                	lw	s5,4(sp)
    3748:	4b02                	lw	s6,0(sp)
    374a:	8552                	mv	a0,s4
    374c:	4a22                	lw	s4,8(sp)
    374e:	6105                	addi	sp,sp,32
    3750:	e2bff06f          	j	357a <_Z16get_rdb_geometryP7hdfTYPE>
    3754:	fff78693          	addi	a3,a5,-1 # ffff <_ZL5arrow+0xa47>
    3758:	bf5d                	j	370e <_Z14guess_geometryP7hdfTYPE+0xaa>
    375a:	8552                	mv	a0,s4
    375c:	da9ff0ef          	jal	ra,3504 <_Z13calc_geometryP7hdfTYPE>
    3760:	651d                	lui	a0,0x7
    3762:	9f450513          	addi	a0,a0,-1548 # 69f4 <_ZL18osdKeyboardlocater+0x3b0>
    3766:	bf5d                	j	371c <_Z14guess_geometryP7hdfTYPE+0xb8>
    3768:	08000693          	li	a3,128
    376c:	873e                	mv	a4,a5
    376e:	02f6c663          	blt	a3,a5,379a <_Z14guess_geometryP7hdfTYPE+0x136>
    3772:	02e7c7b3          	div	a5,a5,a4
    3776:	01071693          	slli	a3,a4,0x10
    377a:	02f70733          	mul	a4,a4,a5
    377e:	07c2                	slli	a5,a5,0x10
    3780:	83c1                	srli	a5,a5,0x10
    3782:	8fd5                	or	a5,a5,a3
    3784:	00fa2a23          	sw	a5,20(s4)
    3788:	00971693          	slli	a3,a4,0x9
    378c:	02d65633          	divu	a2,a2,a3
    3790:	40e00733          	neg	a4,a4
    3794:	00160693          	addi	a3,a2,1
    3798:	bf85                	j	3708 <_Z14guess_geometryP7hdfTYPE+0xa4>
    379a:	08000713          	li	a4,128
    379e:	bfd1                	j	3772 <_Z14guess_geometryP7hdfTYPE+0x10e>
    37a0:	002007b7          	lui	a5,0x200
    37a4:	0785                	addi	a5,a5,1 # 200001 <MEM_SIZE+0x1e0001>
    37a6:	5701                	li	a4,-32
    37a8:	00fa2a23          	sw	a5,20(s4)
    37ac:	bfb1                	j	3708 <_Z14guess_geometryP7hdfTYPE+0xa4>

000037ae <_Z11ide_img_setmtiiii>:
    37ae:	715d                	addi	sp,sp,-80
    37b0:	da56                	sw	s5,52(sp)
    37b2:	00155a93          	srli	s5,a0,0x1
    37b6:	c0ca                	sw	s2,64(sp)
    37b8:	de4e                	sw	s3,60(sp)
    37ba:	dc52                	sw	s4,56(sp)
    37bc:	00157993          	andi	s3,a0,1
    37c0:	8a2a                	mv	s4,a0
    37c2:	0ffaf913          	zext.b	s2,s5
    37c6:	651d                	lui	a0,0x7
    37c8:	d266                	sw	s9,36(sp)
    37ca:	ce6e                	sw	s11,28(sp)
    37cc:	8cae                	mv	s9,a1
    37ce:	8db2                	mv	s11,a2
    37d0:	85ce                	mv	a1,s3
    37d2:	864a                	mv	a2,s2
    37d4:	a3050513          	addi	a0,a0,-1488 # 6a30 <_ZL18osdKeyboardlocater+0x3ec>
    37d8:	d85a                	sw	s6,48(sp)
    37da:	d462                	sw	s8,40(sp)
    37dc:	c636                	sw	a3,12(sp)
    37de:	8b3e                	mv	s6,a5
    37e0:	c686                	sw	ra,76(sp)
    37e2:	c4a2                	sw	s0,72(sp)
    37e4:	c2a6                	sw	s1,68(sp)
    37e6:	d65e                	sw	s7,44(sp)
    37e8:	d06a                	sw	s10,32(sp)
    37ea:	8c3a                	mv	s8,a4
    37ec:	3f6020ef          	jal	ra,5be2 <riscprintff_>
    37f0:	0ffaf793          	zext.b	a5,s5
    37f4:	0ffa7613          	zext.b	a2,s4
    37f8:	66bd                	lui	a3,0xf
    37fa:	c399                	beqz	a5,3800 <_Z11ide_img_setmtiiii+0x52>
    37fc:	10068693          	addi	a3,a3,256 # f100 <sector_bufferfdd1+0x1358>
    3800:	6785                	lui	a5,0x1
    3802:	fac78793          	addi	a5,a5,-84 # fac <_Z19OSD_Keyboard_2_linebi+0x26c>
    3806:	7bc00d13          	li	s10,1980
    380a:	02f907b3          	mul	a5,s2,a5
    380e:	64b1                	lui	s1,0xc
    3810:	c5048493          	addi	s1,s1,-944 # bc50 <ide_inst>
    3814:	651d                	lui	a0,0x7
    3816:	85ca                	mv	a1,s2
    3818:	a3c50513          	addi	a0,a0,-1476 # 6a3c <_ZL18osdKeyboardlocater+0x3f8>
    381c:	03a98d33          	mul	s10,s3,s10
    3820:	00f48bb3          	add	s7,s1,a5
    3824:	00dba023          	sw	a3,0(s7)
    3828:	9d3e                	add	s10,s10,a5
    382a:	01a48433          	add	s0,s1,s10
    382e:	02c40ba3          	sb	a2,55(s0)
    3832:	3b0020ef          	jal	ra,5be2 <riscprintff_>
    3836:	67b1                	lui	a5,0xc
    3838:	c5c78793          	addi	a5,a5,-932 # bc5c <ide_inst+0xc>
    383c:	97ea                	add	a5,a5,s10
    383e:	0207a823          	sw	zero,48(a5)
    3842:	8566                	mv	a0,s9
    3844:	47c1                	li	a5,16
    3846:	c43c                	sw	a5,72(s0)
    3848:	04041023          	sh	zero,64(s0)
    384c:	04042623          	sw	zero,76(s0)
    3850:	04042823          	sw	zero,80(s0)
    3854:	03941a23          	sh	s9,52(s0)
    3858:	509000ef          	jal	ra,4560 <_Z13dataslot_sizet>
    385c:	00a036b3          	snez	a3,a0
    3860:	00191793          	slli	a5,s2,0x1
    3864:	97ca                	add	a5,a5,s2
    3866:	02d40b23          	sb	a3,54(s0)
    386a:	4685                	li	a3,1
    386c:	00dba423          	sw	a3,8(s7)
    3870:	00fba223          	sw	a5,4(s7)
    3874:	4701                	li	a4,0
    3876:	c119                	beqz	a0,387c <_Z11ide_img_setmtiiii+0xce>
    3878:	01b03733          	snez	a4,s11
    387c:	6785                	lui	a5,0x1
    387e:	7bc00413          	li	s0,1980
    3882:	fac78793          	addi	a5,a5,-84 # fac <_Z19OSD_Keyboard_2_linebi+0x26c>
    3886:	02f907b3          	mul	a5,s2,a5
    388a:	8566                	mv	a0,s9
    388c:	02898433          	mul	s0,s3,s0
    3890:	943e                	add	s0,s0,a5
    3892:	9426                	add	s0,s0,s1
    3894:	04e40b23          	sb	a4,86(s0)
    3898:	4c9000ef          	jal	ra,4560 <_Z13dataslot_sizet>
    389c:	05544783          	lbu	a5,85(s0)
    38a0:	dc08                	sw	a0,56(s0)
    38a2:	04f40a23          	sb	a5,84(s0)
    38a6:	0e079c63          	bnez	a5,399e <_Z11ide_img_setmtiiii+0x1f0>
    38aa:	03644783          	lbu	a5,54(s0)
    38ae:	4d21                	li	s10,8
    38b0:	0e079f63          	bnez	a5,39ae <_Z11ide_img_setmtiiii+0x200>
    38b4:	6405                	lui	s0,0x1
    38b6:	fac40413          	addi	s0,s0,-84 # fac <_Z19OSD_Keyboard_2_linebi+0x26c>
    38ba:	02890433          	mul	s0,s2,s0
    38be:	00299793          	slli	a5,s3,0x2
    38c2:	00fd1d33          	sll	s10,s10,a5
    38c6:	6d99                	lui	s11,0x6
    38c8:	866a                	mv	a2,s10
    38ca:	6dcd8513          	addi	a0,s11,1756 # 66dc <_ZL18osdKeyboardlocater+0x98>
    38ce:	00848cb3          	add	s9,s1,s0
    38d2:	000ca583          	lw	a1,0(s9)
    38d6:	0599                	addi	a1,a1,6 # 10006 <_ZL5arrow+0xa4e>
    38d8:	30a020ef          	jal	ra,5be2 <riscprintff_>
    38dc:	359010ef          	jal	ra,5434 <_Z12HPS_EnableIOv>
    38e0:	06100513          	li	a0,97
    38e4:	3ad010ef          	jal	ra,5490 <_Z12HPS_fpga_spit>
    38e8:	000ca503          	lw	a0,0(s9)
    38ec:	0519                	addi	a0,a0,6
    38ee:	3ef010ef          	jal	ra,54dc <_Z7spi32_wm>
    38f2:	010d1513          	slli	a0,s10,0x10
    38f6:	8141                	srli	a0,a0,0x10
    38f8:	399010ef          	jal	ra,5490 <_Z12HPS_fpga_spit>
    38fc:	359010ef          	jal	ra,5454 <_Z13HPS_DisableIOv>
    3900:	000ca583          	lw	a1,0(s9)
    3904:	20000613          	li	a2,512
    3908:	6dcd8513          	addi	a0,s11,1756
    390c:	0599                	addi	a1,a1,6
    390e:	2d4020ef          	jal	ra,5be2 <riscprintff_>
    3912:	323010ef          	jal	ra,5434 <_Z12HPS_EnableIOv>
    3916:	06100513          	li	a0,97
    391a:	377010ef          	jal	ra,5490 <_Z12HPS_fpga_spit>
    391e:	000ca503          	lw	a0,0(s9)
    3922:	0519                	addi	a0,a0,6
    3924:	3b9010ef          	jal	ra,54dc <_Z7spi32_wm>
    3928:	20000513          	li	a0,512
    392c:	365010ef          	jal	ra,5490 <_Z12HPS_fpga_spit>
    3930:	325010ef          	jal	ra,5454 <_Z13HPS_DisableIOv>
    3934:	7bc00793          	li	a5,1980
    3938:	02f987b3          	mul	a5,s3,a5
    393c:	00878cb3          	add	s9,a5,s0
    3940:	9ca6                	add	s9,s9,s1
    3942:	038ca803          	lw	a6,56(s9)
    3946:	036cc603          	lbu	a2,54(s9)
    394a:	00985813          	srli	a6,a6,0x9
    394e:	050ca223          	sw	a6,68(s9)
    3952:	e241                	bnez	a2,39d2 <_Z11ide_img_setmtiiii+0x224>
    3954:	6785                	lui	a5,0x1
    3956:	7bc00693          	li	a3,1980
    395a:	fac78793          	addi	a5,a5,-84 # fac <_Z19OSD_Keyboard_2_linebi+0x26c>
    395e:	02f907b3          	mul	a5,s2,a5
    3962:	4426                	lw	s0,72(sp)
    3964:	40b6                	lw	ra,76(sp)
    3966:	4906                	lw	s2,64(sp)
    3968:	5ad2                	lw	s5,52(sp)
    396a:	5b42                	lw	s6,48(sp)
    396c:	5bb2                	lw	s7,44(sp)
    396e:	5c22                	lw	s8,40(sp)
    3970:	5c92                	lw	s9,36(sp)
    3972:	5d02                	lw	s10,32(sp)
    3974:	02d986b3          	mul	a3,s3,a3
    3978:	4df2                	lw	s11,28(sp)
    397a:	59f2                	lw	s3,60(sp)
    397c:	85d2                	mv	a1,s4
    397e:	5a62                	lw	s4,56(sp)
    3980:	651d                	lui	a0,0x7
    3982:	a4450513          	addi	a0,a0,-1468 # 6a44 <_ZL18osdKeyboardlocater+0x400>
    3986:	96be                	add	a3,a3,a5
    3988:	96a6                	add	a3,a3,s1
    398a:	0406d783          	lhu	a5,64(a3)
    398e:	03e6d703          	lhu	a4,62(a3)
    3992:	4496                	lw	s1,68(sp)
    3994:	03c6d683          	lhu	a3,60(a3)
    3998:	6161                	addi	sp,sp,80
    399a:	2480206f          	j	5be2 <riscprintff_>
    399e:	03644783          	lbu	a5,54(s0)
    39a2:	cb81                	beqz	a5,39b2 <_Z11ide_img_setmtiiii+0x204>
    39a4:	05644783          	lbu	a5,86(s0)
    39a8:	e789                	bnez	a5,39b2 <_Z11ide_img_setmtiiii+0x204>
    39aa:	04040a23          	sb	zero,84(s0)
    39ae:	4d25                	li	s10,9
    39b0:	b711                	j	38b4 <_Z11ide_img_setmtiiii+0x106>
    39b2:	6705                	lui	a4,0x1
    39b4:	7bc00793          	li	a5,1980
    39b8:	fac70713          	addi	a4,a4,-84 # fac <_Z19OSD_Keyboard_2_linebi+0x26c>
    39bc:	02e90733          	mul	a4,s2,a4
    39c0:	4d25                	li	s10,9
    39c2:	02f987b3          	mul	a5,s3,a5
    39c6:	97ba                	add	a5,a5,a4
    39c8:	97a6                	add	a5,a5,s1
    39ca:	4705                	li	a4,1
    39cc:	04e78b23          	sb	a4,86(a5)
    39d0:	b5d5                	j	38b4 <_Z11ide_img_setmtiiii+0x106>
    39d2:	00c15583          	lhu	a1,12(sp)
    39d6:	03440513          	addi	a0,s0,52
    39da:	953e                	add	a0,a0,a5
    39dc:	010c1613          	slli	a2,s8,0x10
    39e0:	8241                	srli	a2,a2,0x10
    39e2:	9526                	add	a0,a0,s1
    39e4:	aeaff0ef          	jal	ra,2cce <_ZL16ide_set_geometryP7drive_ttt>
    39e8:	03ccd583          	lhu	a1,60(s9)
    39ec:	000b0b63          	beqz	s6,3a02 <_Z11ide_img_setmtiiii+0x254>
    39f0:	67c1                	lui	a5,0x10
    39f2:	17fd                	addi	a5,a5,-1 # ffff <_ZL5arrow+0xa47>
    39f4:	00f58763          	beq	a1,a5,3a02 <_Z11ide_img_setmtiiii+0x254>
    39f8:	0585                	addi	a1,a1,1
    39fa:	05c2                	slli	a1,a1,0x10
    39fc:	81c1                	srli	a1,a1,0x10
    39fe:	02bc9e23          	sh	a1,60(s9)
    3a02:	6705                	lui	a4,0x1
    3a04:	7bc00793          	li	a5,1980
    3a08:	fac70713          	addi	a4,a4,-84 # fac <_Z19OSD_Keyboard_2_linebi+0x26c>
    3a0c:	02e90733          	mul	a4,s2,a4
    3a10:	04000e13          	li	t3,64
    3a14:	02000537          	lui	a0,0x2000
    3a18:	202026b7          	lui	a3,0x20202
    3a1c:	02068693          	addi	a3,a3,32 # 20202020 <MEM_SIZE+0x201e2020>
    3a20:	00350e93          	addi	t4,a0,3 # 2000003 <MEM_SIZE+0x1fe0003>
    3a24:	6811                	lui	a6,0x4
    3a26:	0aa2                	slli	s5,s5,0x8
    3a28:	0505                	addi	a0,a0,1
    3a2a:	013aeab3          	or	s5,s5,s3
    3a2e:	02f987b3          	mul	a5,s3,a5
    3a32:	97ba                	add	a5,a5,a4
    3a34:	00f48733          	add	a4,s1,a5
    3a38:	04075883          	lhu	a7,64(a4)
    3a3c:	03e75303          	lhu	t1,62(a4)
    3a40:	5fc71823          	sh	t3,1520(a4)
    3a44:	5f478613          	addi	a2,a5,1524
    3a48:	48444e37          	lui	t3,0x48444
    3a4c:	5eb71923          	sh	a1,1522(a4)
    3a50:	5f171e23          	sh	a7,1532(a4)
    3a54:	05672623          	sw	s6,76(a4)
    3a58:	5e671b23          	sh	t1,1526(a4)
    3a5c:	9626                	add	a2,a2,s1
    3a5e:	14fe0e13          	addi	t3,t3,335 # 4844414f <MEM_SIZE+0x4842414f>
    3a62:	01c62823          	sw	t3,16(a2)
    3a66:	30303e37          	lui	t3,0x30303
    3a6a:	030e0e13          	addi	t3,t3,48 # 30303030 <MEM_SIZE+0x302e3030>
    3a6e:	01c62a23          	sw	t3,20(a2)
    3a72:	20203e37          	lui	t3,0x20203
    3a76:	020e0e13          	addi	t3,t3,32 # 20203020 <MEM_SIZE+0x201e3020>
    3a7a:	01c62c23          	sw	t3,24(a2)
    3a7e:	ce54                	sw	a3,28(a2)
    3a80:	d214                	sw	a3,32(a2)
    3a82:	03d62223          	sw	t4,36(a2)
    3a86:	62d72c23          	sw	a3,1592(a4)
    3a8a:	62d72e23          	sw	a3,1596(a4)
    3a8e:	64d72023          	sw	a3,1600(a4)
    3a92:	64d72223          	sw	a3,1604(a4)
    3a96:	64d72423          	sw	a3,1608(a4)
    3a9a:	802026b7          	lui	a3,0x80202
    3a9e:	14d80613          	addi	a2,a6,333 # 414d <_Z19update_mouse_inputsv+0x2bd>
    3aa2:	02068693          	addi	a3,a3,32 # 80202020 <MEM_SIZE+0x801e2020>
    3aa6:	62c71323          	sh	a2,1574(a4)
    3aaa:	64d72623          	sw	a3,1612(a4)
    3aae:	41205637          	lui	a2,0x41205
    3ab2:	020046b7          	lui	a3,0x2004
    3ab6:	94760613          	addi	a2,a2,-1721 # 41204947 <MEM_SIZE+0x411e4947>
    3aba:	0685                	addi	a3,a3,1 # 2004001 <MEM_SIZE+0x1fe4001>
    3abc:	62c72423          	sw	a2,1576(a4)
    3ac0:	64d72a23          	sw	a3,1620(a4)
    3ac4:	52445637          	lui	a2,0x52445
    3ac8:	000706b7          	lui	a3,0x70
    3acc:	84160613          	addi	a2,a2,-1983 # 52444841 <MEM_SIZE+0x52424841>
    3ad0:	20068693          	addi	a3,a3,512 # 70200 <MEM_SIZE+0x50200>
    3ad4:	62c72623          	sw	a2,1580(a4)
    3ad8:	64d72c23          	sw	a3,1624(a4)
    3adc:	49564637          	lui	a2,0x49564
    3ae0:	66b1                	lui	a3,0xc
    3ae2:	52080813          	addi	a6,a6,1312
    3ae6:	45260613          	addi	a2,a2,1106 # 49564452 <MEM_SIZE+0x49544452>
    3aea:	4e11                	li	t3,4
    3aec:	c9068693          	addi	a3,a3,-880 # bc90 <ide_inst+0x40>
    3af0:	96be                	add	a3,a3,a5
    3af2:	62c72823          	sw	a2,1584(a4)
    3af6:	63071a23          	sh	a6,1588(a4)
    3afa:	64b71e23          	sh	a1,1628(a4)
    3afe:	67171023          	sh	a7,1632(a4)
    3b02:	61c71e23          	sh	t3,1564(a4)
    3b06:	63571b23          	sh	s5,1590(a4)
    3b0a:	64a72823          	sw	a0,1616(a4)
    3b0e:	64671f23          	sh	t1,1630(a4)
    3b12:	42c8                	lw	a0,4(a3)
    3b14:	4374                	lw	a3,68(a4)
    3b16:	07800813          	li	a6,120
    3b1a:	66a72423          	sw	a0,1640(a4)
    3b1e:	00780537          	lui	a0,0x780
    3b22:	07850513          	addi	a0,a0,120 # 780078 <MEM_SIZE+0x760078>
    3b26:	66a72a23          	sw	a0,1652(a4)
    3b2a:	01069593          	slli	a1,a3,0x10
    3b2e:	07e00513          	li	a0,126
    3b32:	68a71823          	sh	a0,1680(a4)
    3b36:	81c1                	srli	a1,a1,0x10
    3b38:	82c1                	srli	a3,a3,0x10
    3b3a:	68478613          	addi	a2,a5,1668
    3b3e:	11000893          	li	a7,272
    3b42:	70004537          	lui	a0,0x70004
    3b46:	66b71123          	sh	a1,1634(a4)
    3b4a:	66d71223          	sh	a3,1636(a4)
    3b4e:	67071923          	sh	a6,1650(a4)
    3b52:	67071c23          	sh	a6,1656(a4)
    3b56:	67171323          	sh	a7,1638(a4)
    3b5a:	9626                	add	a2,a2,s1
    3b5c:	20050513          	addi	a0,a0,512 # 70004200 <MEM_SIZE+0x6ffe4200>
    3b60:	ca08                	sw	a0,16(a2)
    3b62:	42004537          	lui	a0,0x42004
    3b66:	ca48                	sw	a0,20(a2)
    3b68:	40007537          	lui	a0,0x40007
    3b6c:	ce08                	sw	a0,24(a2)
    3b6e:	6619                	lui	a2,0x6
    3b70:	30b60613          	addi	a2,a2,779 # 630b <strlen+0xdd>
    3b74:	6ac71523          	sh	a2,1706(a4)
    3b78:	6631                	lui	a2,0xc
    3b7a:	c6060613          	addi	a2,a2,-928 # bc60 <ide_inst+0x10>
    3b7e:	06c2                	slli	a3,a3,0x10
    3b80:	97b2                	add	a5,a5,a2
    3b82:	8dd5                	or	a1,a1,a3
    3b84:	6ab7a423          	sw	a1,1704(a5)
    3b88:	03674603          	lbu	a2,54(a4)
    3b8c:	04472803          	lw	a6,68(a4)
    3b90:	b3d1                	j	3954 <_Z11ide_img_setmtiiii+0x1a6>

00003b92 <_Z6ide_ioii>:
    3b92:	1101                	addi	sp,sp,-32
    3b94:	cc22                	sw	s0,24(sp)
    3b96:	842a                	mv	s0,a0
    3b98:	6505                	lui	a0,0x1
    3b9a:	fac50513          	addi	a0,a0,-84 # fac <_Z19OSD_Keyboard_2_linebi+0x26c>
    3b9e:	02a40533          	mul	a0,s0,a0
    3ba2:	67b1                	lui	a5,0xc
    3ba4:	ca26                	sw	s1,20(sp)
    3ba6:	c84a                	sw	s2,16(sp)
    3ba8:	ce06                	sw	ra,28(sp)
    3baa:	c5078913          	addi	s2,a5,-944 # bc50 <ide_inst>
    3bae:	c64e                	sw	s3,12(sp)
    3bb0:	c452                	sw	s4,8(sp)
    3bb2:	00a904b3          	add	s1,s2,a0
    3bb6:	e595                	bnez	a1,3be2 <_Z6ide_ioii+0x50>
    3bb8:	4785                	li	a5,1
    3bba:	0ef40563          	beq	s0,a5,3ca4 <_Z6ide_ioii+0x112>
    3bbe:	6785                	lui	a5,0x1
    3bc0:	fac78793          	addi	a5,a5,-84 # fac <_Z19OSD_Keyboard_2_linebi+0x26c>
    3bc4:	02f407b3          	mul	a5,s0,a5
    3bc8:	4705                	li	a4,1
    3bca:	97ca                	add	a5,a5,s2
    3bcc:	4794                	lw	a3,8(a5)
    3bce:	0ee68a63          	beq	a3,a4,3cc2 <_Z6ide_ioii+0x130>
    3bd2:	40f2                	lw	ra,28(sp)
    3bd4:	4462                	lw	s0,24(sp)
    3bd6:	44d2                	lw	s1,20(sp)
    3bd8:	4942                	lw	s2,16(sp)
    3bda:	49b2                	lw	s3,12(sp)
    3bdc:	4a22                	lw	s4,8(sp)
    3bde:	6105                	addi	sp,sp,32
    3be0:	8082                	ret
    3be2:	4711                	li	a4,4
    3be4:	0ee58763          	beq	a1,a4,3cd2 <_Z6ide_ioii+0x140>
    3be8:	4715                	li	a4,5
    3bea:	16e58563          	beq	a1,a4,3d54 <_Z6ide_ioii+0x1c2>
    3bee:	4719                	li	a4,6
    3bf0:	fee591e3          	bne	a1,a4,3bd2 <_Z6ide_ioii+0x40>
    3bf4:	4498                	lw	a4,8(s1)
    3bf6:	4785                	li	a5,1
    3bf8:	18f71e63          	bne	a4,a5,3d94 <_Z6ide_ioii+0x202>
    3bfc:	6785                	lui	a5,0x1
    3bfe:	fac78993          	addi	s3,a5,-84 # fac <_Z19OSD_Keyboard_2_linebi+0x26c>
    3c02:	033409b3          	mul	s3,s0,s3
    3c06:	6731                	lui	a4,0xc
    3c08:	c5470713          	addi	a4,a4,-940 # bc54 <ide_inst+0x4>
    3c0c:	d8c78793          	addi	a5,a5,-628
    3c10:	8526                	mv	a0,s1
    3c12:	013706b3          	add	a3,a4,s3
    3c16:	97ce                	add	a5,a5,s3
    3c18:	97ba                	add	a5,a5,a4
    3c1a:	5c069823          	sh	zero,1488(a3)
    3c1e:	00079023          	sh	zero,0(a5)
    3c22:	9c2ff0ef          	jal	ra,2de4 <_Z12ide_get_regsP10ide_config>
    3c26:	67b1                	lui	a5,0xc
    3c28:	01390733          	add	a4,s2,s3
    3c2c:	c5a78793          	addi	a5,a5,-934 # bc5a <ide_inst+0xa>
    3c30:	00070f23          	sb	zero,30(a4)
    3c34:	020708a3          	sb	zero,49(a4)
    3c38:	97ce                	add	a5,a5,s3
    3c3a:	10100693          	li	a3,257
    3c3e:	00d79823          	sh	a3,16(a5)
    3c42:	01f74783          	lbu	a5,31(a4)
    3c46:	7bc00713          	li	a4,1980
    3c4a:	02e78733          	mul	a4,a5,a4
    3c4e:	974e                	add	a4,a4,s3
    3c50:	974a                	add	a4,a4,s2
    3c52:	03674683          	lbu	a3,54(a4)
    3c56:	12069663          	bnez	a3,3d82 <_Z6ide_ioii+0x1f0>
    3c5a:	66c1                	lui	a3,0x10
    3c5c:	16fd                	addi	a3,a3,-1 # ffff <_ZL5arrow+0xa47>
    3c5e:	7bc00713          	li	a4,1980
    3c62:	02e787b3          	mul	a5,a5,a4
    3c66:	6705                	lui	a4,0x1
    3c68:	fac70713          	addi	a4,a4,-84 # fac <_Z19OSD_Keyboard_2_linebi+0x26c>
    3c6c:	02e40733          	mul	a4,s0,a4
    3c70:	97ba                	add	a5,a5,a4
    3c72:	97ca                	add	a5,a5,s2
    3c74:	0547c783          	lbu	a5,84(a5)
    3c78:	c781                	beqz	a5,3c80 <_Z6ide_ioii+0xee>
    3c7a:	66bd                	lui	a3,0xf
    3c7c:	b1468693          	addi	a3,a3,-1260 # eb14 <sector_bufferfdd1+0xd6c>
    3c80:	6785                	lui	a5,0x1
    3c82:	fac78793          	addi	a5,a5,-84 # fac <_Z19OSD_Keyboard_2_linebi+0x26c>
    3c86:	02f40433          	mul	s0,s0,a5
    3c8a:	8526                	mv	a0,s1
    3c8c:	f8000793          	li	a5,-128
    3c90:	944a                	add	s0,s0,s2
    3c92:	02f40923          	sb	a5,50(s0)
    3c96:	00d41e23          	sh	a3,28(s0)
    3c9a:	9e6ff0ef          	jal	ra,2e80 <_Z12ide_set_regsP10ide_config>
    3c9e:	4785                	li	a5,1
    3ca0:	c41c                	sw	a5,8(s0)
    3ca2:	bf05                	j	3bd2 <_Z6ide_ioii+0x40>
    3ca4:	651d                	lui	a0,0x7
    3ca6:	a9850513          	addi	a0,a0,-1384 # 6a98 <_ZL18osdKeyboardlocater+0x454>
    3caa:	739010ef          	jal	ra,5be2 <riscprintff_>
    3cae:	6785                	lui	a5,0x1
    3cb0:	fac78793          	addi	a5,a5,-84 # fac <_Z19OSD_Keyboard_2_linebi+0x26c>
    3cb4:	02f407b3          	mul	a5,s0,a5
    3cb8:	4705                	li	a4,1
    3cba:	97ca                	add	a5,a5,s2
    3cbc:	4794                	lw	a3,8(a5)
    3cbe:	f0e69ae3          	bne	a3,a4,3bd2 <_Z6ide_ioii+0x40>
    3cc2:	04000713          	li	a4,64
    3cc6:	8526                	mv	a0,s1
    3cc8:	0007a423          	sw	zero,8(a5)
    3ccc:	02e78923          	sb	a4,50(a5)
    3cd0:	a88d                	j	3d42 <_Z6ide_ioii+0x1b0>
    3cd2:	4785                	li	a5,1
    3cd4:	0cf40763          	beq	s0,a5,3da2 <_Z6ide_ioii+0x210>
    3cd8:	6985                	lui	s3,0x1
    3cda:	fac98993          	addi	s3,s3,-84 # fac <_Z19OSD_Keyboard_2_linebi+0x26c>
    3cde:	033409b3          	mul	s3,s0,s3
    3ce2:	8526                	mv	a0,s1
    3ce4:	01390a33          	add	s4,s2,s3
    3ce8:	000a2423          	sw	zero,8(s4)
    3cec:	8f8ff0ef          	jal	ra,2de4 <_Z12ide_get_regsP10ide_config>
    3cf0:	01fa4683          	lbu	a3,31(s4)
    3cf4:	021a4603          	lbu	a2,33(s4)
    3cf8:	651d                	lui	a0,0x7
    3cfa:	85a2                	mv	a1,s0
    3cfc:	ab050513          	addi	a0,a0,-1360 # 6ab0 <_ZL18osdKeyboardlocater+0x46c>
    3d00:	6e3010ef          	jal	ra,5be2 <riscprintff_>
    3d04:	021a4703          	lbu	a4,33(s4)
    3d08:	0fa00793          	li	a5,250
    3d0c:	06f70663          	beq	a4,a5,3d78 <_Z6ide_ioii+0x1e6>
    3d10:	01fa4783          	lbu	a5,31(s4)
    3d14:	7bc00713          	li	a4,1980
    3d18:	02e787b3          	mul	a5,a5,a4
    3d1c:	97ce                	add	a5,a5,s3
    3d1e:	97ca                	add	a5,a5,s2
    3d20:	0367c783          	lbu	a5,54(a5)
    3d24:	ebb1                	bnez	a5,3d78 <_Z6ide_ioii+0x1e6>
    3d26:	6785                	lui	a5,0x1
    3d28:	fac78793          	addi	a5,a5,-84 # fac <_Z19OSD_Keyboard_2_linebi+0x26c>
    3d2c:	02f407b3          	mul	a5,s0,a5
    3d30:	8526                	mv	a0,s1
    3d32:	97ca                	add	a5,a5,s2
    3d34:	04500713          	li	a4,69
    3d38:	02e78923          	sb	a4,50(a5)
    3d3c:	4711                	li	a4,4
    3d3e:	02e788a3          	sb	a4,49(a5)
    3d42:	4462                	lw	s0,24(sp)
    3d44:	40f2                	lw	ra,28(sp)
    3d46:	44d2                	lw	s1,20(sp)
    3d48:	4942                	lw	s2,16(sp)
    3d4a:	49b2                	lw	s3,12(sp)
    3d4c:	4a22                	lw	s4,8(sp)
    3d4e:	6105                	addi	sp,sp,32
    3d50:	930ff06f          	j	2e80 <_Z12ide_set_regsP10ide_config>
    3d54:	4785                	li	a5,1
    3d56:	04f40c63          	beq	s0,a5,3dae <_Z6ide_ioii+0x21c>
    3d5a:	651d                	lui	a0,0x7
    3d5c:	ad050513          	addi	a0,a0,-1328 # 6ad0 <_ZL18osdKeyboardlocater+0x48c>
    3d60:	683010ef          	jal	ra,5be2 <riscprintff_>
    3d64:	6785                	lui	a5,0x1
    3d66:	fac78793          	addi	a5,a5,-84 # fac <_Z19OSD_Keyboard_2_linebi+0x26c>
    3d6a:	02f407b3          	mul	a5,s0,a5
    3d6e:	8526                	mv	a0,s1
    3d70:	97ca                	add	a5,a5,s2
    3d72:	0007a423          	sw	zero,8(a5)
    3d76:	bf7d                	j	3d34 <_Z6ide_ioii+0x1a2>
    3d78:	8526                	mv	a0,s1
    3d7a:	dc4ff0ef          	jal	ra,333e <_ZL10handle_hddP10ide_config>
    3d7e:	f545                	bnez	a0,3d26 <_Z6ide_ioii+0x194>
    3d80:	bd89                	j	3bd2 <_Z6ide_ioii+0x40>
    3d82:	05674703          	lbu	a4,86(a4)
    3d86:	4681                	li	a3,0
    3d88:	ec070be3          	beqz	a4,3c5e <_Z6ide_ioii+0xcc>
    3d8c:	66bd                	lui	a3,0xf
    3d8e:	b1468693          	addi	a3,a3,-1260 # eb14 <sector_bufferfdd1+0xd6c>
    3d92:	b5f1                	j	3c5e <_Z6ide_ioii+0xcc>
    3d94:	408c                	lw	a1,0(s1)
    3d96:	651d                	lui	a0,0x7
    3d98:	aec50513          	addi	a0,a0,-1300 # 6aec <_ZL18osdKeyboardlocater+0x4a8>
    3d9c:	647010ef          	jal	ra,5be2 <riscprintff_>
    3da0:	bdb1                	j	3bfc <_Z6ide_ioii+0x6a>
    3da2:	651d                	lui	a0,0x7
    3da4:	a9850513          	addi	a0,a0,-1384 # 6a98 <_ZL18osdKeyboardlocater+0x454>
    3da8:	63b010ef          	jal	ra,5be2 <riscprintff_>
    3dac:	b735                	j	3cd8 <_Z6ide_ioii+0x146>
    3dae:	651d                	lui	a0,0x7
    3db0:	a9850513          	addi	a0,a0,-1384 # 6a98 <_ZL18osdKeyboardlocater+0x454>
    3db4:	62f010ef          	jal	ra,5be2 <riscprintff_>
    3db8:	b74d                	j	3d5a <_Z6ide_ioii+0x1c8>

00003dba <_Z8ide_openht>:
    3dba:	1141                	addi	sp,sp,-16
    3dbc:	c422                	sw	s0,8(sp)
    3dbe:	03400413          	li	s0,52
    3dc2:	02850433          	mul	s0,a0,s0
    3dc6:	67b1                	lui	a5,0xc
    3dc8:	b8078793          	addi	a5,a5,-1152 # bb80 <_ZL3HDF>
    3dcc:	c226                	sw	s1,4(sp)
    3dce:	84aa                	mv	s1,a0
    3dd0:	651d                	lui	a0,0x7
    3dd2:	c04a                	sw	s2,0(sp)
    3dd4:	b0450513          	addi	a0,a0,-1276 # 6b04 <_ZL18osdKeyboardlocater+0x4c0>
    3dd8:	892e                	mv	s2,a1
    3dda:	c606                	sw	ra,12(sp)
    3ddc:	943e                	add	s0,s0,a5
    3dde:	85a2                	mv	a1,s0
    3de0:	603010ef          	jal	ra,5be2 <riscprintff_>
    3de4:	4785                	li	a5,1
    3de6:	854a                	mv	a0,s2
    3de8:	c004                	sw	s1,0(s0)
    3dea:	c05c                	sw	a5,4(s0)
    3dec:	01241423          	sh	s2,8(s0)
    3df0:	770000ef          	jal	ra,4560 <_Z13dataslot_sizet>
    3df4:	87aa                	mv	a5,a0
    3df6:	651d                	lui	a0,0x7
    3df8:	85a6                	mv	a1,s1
    3dfa:	b1850513          	addi	a0,a0,-1256 # 6b18 <_ZL18osdKeyboardlocater+0x4d4>
    3dfe:	c45c                	sw	a5,12(s0)
    3e00:	5e3010ef          	jal	ra,5be2 <riscprintff_>
    3e04:	8522                	mv	a0,s0
    3e06:	85fff0ef          	jal	ra,3664 <_Z14guess_geometryP7hdfTYPE>
    3e0a:	444c                	lw	a1,12(s0)
    3e0c:	651d                	lui	a0,0x7
    3e0e:	b2c50513          	addi	a0,a0,-1236 # 6b2c <_ZL18osdKeyboardlocater+0x4e8>
    3e12:	0145d613          	srli	a2,a1,0x14
    3e16:	5cd010ef          	jal	ra,5be2 <riscprintff_>
    3e1a:	01645683          	lhu	a3,22(s0)
    3e1e:	01445603          	lhu	a2,20(s0)
    3e22:	480c                	lw	a1,16(s0)
    3e24:	651d                	lui	a0,0x7
    3e26:	b4050513          	addi	a0,a0,-1216 # 6b40 <_ZL18osdKeyboardlocater+0x4fc>
    3e2a:	5b9010ef          	jal	ra,5be2 <riscprintff_>
    3e2e:	01645703          	lhu	a4,22(s0)
    3e32:	01445583          	lhu	a1,20(s0)
    3e36:	481c                	lw	a5,16(s0)
    3e38:	651d                	lui	a0,0x7
    3e3a:	02e585b3          	mul	a1,a1,a4
    3e3e:	b5050513          	addi	a0,a0,-1200 # 6b50 <_ZL18osdKeyboardlocater+0x50c>
    3e42:	02f585b3          	mul	a1,a1,a5
    3e46:	81ad                	srli	a1,a1,0xb
    3e48:	59b010ef          	jal	ra,5be2 <riscprintff_>
    3e4c:	4c4c                	lw	a1,28(s0)
    3e4e:	651d                	lui	a0,0x7
    3e50:	b5c50513          	addi	a0,a0,-1188 # 6b5c <_ZL18osdKeyboardlocater+0x518>
    3e54:	58f010ef          	jal	ra,5be2 <riscprintff_>
    3e58:	4c5c                	lw	a5,28(s0)
    3e5a:	01445703          	lhu	a4,20(s0)
    3e5e:	01645683          	lhu	a3,22(s0)
    3e62:	8526                	mv	a0,s1
    3e64:	85ca                	mv	a1,s2
    3e66:	40f007b3          	neg	a5,a5
    3e6a:	4601                	li	a2,0
    3e6c:	943ff0ef          	jal	ra,37ae <_Z11ide_img_setmtiiii>
    3e70:	40b2                	lw	ra,12(sp)
    3e72:	4422                	lw	s0,8(sp)
    3e74:	4492                	lw	s1,4(sp)
    3e76:	4902                	lw	s2,0(sp)
    3e78:	4501                	li	a0,0
    3e7a:	0141                	addi	sp,sp,16
    3e7c:	8082                	ret

00003e7e <_Z15input_allow_osdb>:
    3e7e:	85aa                	mv	a1,a0
    3e80:	651d                	lui	a0,0x7
    3e82:	67a1                	lui	a5,0x8
    3e84:	b6c50513          	addi	a0,a0,-1172 # 6b6c <_ZL18osdKeyboardlocater+0x528>
    3e88:	b6b78023          	sb	a1,-1184(a5) # 7b60 <keyboard_osd_showing>
    3e8c:	5570106f          	j	5be2 <riscprintff_>

00003e90 <_Z19update_mouse_inputsv>:
    3e90:	f2002783          	lw	a5,-224(zero) # ffffff20 <MEM_SIZE+0xfffdff20>
    3e94:	1101                	addi	sp,sp,-32
    3e96:	6721                	lui	a4,0x8
    3e98:	cc22                	sw	s0,24(sp)
    3e9a:	6421                	lui	s0,0x8
    3e9c:	8ff9                	and	a5,a5,a4
    3e9e:	b6044683          	lbu	a3,-1184(s0) # 7b60 <keyboard_osd_showing>
    3ea2:	ca26                	sw	s1,20(sp)
    3ea4:	00f03733          	snez	a4,a5
    3ea8:	64a1                	lui	s1,0x8
    3eaa:	ce06                	sw	ra,28(sp)
    3eac:	c84a                	sw	s2,16(sp)
    3eae:	c64e                	sw	s3,12(sp)
    3eb0:	b6e48123          	sb	a4,-1182(s1) # 7b62 <mouse_enabled_press>
    3eb4:	cad5                	beqz	a3,3f68 <_Z19update_mouse_inputsv+0xd8>
    3eb6:	67a1                	lui	a5,0x8
    3eb8:	b60781a3          	sb	zero,-1181(a5) # 7b63 <mouse_enabled>
    3ebc:	67a1                	lui	a5,0x8
    3ebe:	b6e780a3          	sb	a4,-1183(a5) # 7b61 <mouse_enabled_press_old>
    3ec2:	f1402783          	lw	a5,-236(zero) # ffffff14 <MEM_SIZE+0xfffdff14>
    3ec6:	f2c02703          	lw	a4,-212(zero) # ffffff2c <MEM_SIZE+0xfffdff2c>
    3eca:	4695                	li	a3,5
    3ecc:	8371                	srli	a4,a4,0x1c
    3ece:	0cd70863          	beq	a4,a3,3f9e <_Z19update_mouse_inputsv+0x10e>
    3ed2:	f2002703          	lw	a4,-224(zero) # ffffff20 <MEM_SIZE+0xfffdff20>
    3ed6:	468d                	li	a3,3
    3ed8:	8371                	srli	a4,a4,0x1c
    3eda:	18d70263          	beq	a4,a3,405e <_Z19update_mouse_inputsv+0x1ce>
    3ede:	6721                	lui	a4,0x8
    3ee0:	b6374703          	lbu	a4,-1181(a4) # 7b63 <mouse_enabled>
    3ee4:	20070a63          	beqz	a4,40f8 <_Z19update_mouse_inputsv+0x268>
    3ee8:	f5402703          	lw	a4,-172(zero) # ffffff54 <MEM_SIZE+0xfffdff54>
    3eec:	07c2                	slli	a5,a5,0x10
    3eee:	83c1                	srli	a5,a5,0x10
    3ef0:	01076713          	ori	a4,a4,16
    3ef4:	f4e02a23          	sw	a4,-172(zero) # ffffff54 <MEM_SIZE+0xfffdff54>
    3ef8:	f2002703          	lw	a4,-224(zero) # ffffff20 <MEM_SIZE+0xfffdff20>
    3efc:	6421                	lui	s0,0x8
    3efe:	00177693          	andi	a3,a4,1
    3f02:	c691                	beqz	a3,3f0e <_Z19update_mouse_inputsv+0x7e>
    3f04:	b6445683          	lhu	a3,-1180(s0) # 7b64 <y_count>
    3f08:	8e9d                	sub	a3,a3,a5
    3f0a:	b6d41223          	sh	a3,-1180(s0)
    3f0e:	00277693          	andi	a3,a4,2
    3f12:	c691                	beqz	a3,3f1e <_Z19update_mouse_inputsv+0x8e>
    3f14:	b6445683          	lhu	a3,-1180(s0)
    3f18:	96be                	add	a3,a3,a5
    3f1a:	b6d41223          	sh	a3,-1180(s0)
    3f1e:	64a1                	lui	s1,0x8
    3f20:	00477693          	andi	a3,a4,4
    3f24:	b6649583          	lh	a1,-1178(s1) # 7b66 <x_count>
    3f28:	c691                	beqz	a3,3f34 <_Z19update_mouse_inputsv+0xa4>
    3f2a:	8d9d                	sub	a1,a1,a5
    3f2c:	05c2                	slli	a1,a1,0x10
    3f2e:	85c1                	srai	a1,a1,0x10
    3f30:	b6b49323          	sh	a1,-1178(s1)
    3f34:	8b21                	andi	a4,a4,8
    3f36:	1a071b63          	bnez	a4,40ec <_Z19update_mouse_inputsv+0x25c>
    3f3a:	0ff5f593          	zext.b	a1,a1
    3f3e:	450d                	li	a0,3
    3f40:	5c4010ef          	jal	ra,5504 <_Z16HPS_spi_uio_cmd8hh>
    3f44:	b6444583          	lbu	a1,-1180(s0)
    3f48:	4511                	li	a0,4
    3f4a:	5ba010ef          	jal	ra,5504 <_Z16HPS_spi_uio_cmd8hh>
    3f4e:	f2002583          	lw	a1,-224(zero) # ffffff20 <MEM_SIZE+0xfffdff20>
    3f52:	4462                	lw	s0,24(sp)
    3f54:	40f2                	lw	ra,28(sp)
    3f56:	44d2                	lw	s1,20(sp)
    3f58:	4942                	lw	s2,16(sp)
    3f5a:	49b2                	lw	s3,12(sp)
    3f5c:	81a1                	srli	a1,a1,0x8
    3f5e:	4509                	li	a0,2
    3f60:	898d                	andi	a1,a1,3
    3f62:	6105                	addi	sp,sp,32
    3f64:	5a00106f          	j	5504 <_Z16HPS_spi_uio_cmd8hh>
    3f68:	16078c63          	beqz	a5,40e0 <_Z19update_mouse_inputsv+0x250>
    3f6c:	6921                	lui	s2,0x8
    3f6e:	b6194783          	lbu	a5,-1183(s2) # 7b61 <mouse_enabled_press_old>
    3f72:	20078263          	beqz	a5,4176 <_Z19update_mouse_inputsv+0x2e6>
    3f76:	67a1                	lui	a5,0x8
    3f78:	c0078793          	addi	a5,a5,-1024 # 7c00 <sector_buffer+0x80>
    3f7c:	12300713          	li	a4,291
    3f80:	468d                	li	a3,3
    3f82:	02000613          	li	a2,32
    3f86:	45a9                	li	a1,10
    3f88:	4529                	li	a0,10
    3f8a:	363010ef          	jal	ra,5aec <_Z10InfoEnableiiiiii>
    3f8e:	f1402783          	lw	a5,-236(zero) # ffffff14 <MEM_SIZE+0xfffdff14>
    3f92:	f2c02703          	lw	a4,-212(zero) # ffffff2c <MEM_SIZE+0xfffdff2c>
    3f96:	4695                	li	a3,5
    3f98:	8371                	srli	a4,a4,0x1c
    3f9a:	f2d71ce3          	bne	a4,a3,3ed2 <_Z19update_mouse_inputsv+0x42>
    3f9e:	f2c02703          	lw	a4,-212(zero) # ffffff2c <MEM_SIZE+0xfffdff2c>
    3fa2:	6421                	lui	s0,0x8
    3fa4:	b6842683          	lw	a3,-1176(s0) # 7b68 <mouse_counter>
    3fa8:	0742                	slli	a4,a4,0x10
    3faa:	8341                	srli	a4,a4,0x10
    3fac:	f2d703e3          	beq	a4,a3,3ed2 <_Z19update_mouse_inputsv+0x42>
    3fb0:	f3c02583          	lw	a1,-196(zero) # ffffff3c <MEM_SIZE+0xfffdff3c>
    3fb4:	00200737          	lui	a4,0x200
    3fb8:	1701                	addi	a4,a4,-32 # 1fffe0 <MEM_SIZE+0x1dffe0>
    3fba:	f005f593          	andi	a1,a1,-256
    3fbe:	0796                	slli	a5,a5,0x5
    3fc0:	05c2                	slli	a1,a1,0x10
    3fc2:	8ff9                	and	a5,a5,a4
    3fc4:	85c1                	srai	a1,a1,0x10
    3fc6:	02f5c5b3          	div	a1,a1,a5
    3fca:	f4c02703          	lw	a4,-180(zero) # ffffff4c <MEM_SIZE+0xfffdff4c>
    3fce:	f8100693          	li	a3,-127
    3fd2:	f0077713          	andi	a4,a4,-256
    3fd6:	0742                	slli	a4,a4,0x10
    3fd8:	8741                	srai	a4,a4,0x10
    3fda:	02f747b3          	div	a5,a4,a5
    3fde:	18d5d063          	bge	a1,a3,415e <_Z19update_mouse_inputsv+0x2ce>
    3fe2:	65c1                	lui	a1,0x10
    3fe4:	f8158593          	addi	a1,a1,-127 # ff81 <_ZL5arrow+0x9c9>
    3fe8:	6721                	lui	a4,0x8
    3fea:	b6675603          	lhu	a2,-1178(a4) # 7b66 <x_count>
    3fee:	f8100693          	li	a3,-127
    3ff2:	95b2                	add	a1,a1,a2
    3ff4:	05c2                	slli	a1,a1,0x10
    3ff6:	81c1                	srli	a1,a1,0x10
    3ff8:	b6b71323          	sh	a1,-1178(a4)
    3ffc:	1ed7c163          	blt	a5,a3,41de <_Z19update_mouse_inputsv+0x34e>
    4000:	01079693          	slli	a3,a5,0x10
    4004:	86c1                	srai	a3,a3,0x10
    4006:	07f00713          	li	a4,127
    400a:	00d75463          	bge	a4,a3,4012 <_Z19update_mouse_inputsv+0x182>
    400e:	07f00793          	li	a5,127
    4012:	07c2                	slli	a5,a5,0x10
    4014:	83c1                	srli	a5,a5,0x10
    4016:	64a1                	lui	s1,0x8
    4018:	b644d703          	lhu	a4,-1180(s1) # 7b64 <y_count>
    401c:	0ff5f593          	zext.b	a1,a1
    4020:	450d                	li	a0,3
    4022:	97ba                	add	a5,a5,a4
    4024:	b6f49223          	sh	a5,-1180(s1)
    4028:	4dc010ef          	jal	ra,5504 <_Z16HPS_spi_uio_cmd8hh>
    402c:	b644c583          	lbu	a1,-1180(s1)
    4030:	4511                	li	a0,4
    4032:	4d2010ef          	jal	ra,5504 <_Z16HPS_spi_uio_cmd8hh>
    4036:	f3c02583          	lw	a1,-196(zero) # ffffff3c <MEM_SIZE+0xfffdff3c>
    403a:	4509                	li	a0,2
    403c:	81c1                	srli	a1,a1,0x10
    403e:	899d                	andi	a1,a1,7
    4040:	4c4010ef          	jal	ra,5504 <_Z16HPS_spi_uio_cmd8hh>
    4044:	f2c02783          	lw	a5,-212(zero) # ffffff2c <MEM_SIZE+0xfffdff2c>
    4048:	40f2                	lw	ra,28(sp)
    404a:	44d2                	lw	s1,20(sp)
    404c:	07c2                	slli	a5,a5,0x10
    404e:	83c1                	srli	a5,a5,0x10
    4050:	b6f42423          	sw	a5,-1176(s0)
    4054:	4462                	lw	s0,24(sp)
    4056:	4942                	lw	s2,16(sp)
    4058:	49b2                	lw	s3,12(sp)
    405a:	6105                	addi	sp,sp,32
    405c:	8082                	ret
    405e:	f3002703          	lw	a4,-208(zero) # ffffff30 <MEM_SIZE+0xfffdff30>
    4062:	f3002703          	lw	a4,-208(zero) # ffffff30 <MEM_SIZE+0xfffdff30>
    4066:	f3002703          	lw	a4,-208(zero) # ffffff30 <MEM_SIZE+0xfffdff30>
    406a:	f3002683          	lw	a3,-208(zero) # ffffff30 <MEM_SIZE+0xfffdff30>
    406e:	64a1                	lui	s1,0x8
    4070:	07c2                	slli	a5,a5,0x10
    4072:	82a1                	srli	a3,a3,0x8
    4074:	0ff77713          	zext.b	a4,a4
    4078:	06f00613          	li	a2,111
    407c:	b6649583          	lh	a1,-1178(s1) # 7b66 <x_count>
    4080:	0ff6f693          	zext.b	a3,a3
    4084:	83c1                	srli	a5,a5,0x10
    4086:	08e65c63          	bge	a2,a4,411e <_Z19update_mouse_inputsv+0x28e>
    408a:	09000613          	li	a2,144
    408e:	00e65e63          	bge	a2,a4,40aa <_Z19update_mouse_inputsv+0x21a>
    4092:	08000613          	li	a2,128
    4096:	40e60733          	sub	a4,a2,a4
    409a:	02e78733          	mul	a4,a5,a4
    409e:	8319                	srli	a4,a4,0x6
    40a0:	40e58733          	sub	a4,a1,a4
    40a4:	01071593          	slli	a1,a4,0x10
    40a8:	85c1                	srai	a1,a1,0x10
    40aa:	6421                	lui	s0,0x8
    40ac:	b6b49323          	sh	a1,-1178(s1)
    40b0:	06f00713          	li	a4,111
    40b4:	b6441603          	lh	a2,-1180(s0) # 7b64 <y_count>
    40b8:	08d74563          	blt	a4,a3,4142 <_Z19update_mouse_inputsv+0x2b2>
    40bc:	f8068693          	addi	a3,a3,-128
    40c0:	02d787b3          	mul	a5,a5,a3
    40c4:	8399                	srli	a5,a5,0x6
    40c6:	963e                	add	a2,a2,a5
    40c8:	0642                	slli	a2,a2,0x10
    40ca:	8641                	srai	a2,a2,0x10
    40cc:	651d                	lui	a0,0x7
    40ce:	b9850513          	addi	a0,a0,-1128 # 6b98 <_ZL18osdKeyboardlocater+0x554>
    40d2:	b6c41223          	sh	a2,-1180(s0)
    40d6:	30d010ef          	jal	ra,5be2 <riscprintff_>
    40da:	b664c583          	lbu	a1,-1178(s1)
    40de:	b585                	j	3f3e <_Z19update_mouse_inputsv+0xae>
    40e0:	67a1                	lui	a5,0x8
    40e2:	b60780a3          	sb	zero,-1183(a5) # 7b61 <mouse_enabled_press_old>
    40e6:	287010ef          	jal	ra,5b6c <_Z10OsdDisablev>
    40ea:	bbe1                	j	3ec2 <_Z19update_mouse_inputsv+0x32>
    40ec:	95be                	add	a1,a1,a5
    40ee:	05c2                	slli	a1,a1,0x10
    40f0:	85c1                	srai	a1,a1,0x10
    40f2:	b6b49323          	sh	a1,-1178(s1)
    40f6:	b591                	j	3f3a <_Z19update_mouse_inputsv+0xaa>
    40f8:	f2002583          	lw	a1,-224(zero) # ffffff20 <MEM_SIZE+0xfffdff20>
    40fc:	4509                	li	a0,2
    40fe:	81a1                	srli	a1,a1,0x8
    4100:	898d                	andi	a1,a1,3
    4102:	402010ef          	jal	ra,5504 <_Z16HPS_spi_uio_cmd8hh>
    4106:	f5402783          	lw	a5,-172(zero) # ffffff54 <MEM_SIZE+0xfffdff54>
    410a:	40f2                	lw	ra,28(sp)
    410c:	4462                	lw	s0,24(sp)
    410e:	9bbd                	andi	a5,a5,-17
    4110:	f4f02a23          	sw	a5,-172(zero) # ffffff54 <MEM_SIZE+0xfffdff54>
    4114:	44d2                	lw	s1,20(sp)
    4116:	4942                	lw	s2,16(sp)
    4118:	49b2                	lw	s3,12(sp)
    411a:	6105                	addi	sp,sp,32
    411c:	8082                	ret
    411e:	f8070713          	addi	a4,a4,-128
    4122:	02e78733          	mul	a4,a5,a4
    4126:	6421                	lui	s0,0x8
    4128:	b6441603          	lh	a2,-1180(s0) # 7b64 <y_count>
    412c:	8319                	srli	a4,a4,0x6
    412e:	972e                	add	a4,a4,a1
    4130:	01071593          	slli	a1,a4,0x10
    4134:	85c1                	srai	a1,a1,0x10
    4136:	b6b49323          	sh	a1,-1178(s1)
    413a:	06f00713          	li	a4,111
    413e:	f6d75fe3          	bge	a4,a3,40bc <_Z19update_mouse_inputsv+0x22c>
    4142:	09000713          	li	a4,144
    4146:	f8d753e3          	bge	a4,a3,40cc <_Z19update_mouse_inputsv+0x23c>
    414a:	08000713          	li	a4,128
    414e:	8f15                	sub	a4,a4,a3
    4150:	02e787b3          	mul	a5,a5,a4
    4154:	8399                	srli	a5,a5,0x6
    4156:	8e1d                	sub	a2,a2,a5
    4158:	0642                	slli	a2,a2,0x10
    415a:	8641                	srai	a2,a2,0x10
    415c:	bf85                	j	40cc <_Z19update_mouse_inputsv+0x23c>
    415e:	01059693          	slli	a3,a1,0x10
    4162:	86c1                	srai	a3,a3,0x10
    4164:	07f00713          	li	a4,127
    4168:	00d75463          	bge	a4,a3,4170 <_Z19update_mouse_inputsv+0x2e0>
    416c:	07f00593          	li	a1,127
    4170:	05c2                	slli	a1,a1,0x10
    4172:	81c1                	srli	a1,a1,0x10
    4174:	bd95                	j	3fe8 <_Z19update_mouse_inputsv+0x158>
    4176:	69a1                	lui	s3,0x8
    4178:	b639c783          	lbu	a5,-1181(s3) # 7b63 <mouse_enabled>
    417c:	4501                	li	a0,0
    417e:	0017c793          	xori	a5,a5,1
    4182:	b6f981a3          	sb	a5,-1181(s3)
    4186:	1ef010ef          	jal	ra,5b74 <_Z9OsdUpdatei>
    418a:	14b010ef          	jal	ra,5ad4 <_Z8OsdClearv>
    418e:	b639c783          	lbu	a5,-1181(s3)
    4192:	ebb1                	bnez	a5,41e6 <_Z19update_mouse_inputsv+0x356>
    4194:	f5402703          	lw	a4,-172(zero) # ffffff54 <MEM_SIZE+0xfffdff54>
    4198:	651d                	lui	a0,0x7
    419a:	4781                	li	a5,0
    419c:	9b3d                	andi	a4,a4,-17
    419e:	f4e02a23          	sw	a4,-172(zero) # ffffff54 <MEM_SIZE+0xfffdff54>
    41a2:	4681                	li	a3,0
    41a4:	02000713          	li	a4,32
    41a8:	4601                	li	a2,0
    41aa:	4581                	li	a1,0
    41ac:	b8850513          	addi	a0,a0,-1144 # 6b88 <_ZL18osdKeyboardlocater+0x544>
    41b0:	08f010ef          	jal	ra,5a3e <_Z8OsdWritePKchhcii>
    41b4:	4505                	li	a0,1
    41b6:	1bf010ef          	jal	ra,5b74 <_Z9OsdUpdatei>
    41ba:	11b010ef          	jal	ra,5ad4 <_Z8OsdClearv>
    41be:	4509                	li	a0,2
    41c0:	1b5010ef          	jal	ra,5b74 <_Z9OsdUpdatei>
    41c4:	111010ef          	jal	ra,5ad4 <_Z8OsdClearv>
    41c8:	b624c783          	lbu	a5,-1182(s1)
    41cc:	b6044703          	lbu	a4,-1184(s0)
    41d0:	b6f900a3          	sb	a5,-1183(s2)
    41d4:	ce0717e3          	bnez	a4,3ec2 <_Z19update_mouse_inputsv+0x32>
    41d8:	d8079fe3          	bnez	a5,3f76 <_Z19update_mouse_inputsv+0xe6>
    41dc:	b729                	j	40e6 <_Z19update_mouse_inputsv+0x256>
    41de:	67c1                	lui	a5,0x10
    41e0:	f8178793          	addi	a5,a5,-127 # ff81 <_ZL5arrow+0x9c9>
    41e4:	bd0d                	j	4016 <_Z19update_mouse_inputsv+0x186>
    41e6:	f5402803          	lw	a6,-172(zero) # ffffff54 <MEM_SIZE+0xfffdff54>
    41ea:	651d                	lui	a0,0x7
    41ec:	4781                	li	a5,0
    41ee:	01086813          	ori	a6,a6,16
    41f2:	02000713          	li	a4,32
    41f6:	4681                	li	a3,0
    41f8:	4601                	li	a2,0
    41fa:	4581                	li	a1,0
    41fc:	f5002a23          	sw	a6,-172(zero) # ffffff54 <MEM_SIZE+0xfffdff54>
    4200:	b7850513          	addi	a0,a0,-1160 # 6b78 <_ZL18osdKeyboardlocater+0x534>
    4204:	03b010ef          	jal	ra,5a3e <_Z8OsdWritePKchhcii>
    4208:	4501                	li	a0,0
    420a:	16b010ef          	jal	ra,5b74 <_Z9OsdUpdatei>
    420e:	0c7010ef          	jal	ra,5ad4 <_Z8OsdClearv>
    4212:	b74d                	j	41b4 <_Z19update_mouse_inputsv+0x324>

00004214 <_Z22update_keyboard_inputsv>:
    4214:	7139                	addi	sp,sp,-64
    4216:	dc22                	sw	s0,56(sp)
    4218:	d64e                	sw	s3,44(sp)
    421a:	d05a                	sw	s6,32(sp)
    421c:	643d                	lui	s0,0xf
    421e:	6b3d                	lui	s6,0xf
    4220:	699d                	lui	s3,0x7
    4222:	d84a                	sw	s2,48(sp)
    4224:	d452                	sw	s4,40(sp)
    4226:	d256                	sw	s5,36(sp)
    4228:	ce5e                	sw	s7,28(sp)
    422a:	de06                	sw	ra,60(sp)
    422c:	da26                	sw	s1,52(sp)
    422e:	c002                	sw	zero,0(sp)
    4230:	00011223          	sh	zero,4(sp)
    4234:	c402                	sw	zero,8(sp)
    4236:	00810913          	addi	s2,sp,8
    423a:	00e10b93          	addi	s7,sp,14
    423e:	8a0a                	mv	s4,sp
    4240:	5b0b0a93          	addi	s5,s6,1456 # f5b0 <keyboard_buffer>
    4244:	5b640413          	addi	s0,s0,1462 # f5b6 <Error>
    4248:	bc098993          	addi	s3,s3,-1088 # 6bc0 <_ZL13mapHidToAmiga>
    424c:	00011623          	sh	zero,12(sp)
    4250:	f3802783          	lw	a5,-200(zero) # ffffff38 <MEM_SIZE+0xfffdff38>
    4254:	5b0b4703          	lbu	a4,1456(s6)
    4258:	84d6                	mv	s1,s5
    425a:	83e1                	srli	a5,a5,0x18
    425c:	00f10423          	sb	a5,8(sp)
    4260:	f3802783          	lw	a5,-200(zero) # ffffff38 <MEM_SIZE+0xfffdff38>
    4264:	83c1                	srli	a5,a5,0x10
    4266:	00f104a3          	sb	a5,9(sp)
    426a:	f3802783          	lw	a5,-200(zero) # ffffff38 <MEM_SIZE+0xfffdff38>
    426e:	83a1                	srli	a5,a5,0x8
    4270:	00f10523          	sb	a5,10(sp)
    4274:	f3802783          	lw	a5,-200(zero) # ffffff38 <MEM_SIZE+0xfffdff38>
    4278:	00f105a3          	sb	a5,11(sp)
    427c:	f4802783          	lw	a5,-184(zero) # ffffff48 <MEM_SIZE+0xfffdff48>
    4280:	83a1                	srli	a5,a5,0x8
    4282:	00f10623          	sb	a5,12(sp)
    4286:	f4802783          	lw	a5,-184(zero) # ffffff48 <MEM_SIZE+0xfffdff48>
    428a:	00f106a3          	sb	a5,13(sp)
    428e:	00094683          	lbu	a3,0(s2)
    4292:	00e68c63          	beq	a3,a4,42aa <_Z22update_keyboard_inputsv+0x96>
    4296:	22068e63          	beqz	a3,44d2 <_Z22update_keyboard_inputsv+0x2be>
    429a:	87d6                	mv	a5,s5
    429c:	0785                	addi	a5,a5,1
    429e:	0e878f63          	beq	a5,s0,439c <_Z22update_keyboard_inputsv+0x188>
    42a2:	0007c703          	lbu	a4,0(a5)
    42a6:	fee69be3          	bne	a3,a4,429c <_Z22update_keyboard_inputsv+0x88>
    42aa:	00ea0023          	sb	a4,0(s4)
    42ae:	0905                	addi	s2,s2,1
    42b0:	0a05                	addi	s4,s4,1
    42b2:	f9791fe3          	bne	s2,s7,4250 <_Z22update_keyboard_inputsv+0x3c>
    42b6:	699d                	lui	s3,0x7
    42b8:	00610913          	addi	s2,sp,6
    42bc:	bc098993          	addi	s3,s3,-1088 # 6bc0 <_ZL13mapHidToAmiga>
    42c0:	0004c683          	lbu	a3,0(s1)
    42c4:	00014783          	lbu	a5,0(sp)
    42c8:	00d78b63          	beq	a5,a3,42de <_Z22update_keyboard_inputsv+0xca>
    42cc:	ca89                	beqz	a3,42de <_Z22update_keyboard_inputsv+0xca>
    42ce:	878a                	mv	a5,sp
    42d0:	0785                	addi	a5,a5,1
    42d2:	0d278f63          	beq	a5,s2,43b0 <_Z22update_keyboard_inputsv+0x19c>
    42d6:	0007c703          	lbu	a4,0(a5)
    42da:	fed71be3          	bne	a4,a3,42d0 <_Z22update_keyboard_inputsv+0xbc>
    42de:	0485                	addi	s1,s1,1
    42e0:	fe8490e3          	bne	s1,s0,42c0 <_Z22update_keyboard_inputsv+0xac>
    42e4:	4782                	lw	a5,0(sp)
    42e6:	00415603          	lhu	a2,4(sp)
    42ea:	6705                	lui	a4,0x1
    42ec:	00faa023          	sw	a5,0(s5)
    42f0:	f2802783          	lw	a5,-216(zero) # ffffff28 <MEM_SIZE+0xfffdff28>
    42f4:	f2802a03          	lw	s4,-216(zero) # ffffff28 <MEM_SIZE+0xfffdff28>
    42f8:	f2802983          	lw	s3,-216(zero) # ffffff28 <MEM_SIZE+0xfffdff28>
    42fc:	f2802903          	lw	s2,-216(zero) # ffffff28 <MEM_SIZE+0xfffdff28>
    4300:	f2802503          	lw	a0,-216(zero) # ffffff28 <MEM_SIZE+0xfffdff28>
    4304:	f2802403          	lw	s0,-216(zero) # ffffff28 <MEM_SIZE+0xfffdff28>
    4308:	f2802483          	lw	s1,-216(zero) # ffffff28 <MEM_SIZE+0xfffdff28>
    430c:	6811                	lui	a6,0x4
    430e:	00ca9223          	sh	a2,4(s5)
    4312:	80070593          	addi	a1,a4,-2048 # 800 <minimig_restart_first+0x62>
    4316:	66bd                	lui	a3,0xf
    4318:	010a7a33          	and	s4,s4,a6
    431c:	4007f793          	andi	a5,a5,1024
    4320:	6809                	lui	a6,0x2
    4322:	5ae6c603          	lbu	a2,1454(a3) # f5ae <MOD_LALT>
    4326:	2009f993          	andi	s3,s3,512
    432a:	01097933          	and	s2,s2,a6
    432e:	00b57ab3          	and	s5,a0,a1
    4332:	10047413          	andi	s0,s0,256
    4336:	8cf9                	and	s1,s1,a4
    4338:	0e078c63          	beqz	a5,4430 <_Z22update_keyboard_inputsv+0x21c>
    433c:	10060863          	beqz	a2,444c <_Z22update_keyboard_inputsv+0x238>
    4340:	67bd                	lui	a5,0xf
    4342:	5ad7c703          	lbu	a4,1453(a5) # f5ad <MOD_RALT>
    4346:	0c0a0c63          	beqz	s4,441e <_Z22update_keyboard_inputsv+0x20a>
    434a:	10070a63          	beqz	a4,445e <_Z22update_keyboard_inputsv+0x24a>
    434e:	67bd                	lui	a5,0xf
    4350:	5ac7c703          	lbu	a4,1452(a5) # f5ac <MOD_LSHIFT>
    4354:	0a098c63          	beqz	s3,440c <_Z22update_keyboard_inputsv+0x1f8>
    4358:	10070c63          	beqz	a4,4470 <_Z22update_keyboard_inputsv+0x25c>
    435c:	67bd                	lui	a5,0xf
    435e:	5ab7c703          	lbu	a4,1451(a5) # f5ab <MOD_RSHIFT>
    4362:	08090c63          	beqz	s2,43fa <_Z22update_keyboard_inputsv+0x1e6>
    4366:	10070e63          	beqz	a4,4482 <_Z22update_keyboard_inputsv+0x26e>
    436a:	67bd                	lui	a5,0xf
    436c:	5aa7c703          	lbu	a4,1450(a5) # f5aa <MOD_LWIN>
    4370:	8c45                	or	s0,s0,s1
    4372:	040a8b63          	beqz	s5,43c8 <_Z22update_keyboard_inputsv+0x1b4>
    4376:	10070f63          	beqz	a4,4494 <_Z22update_keyboard_inputsv+0x280>
    437a:	c411                	beqz	s0,4386 <_Z22update_keyboard_inputsv+0x172>
    437c:	67bd                	lui	a5,0xf
    437e:	5a97c703          	lbu	a4,1449(a5) # f5a9 <MOD_CTRL>
    4382:	14070163          	beqz	a4,44c4 <_Z22update_keyboard_inputsv+0x2b0>
    4386:	50f2                	lw	ra,60(sp)
    4388:	5462                	lw	s0,56(sp)
    438a:	54d2                	lw	s1,52(sp)
    438c:	5942                	lw	s2,48(sp)
    438e:	59b2                	lw	s3,44(sp)
    4390:	5a22                	lw	s4,40(sp)
    4392:	5a92                	lw	s5,36(sp)
    4394:	5b02                	lw	s6,32(sp)
    4396:	4bf2                	lw	s7,28(sp)
    4398:	6121                	addi	sp,sp,64
    439a:	8082                	ret
    439c:	00d987b3          	add	a5,s3,a3
    43a0:	0007c583          	lbu	a1,0(a5)
    43a4:	00da0023          	sb	a3,0(s4)
    43a8:	4515                	li	a0,5
    43aa:	15a010ef          	jal	ra,5504 <_Z16HPS_spi_uio_cmd8hh>
    43ae:	b701                	j	42ae <_Z22update_keyboard_inputsv+0x9a>
    43b0:	96ce                	add	a3,a3,s3
    43b2:	0006c583          	lbu	a1,0(a3)
    43b6:	4515                	li	a0,5
    43b8:	0485                	addi	s1,s1,1
    43ba:	0805e593          	ori	a1,a1,128
    43be:	146010ef          	jal	ra,5504 <_Z16HPS_spi_uio_cmd8hh>
    43c2:	ee849fe3          	bne	s1,s0,42c0 <_Z22update_keyboard_inputsv+0xac>
    43c6:	bf39                	j	42e4 <_Z22update_keyboard_inputsv+0xd0>
    43c8:	0e071163          	bnez	a4,44aa <_Z22update_keyboard_inputsv+0x296>
    43cc:	67bd                	lui	a5,0xf
    43ce:	5a97c703          	lbu	a4,1449(a5) # f5a9 <MOD_CTRL>
    43d2:	c82d                	beqz	s0,4444 <_Z22update_keyboard_inputsv+0x230>
    43d4:	0e070863          	beqz	a4,44c4 <_Z22update_keyboard_inputsv+0x2b0>
    43d8:	0e300593          	li	a1,227
    43dc:	4515                	li	a0,5
    43de:	5a0784a3          	sb	zero,1449(a5)
    43e2:	5462                	lw	s0,56(sp)
    43e4:	50f2                	lw	ra,60(sp)
    43e6:	54d2                	lw	s1,52(sp)
    43e8:	5942                	lw	s2,48(sp)
    43ea:	59b2                	lw	s3,44(sp)
    43ec:	5a22                	lw	s4,40(sp)
    43ee:	5a92                	lw	s5,36(sp)
    43f0:	5b02                	lw	s6,32(sp)
    43f2:	4bf2                	lw	s7,28(sp)
    43f4:	6121                	addi	sp,sp,64
    43f6:	10e0106f          	j	5504 <_Z16HPS_spi_uio_cmd8hh>
    43fa:	db25                	beqz	a4,436a <_Z22update_keyboard_inputsv+0x156>
    43fc:	0e100593          	li	a1,225
    4400:	4515                	li	a0,5
    4402:	5a0785a3          	sb	zero,1451(a5)
    4406:	0fe010ef          	jal	ra,5504 <_Z16HPS_spi_uio_cmd8hh>
    440a:	b785                	j	436a <_Z22update_keyboard_inputsv+0x156>
    440c:	db21                	beqz	a4,435c <_Z22update_keyboard_inputsv+0x148>
    440e:	0e000593          	li	a1,224
    4412:	4515                	li	a0,5
    4414:	5a078623          	sb	zero,1452(a5)
    4418:	0ec010ef          	jal	ra,5504 <_Z16HPS_spi_uio_cmd8hh>
    441c:	b781                	j	435c <_Z22update_keyboard_inputsv+0x148>
    441e:	db05                	beqz	a4,434e <_Z22update_keyboard_inputsv+0x13a>
    4420:	0e100593          	li	a1,225
    4424:	4515                	li	a0,5
    4426:	5a0786a3          	sb	zero,1453(a5)
    442a:	0da010ef          	jal	ra,5504 <_Z16HPS_spi_uio_cmd8hh>
    442e:	b705                	j	434e <_Z22update_keyboard_inputsv+0x13a>
    4430:	f00608e3          	beqz	a2,4340 <_Z22update_keyboard_inputsv+0x12c>
    4434:	0e400593          	li	a1,228
    4438:	4515                	li	a0,5
    443a:	5a068723          	sb	zero,1454(a3)
    443e:	0c6010ef          	jal	ra,5504 <_Z16HPS_spi_uio_cmd8hh>
    4442:	bdfd                	j	4340 <_Z22update_keyboard_inputsv+0x12c>
    4444:	5a97c703          	lbu	a4,1449(a5)
    4448:	df1d                	beqz	a4,4386 <_Z22update_keyboard_inputsv+0x172>
    444a:	b779                	j	43d8 <_Z22update_keyboard_inputsv+0x1c4>
    444c:	4785                	li	a5,1
    444e:	06400593          	li	a1,100
    4452:	4515                	li	a0,5
    4454:	5af68723          	sb	a5,1454(a3)
    4458:	0ac010ef          	jal	ra,5504 <_Z16HPS_spi_uio_cmd8hh>
    445c:	b5d5                	j	4340 <_Z22update_keyboard_inputsv+0x12c>
    445e:	4705                	li	a4,1
    4460:	06100593          	li	a1,97
    4464:	4515                	li	a0,5
    4466:	5ae786a3          	sb	a4,1453(a5)
    446a:	09a010ef          	jal	ra,5504 <_Z16HPS_spi_uio_cmd8hh>
    446e:	b5c5                	j	434e <_Z22update_keyboard_inputsv+0x13a>
    4470:	4705                	li	a4,1
    4472:	06000593          	li	a1,96
    4476:	4515                	li	a0,5
    4478:	5ae78623          	sb	a4,1452(a5)
    447c:	088010ef          	jal	ra,5504 <_Z16HPS_spi_uio_cmd8hh>
    4480:	bdf1                	j	435c <_Z22update_keyboard_inputsv+0x148>
    4482:	4705                	li	a4,1
    4484:	06100593          	li	a1,97
    4488:	4515                	li	a0,5
    448a:	5ae785a3          	sb	a4,1451(a5)
    448e:	076010ef          	jal	ra,5504 <_Z16HPS_spi_uio_cmd8hh>
    4492:	bde1                	j	436a <_Z22update_keyboard_inputsv+0x156>
    4494:	4705                	li	a4,1
    4496:	06600593          	li	a1,102
    449a:	4515                	li	a0,5
    449c:	5ae78523          	sb	a4,1450(a5)
    44a0:	064010ef          	jal	ra,5504 <_Z16HPS_spi_uio_cmd8hh>
    44a4:	ec041ce3          	bnez	s0,437c <_Z22update_keyboard_inputsv+0x168>
    44a8:	bdf9                	j	4386 <_Z22update_keyboard_inputsv+0x172>
    44aa:	0e600593          	li	a1,230
    44ae:	4515                	li	a0,5
    44b0:	5a078523          	sb	zero,1450(a5)
    44b4:	050010ef          	jal	ra,5504 <_Z16HPS_spi_uio_cmd8hh>
    44b8:	67bd                	lui	a5,0xf
    44ba:	d449                	beqz	s0,4444 <_Z22update_keyboard_inputsv+0x230>
    44bc:	5a97c703          	lbu	a4,1449(a5) # f5a9 <MOD_CTRL>
    44c0:	f0071ce3          	bnez	a4,43d8 <_Z22update_keyboard_inputsv+0x1c4>
    44c4:	4705                	li	a4,1
    44c6:	06300593          	li	a1,99
    44ca:	4515                	li	a0,5
    44cc:	5ae784a3          	sb	a4,1449(a5)
    44d0:	bf09                	j	43e2 <_Z22update_keyboard_inputsv+0x1ce>
    44d2:	4701                	li	a4,0
    44d4:	bbd9                	j	42aa <_Z22update_keyboard_inputsv+0x96>

000044d6 <_Z12input_updatev>:
    44d6:	1141                	addi	sp,sp,-16
    44d8:	c606                	sw	ra,12(sp)
    44da:	6fa010ef          	jal	ra,5bd4 <_Z22timer1Interrupts_resetv>
    44de:	f2802783          	lw	a5,-216(zero) # ffffff28 <MEM_SIZE+0xfffdff28>
    44e2:	4711                	li	a4,4
    44e4:	83f1                	srli	a5,a5,0x1c
    44e6:	02e78563          	beq	a5,a4,4510 <_Z12input_updatev+0x3a>
    44ea:	f1402783          	lw	a5,-236(zero) # ffffff14 <MEM_SIZE+0xfffdff14>
    44ee:	f1402703          	lw	a4,-236(zero) # ffffff14 <MEM_SIZE+0xfffdff14>
    44f2:	83e1                	srli	a5,a5,0x18
    44f4:	f8078793          	addi	a5,a5,-128
    44f8:	cb81                	beqz	a5,4508 <_Z12input_updatev+0x32>
    44fa:	8361                	srli	a4,a4,0x18
    44fc:	f6070713          	addi	a4,a4,-160
    4500:	c701                	beqz	a4,4508 <_Z12input_updatev+0x32>
    4502:	40b2                	lw	ra,12(sp)
    4504:	0141                	addi	sp,sp,16
    4506:	8082                	ret
    4508:	40b2                	lw	ra,12(sp)
    450a:	0141                	addi	sp,sp,16
    450c:	985ff06f          	j	3e90 <_Z19update_mouse_inputsv>
    4510:	d05ff0ef          	jal	ra,4214 <_Z22update_keyboard_inputsv>
    4514:	bfd9                	j	44ea <_Z12input_updatev+0x14>

00004516 <_Z11input_setupv>:
    4516:	4509                	li	a0,2
    4518:	6b60106f          	j	5bce <_Z22timer1Interrupts_setupm>

0000451c <_Z16input_reg_updatev>:
    451c:	f1402583          	lw	a1,-236(zero) # ffffff14 <MEM_SIZE+0xfffdff14>
    4520:	0f800513          	li	a0,248
    4524:	81f1                	srli	a1,a1,0x1c
    4526:	7df0006f          	j	5504 <_Z16HPS_spi_uio_cmd8hh>

0000452a <_Z14dataslot_readyv>:
    452a:	1141                	addi	sp,sp,-16
    452c:	c422                	sw	s0,8(sp)
    452e:	f9002403          	lw	s0,-112(zero) # ffffff90 <MEM_SIZE+0xfffdff90>
    4532:	c606                	sw	ra,12(sp)
    4534:	00747593          	andi	a1,s0,7
    4538:	e981                	bnez	a1,4548 <_Z14dataslot_readyv+0x1e>
    453a:	40b2                	lw	ra,12(sp)
    453c:	00345513          	srli	a0,s0,0x3
    4540:	4422                	lw	s0,8(sp)
    4542:	8905                	andi	a0,a0,1
    4544:	0141                	addi	sp,sp,16
    4546:	8082                	ret
    4548:	651d                	lui	a0,0x7
    454a:	cc050513          	addi	a0,a0,-832 # 6cc0 <_ZL13mapHidToAmiga+0x100>
    454e:	694010ef          	jal	ra,5be2 <riscprintff_>
    4552:	40b2                	lw	ra,12(sp)
    4554:	00345513          	srli	a0,s0,0x3
    4558:	4422                	lw	s0,8(sp)
    455a:	8905                	andi	a0,a0,1
    455c:	0141                	addi	sp,sp,16
    455e:	8082                	ret

00004560 <_Z13dataslot_sizet>:
    4560:	1141                	addi	sp,sp,-16
    4562:	85aa                	mv	a1,a0
    4564:	c422                	sw	s0,8(sp)
    4566:	842a                	mv	s0,a0
    4568:	651d                	lui	a0,0x7
    456a:	ce450513          	addi	a0,a0,-796 # 6ce4 <_ZL13mapHidToAmiga+0x124>
    456e:	c606                	sw	ra,12(sp)
    4570:	672010ef          	jal	ra,5be2 <riscprintff_>
    4574:	77c1                	lui	a5,0xffff0
    4576:	4581                	li	a1,0
    4578:	10200693          	li	a3,258
    457c:	a021                	j	4584 <_Z13dataslot_sizet+0x24>
    457e:	0589                	addi	a1,a1,2
    4580:	02d58c63          	beq	a1,a3,45b8 <_Z13dataslot_sizet+0x58>
    4584:	4398                	lw	a4,0(a5)
    4586:	07a1                	addi	a5,a5,8 # ffff0008 <MEM_SIZE+0xfffd0008>
    4588:	fe871be3          	bne	a4,s0,457e <_Z13dataslot_sizet+0x1e>
    458c:	00158413          	addi	s0,a1,1
    4590:	040a                	slli	s0,s0,0x2
    4592:	77c1                	lui	a5,0xffff0
    4594:	943e                	add	s0,s0,a5
    4596:	651d                	lui	a0,0x7
    4598:	cf850513          	addi	a0,a0,-776 # 6cf8 <_ZL13mapHidToAmiga+0x138>
    459c:	646010ef          	jal	ra,5be2 <riscprintff_>
    45a0:	4000                	lw	s0,0(s0)
    45a2:	651d                	lui	a0,0x7
    45a4:	d0c50513          	addi	a0,a0,-756 # 6d0c <_ZL13mapHidToAmiga+0x14c>
    45a8:	85a2                	mv	a1,s0
    45aa:	638010ef          	jal	ra,5be2 <riscprintff_>
    45ae:	40b2                	lw	ra,12(sp)
    45b0:	8522                	mv	a0,s0
    45b2:	4422                	lw	s0,8(sp)
    45b4:	0141                	addi	sp,sp,16
    45b6:	8082                	ret
    45b8:	7441                	lui	s0,0xffff0
    45ba:	0411                	addi	s0,s0,4 # ffff0004 <MEM_SIZE+0xfffd0004>
    45bc:	4581                	li	a1,0
    45be:	bfe1                	j	4596 <_Z13dataslot_sizet+0x36>

000045c0 <_Z13dataslot_readtmmm>:
    45c0:	1101                	addi	sp,sp,-32
    45c2:	ca26                	sw	s1,20(sp)
    45c4:	c84a                	sw	s2,16(sp)
    45c6:	c64e                	sw	s3,12(sp)
    45c8:	c452                	sw	s4,8(sp)
    45ca:	ce06                	sw	ra,28(sp)
    45cc:	cc22                	sw	s0,24(sp)
    45ce:	f8a02023          	sw	a0,-128(zero) # ffffff80 <MEM_SIZE+0xfffdff80>
    45d2:	f8b02223          	sw	a1,-124(zero) # ffffff84 <MEM_SIZE+0xfffdff84>
    45d6:	f8d02423          	sw	a3,-120(zero) # ffffff88 <MEM_SIZE+0xfffdff88>
    45da:	f8c02623          	sw	a2,-116(zero) # ffffff8c <MEM_SIZE+0xfffdff8c>
    45de:	4785                	li	a5,1
    45e0:	f8f02823          	sw	a5,-112(zero) # ffffff90 <MEM_SIZE+0xfffdff90>
    45e4:	8a36                	mv	s4,a3
    45e6:	f8402683          	lw	a3,-124(zero) # ffffff84 <MEM_SIZE+0xfffdff84>
    45ea:	8732                	mv	a4,a2
    45ec:	84aa                	mv	s1,a0
    45ee:	892e                	mv	s2,a1
    45f0:	89b2                	mv	s3,a2
    45f2:	862e                	mv	a2,a1
    45f4:	85aa                	mv	a1,a0
    45f6:	651d                	lui	a0,0x7
    45f8:	87d2                	mv	a5,s4
    45fa:	d2050513          	addi	a0,a0,-736 # 6d20 <_ZL13mapHidToAmiga+0x160>
    45fe:	5e4010ef          	jal	ra,5be2 <riscprintff_>
    4602:	009898b7          	lui	a7,0x989
    4606:	68088893          	addi	a7,a7,1664 # 989680 <MEM_SIZE+0x969680>
    460a:	a029                	j	4614 <_Z13dataslot_readtmmm+0x54>
    460c:	04081063          	bnez	a6,464c <_Z13dataslot_readtmmm+0x8c>
    4610:	02088e63          	beqz	a7,464c <_Z13dataslot_readtmmm+0x8c>
    4614:	f9002803          	lw	a6,-112(zero) # ffffff90 <MEM_SIZE+0xfffdff90>
    4618:	18fd                	addi	a7,a7,-1
    461a:	00787413          	andi	s0,a6,7
    461e:	01887813          	andi	a6,a6,24
    4622:	d46d                	beqz	s0,460c <_Z13dataslot_readtmmm+0x4c>
    4624:	651d                	lui	a0,0x7
    4626:	8752                	mv	a4,s4
    4628:	86ce                	mv	a3,s3
    462a:	864a                	mv	a2,s2
    462c:	85a6                	mv	a1,s1
    462e:	d4850513          	addi	a0,a0,-696 # 6d48 <_ZL13mapHidToAmiga+0x188>
    4632:	5b0010ef          	jal	ra,5be2 <riscprintff_>
    4636:	40f2                	lw	ra,28(sp)
    4638:	8522                	mv	a0,s0
    463a:	4462                	lw	s0,24(sp)
    463c:	44d2                	lw	s1,20(sp)
    463e:	4942                	lw	s2,16(sp)
    4640:	49b2                	lw	s3,12(sp)
    4642:	4a22                	lw	s4,8(sp)
    4644:	6105                	addi	sp,sp,32
    4646:	8082                	ret
    4648:	02081463          	bnez	a6,4670 <_Z13dataslot_readtmmm+0xb0>
    464c:	f9002803          	lw	a6,-112(zero) # ffffff90 <MEM_SIZE+0xfffdff90>
    4650:	00787413          	andi	s0,a6,7
    4654:	00887813          	andi	a6,a6,8
    4658:	d865                	beqz	s0,4648 <_Z13dataslot_readtmmm+0x88>
    465a:	651d                	lui	a0,0x7
    465c:	87a2                	mv	a5,s0
    465e:	8752                	mv	a4,s4
    4660:	86ce                	mv	a3,s3
    4662:	864a                	mv	a2,s2
    4664:	85a6                	mv	a1,s1
    4666:	dac50513          	addi	a0,a0,-596 # 6dac <_ZL13mapHidToAmiga+0x1ec>
    466a:	578010ef          	jal	ra,5be2 <riscprintff_>
    466e:	b7e1                	j	4636 <_Z13dataslot_readtmmm+0x76>
    4670:	651d                	lui	a0,0x7
    4672:	e1c50513          	addi	a0,a0,-484 # 6e1c <_ZL13mapHidToAmiga+0x25c>
    4676:	56c010ef          	jal	ra,5be2 <riscprintff_>
    467a:	bf75                	j	4636 <_Z13dataslot_readtmmm+0x76>

0000467c <_Z14dataslot_writetmmm>:
    467c:	1101                	addi	sp,sp,-32
    467e:	ca26                	sw	s1,20(sp)
    4680:	c84a                	sw	s2,16(sp)
    4682:	c64e                	sw	s3,12(sp)
    4684:	c452                	sw	s4,8(sp)
    4686:	ce06                	sw	ra,28(sp)
    4688:	cc22                	sw	s0,24(sp)
    468a:	f8a02023          	sw	a0,-128(zero) # ffffff80 <MEM_SIZE+0xfffdff80>
    468e:	f8b02223          	sw	a1,-124(zero) # ffffff84 <MEM_SIZE+0xfffdff84>
    4692:	f8d02423          	sw	a3,-120(zero) # ffffff88 <MEM_SIZE+0xfffdff88>
    4696:	84aa                	mv	s1,a0
    4698:	892e                	mv	s2,a1
    469a:	8a36                	mv	s4,a3
    469c:	89b2                	mv	s3,a2
    469e:	f8c02623          	sw	a2,-116(zero) # ffffff8c <MEM_SIZE+0xfffdff8c>
    46a2:	4789                	li	a5,2
    46a4:	8736                	mv	a4,a3
    46a6:	86b2                	mv	a3,a2
    46a8:	862e                	mv	a2,a1
    46aa:	85aa                	mv	a1,a0
    46ac:	651d                	lui	a0,0x7
    46ae:	f8f02823          	sw	a5,-112(zero) # ffffff90 <MEM_SIZE+0xfffdff90>
    46b2:	e3050513          	addi	a0,a0,-464 # 6e30 <_ZL13mapHidToAmiga+0x270>
    46b6:	52c010ef          	jal	ra,5be2 <riscprintff_>
    46ba:	a011                	j	46be <_Z14dataslot_writetmmm+0x42>
    46bc:	e385                	bnez	a5,46dc <_Z14dataslot_writetmmm+0x60>
    46be:	f9002783          	lw	a5,-112(zero) # ffffff90 <MEM_SIZE+0xfffdff90>
    46c2:	0077f413          	andi	s0,a5,7
    46c6:	8ba1                	andi	a5,a5,8
    46c8:	d875                	beqz	s0,46bc <_Z14dataslot_writetmmm+0x40>
    46ca:	651d                	lui	a0,0x7
    46cc:	8752                	mv	a4,s4
    46ce:	86ce                	mv	a3,s3
    46d0:	864a                	mv	a2,s2
    46d2:	85a6                	mv	a1,s1
    46d4:	e5450513          	addi	a0,a0,-428 # 6e54 <_ZL13mapHidToAmiga+0x294>
    46d8:	50a010ef          	jal	ra,5be2 <riscprintff_>
    46dc:	40f2                	lw	ra,28(sp)
    46de:	8522                	mv	a0,s0
    46e0:	4462                	lw	s0,24(sp)
    46e2:	44d2                	lw	s1,20(sp)
    46e4:	4942                	lw	s2,16(sp)
    46e6:	49b2                	lw	s3,12(sp)
    46e8:	4a22                	lw	s4,8(sp)
    46ea:	6105                	addi	sp,sp,32
    46ec:	8082                	ret

000046ee <_Z22dataslot_write_lba_settmm>:
    46ee:	f8a02023          	sw	a0,-128(zero) # ffffff80 <MEM_SIZE+0xfffdff80>
    46f2:	f8b02223          	sw	a1,-124(zero) # ffffff84 <MEM_SIZE+0xfffdff84>
    46f6:	0626                	slli	a2,a2,0x9
    46f8:	f8c02623          	sw	a2,-116(zero) # ffffff8c <MEM_SIZE+0xfffdff8c>
    46fc:	4785                	li	a5,1
    46fe:	f8f02423          	sw	a5,-120(zero) # ffffff88 <MEM_SIZE+0xfffdff88>
    4702:	4789                	li	a5,2
    4704:	f8f02823          	sw	a5,-112(zero) # ffffff90 <MEM_SIZE+0xfffdff90>
    4708:	a011                	j	470c <_Z22dataslot_write_lba_settmm+0x1e>
    470a:	e799                	bnez	a5,4718 <_Z22dataslot_write_lba_settmm+0x2a>
    470c:	f9002783          	lw	a5,-112(zero) # ffffff90 <MEM_SIZE+0xfffdff90>
    4710:	0077f513          	andi	a0,a5,7
    4714:	8ba1                	andi	a5,a5,8
    4716:	d975                	beqz	a0,470a <_Z22dataslot_write_lba_settmm+0x1c>
    4718:	8082                	ret

0000471a <_Z18dataslot_write_lbamb>:
    471a:	f8a02423          	sw	a0,-120(zero) # ffffff88 <MEM_SIZE+0xfffdff88>
    471e:	4789                	li	a5,2
    4720:	872a                	mv	a4,a0
    4722:	f8f02823          	sw	a5,-112(zero) # ffffff90 <MEM_SIZE+0xfffdff90>
    4726:	a011                	j	472a <_Z18dataslot_write_lbamb+0x10>
    4728:	eb81                	bnez	a5,4738 <_Z18dataslot_write_lbamb+0x1e>
    472a:	f9002783          	lw	a5,-112(zero) # ffffff90 <MEM_SIZE+0xfffdff90>
    472e:	0077f513          	andi	a0,a5,7
    4732:	8ba1                	andi	a5,a5,8
    4734:	d975                	beqz	a0,4728 <_Z18dataslot_write_lbamb+0xe>
    4736:	8082                	ret
    4738:	f8c02783          	lw	a5,-116(zero) # ffffff8c <MEM_SIZE+0xfffdff8c>
    473c:	97ba                	add	a5,a5,a4
    473e:	f8f02623          	sw	a5,-116(zero) # ffffff8c <MEM_SIZE+0xfffdff8c>
    4742:	f8402783          	lw	a5,-124(zero) # ffffff84 <MEM_SIZE+0xfffdff84>
    4746:	d9e5                	beqz	a1,4736 <_Z18dataslot_write_lbamb+0x1c>
    4748:	973e                	add	a4,a4,a5
    474a:	f8e02223          	sw	a4,-124(zero) # ffffff84 <MEM_SIZE+0xfffdff84>
    474e:	8082                	ret

00004750 <_Z7GetDatav>:
    4750:	7139                	addi	sp,sp,-64
    4752:	dc22                	sw	s0,56(sp)
    4754:	d256                	sw	s5,36(sp)
    4756:	6411                	lui	s0,0x4
    4758:	6abd                	lui	s5,0xf
    475a:	da26                	sw	s1,52(sp)
    475c:	de06                	sw	ra,60(sp)
    475e:	d84a                	sw	s2,48(sp)
    4760:	d64e                	sw	s3,44(sp)
    4762:	d452                	sw	s4,40(sp)
    4764:	d05a                	sw	s6,32(sp)
    4766:	ce5e                	sw	s7,28(sp)
    4768:	cc62                	sw	s8,24(sp)
    476a:	ca66                	sw	s9,20(sp)
    476c:	c86a                	sw	s10,16(sp)
    476e:	c66e                	sw	s11,12(sp)
    4770:	5a0a8b23          	sb	zero,1462(s5) # f5b6 <Error>
    4774:	147d                	addi	s0,s0,-1 # 3fff <_Z19update_mouse_inputsv+0x16f>
    4776:	20300493          	li	s1,515
    477a:	a015                	j	479e <_Z7GetDatav+0x4e>
    477c:	515000ef          	jal	ra,5490 <_Z12HPS_fpga_spit>
    4780:	4501                	li	a0,0
    4782:	50f000ef          	jal	ra,5490 <_Z12HPS_fpga_spit>
    4786:	008577b3          	and	a5,a0,s0
    478a:	07c2                	slli	a5,a5,0x10
    478c:	0542                	slli	a0,a0,0x10
    478e:	83c1                	srli	a5,a5,0x10
    4790:	8541                	srai	a0,a0,0x10
    4792:	04f4e263          	bltu	s1,a5,47d6 <_Z7GetDatav+0x86>
    4796:	18055163          	bgez	a0,4918 <_Z7GetDatav+0x1c8>
    479a:	47d000ef          	jal	ra,5416 <_Z15HPS_DisableFpgav>
    479e:	459000ef          	jal	ra,53f6 <_Z14HPS_EnableFpgav>
    47a2:	4501                	li	a0,0
    47a4:	4ed000ef          	jal	ra,5490 <_Z12HPS_fpga_spit>
    47a8:	87aa                	mv	a5,a0
    47aa:	83a1                	srli	a5,a5,0x8
    47ac:	8b89                	andi	a5,a5,2
    47ae:	4501                	li	a0,0
    47b0:	f7f1                	bnez	a5,477c <_Z7GetDatav+0x2c>
    47b2:	465000ef          	jal	ra,5416 <_Z15HPS_DisableFpgav>
    47b6:	4501                	li	a0,0
    47b8:	50f2                	lw	ra,60(sp)
    47ba:	5462                	lw	s0,56(sp)
    47bc:	54d2                	lw	s1,52(sp)
    47be:	5942                	lw	s2,48(sp)
    47c0:	59b2                	lw	s3,44(sp)
    47c2:	5a22                	lw	s4,40(sp)
    47c4:	5a92                	lw	s5,36(sp)
    47c6:	5b02                	lw	s6,32(sp)
    47c8:	4bf2                	lw	s7,28(sp)
    47ca:	4c62                	lw	s8,24(sp)
    47cc:	4cd2                	lw	s9,20(sp)
    47ce:	4d42                	lw	s10,16(sp)
    47d0:	4db2                	lw	s11,12(sp)
    47d2:	6121                	addi	sp,sp,64
    47d4:	8082                	ret
    47d6:	4501                	li	a0,0
    47d8:	4b9000ef          	jal	ra,5490 <_Z12HPS_fpga_spit>
    47dc:	00755a13          	srli	s4,a0,0x7
    47e0:	4501                	li	a0,0
    47e2:	4af000ef          	jal	ra,5490 <_Z12HPS_fpga_spit>
    47e6:	8baa                	mv	s7,a0
    47e8:	4501                	li	a0,0
    47ea:	4a7000ef          	jal	ra,5490 <_Z12HPS_fpga_spit>
    47ee:	6795                	lui	a5,0x5
    47f0:	55578793          	addi	a5,a5,1365 # 5555 <_Z16HPS_spi_uio_cmd8hh+0x51>
    47f4:	00f57b33          	and	s6,a0,a5
    47f8:	008b5793          	srli	a5,s6,0x8
    47fc:	0aaa7a13          	andi	s4,s4,170
    4800:	4501                	li	a0,0
    4802:	6db9                	lui	s11,0xe
    4804:	00fa6a33          	or	s4,s4,a5
    4808:	69b9                	lui	s3,0xe
    480a:	487000ef          	jal	ra,5490 <_Z12HPS_fpga_spit>
    480e:	ba8d8413          	addi	s0,s11,-1112 # dba8 <sector_bufferfdd0>
    4812:	8c2a                	mv	s8,a0
    4814:	4c81                	li	s9,0
    4816:	4d01                	li	s10,0
    4818:	4901                	li	s2,0
    481a:	4481                	li	s1,0
    481c:	ba8d8d93          	addi	s11,s11,-1112
    4820:	da898993          	addi	s3,s3,-600 # dda8 <sector_bufferfdd1>
    4824:	4501                	li	a0,0
    4826:	46b000ef          	jal	ra,5490 <_Z12HPS_fpga_spit>
    482a:	0ff57613          	zext.b	a2,a0
    482e:	8121                	srli	a0,a0,0x8
    4830:	00161713          	slli	a4,a2,0x1
    4834:	0542                	slli	a0,a0,0x10
    4836:	8141                	srli	a0,a0,0x10
    4838:	faa77713          	andi	a4,a4,-86
    483c:	00151693          	slli	a3,a0,0x1
    4840:	0ff77713          	zext.b	a4,a4
    4844:	0aa6f693          	andi	a3,a3,170
    4848:	0722                	slli	a4,a4,0x8
    484a:	8f55                	or	a4,a4,a3
    484c:	00a4c7b3          	xor	a5,s1,a0
    4850:	00ed9023          	sh	a4,0(s11)
    4854:	4501                	li	a0,0
    4856:	0ff7f493          	zext.b	s1,a5
    485a:	00c94933          	xor	s2,s2,a2
    485e:	433000ef          	jal	ra,5490 <_Z12HPS_fpga_spit>
    4862:	0ff57613          	zext.b	a2,a0
    4866:	8121                	srli	a0,a0,0x8
    4868:	00161713          	slli	a4,a2,0x1
    486c:	01051793          	slli	a5,a0,0x10
    4870:	83c1                	srli	a5,a5,0x10
    4872:	faa77713          	andi	a4,a4,-86
    4876:	00179693          	slli	a3,a5,0x1
    487a:	0ff77713          	zext.b	a4,a4
    487e:	0722                	slli	a4,a4,0x8
    4880:	0aa6f693          	andi	a3,a3,170
    4884:	0d91                	addi	s11,s11,4
    4886:	8f55                	or	a4,a4,a3
    4888:	00fd47b3          	xor	a5,s10,a5
    488c:	feed9f23          	sh	a4,-2(s11)
    4890:	0ff7fd13          	zext.b	s10,a5
    4894:	01964cb3          	xor	s9,a2,s9
    4898:	f93d96e3          	bne	s11,s3,4824 <_Z7GetDatav+0xd4>
    489c:	4501                	li	a0,0
    489e:	3f3000ef          	jal	ra,5490 <_Z12HPS_fpga_spit>
    48a2:	00144683          	lbu	a3,1(s0)
    48a6:	00044703          	lbu	a4,0(s0)
    48aa:	0ff57613          	zext.b	a2,a0
    48ae:	8121                	srli	a0,a0,0x8
    48b0:	0ff57793          	zext.b	a5,a0
    48b4:	05567513          	andi	a0,a2,85
    48b8:	0557f593          	andi	a1,a5,85
    48bc:	8ec9                	or	a3,a3,a0
    48be:	06a2                	slli	a3,a3,0x8
    48c0:	8f4d                	or	a4,a4,a1
    48c2:	8f55                	or	a4,a4,a3
    48c4:	00e41023          	sh	a4,0(s0)
    48c8:	4501                	li	a0,0
    48ca:	0411                	addi	s0,s0,4
    48cc:	8cbd                	xor	s1,s1,a5
    48ce:	00c94933          	xor	s2,s2,a2
    48d2:	3bf000ef          	jal	ra,5490 <_Z12HPS_fpga_spit>
    48d6:	fff44703          	lbu	a4,-1(s0)
    48da:	0ff57693          	zext.b	a3,a0
    48de:	ffe44783          	lbu	a5,-2(s0)
    48e2:	8121                	srli	a0,a0,0x8
    48e4:	0ff57513          	zext.b	a0,a0
    48e8:	0556f593          	andi	a1,a3,85
    48ec:	05557613          	andi	a2,a0,85
    48f0:	8f4d                	or	a4,a4,a1
    48f2:	0722                	slli	a4,a4,0x8
    48f4:	8fd1                	or	a5,a5,a2
    48f6:	8fd9                	or	a5,a5,a4
    48f8:	fef41f23          	sh	a5,-2(s0)
    48fc:	00ad4d33          	xor	s10,s10,a0
    4900:	0196ccb3          	xor	s9,a3,s9
    4904:	f9341ce3          	bne	s0,s3,489c <_Z7GetDatav+0x14c>
    4908:	0554f493          	andi	s1,s1,85
    490c:	01448a63          	beq	s1,s4,4920 <_Z7GetDatav+0x1d0>
    4910:	47f5                	li	a5,29
    4912:	5afa8b23          	sb	a5,1462(s5)
    4916:	bd71                	j	47b2 <_Z7GetDatav+0x62>
    4918:	47f1                	li	a5,28
    491a:	5afa8b23          	sb	a5,1462(s5)
    491e:	bd51                	j	47b2 <_Z7GetDatav+0x62>
    4920:	0ffb7b13          	zext.b	s6,s6
    4924:	05597913          	andi	s2,s2,85
    4928:	ff2b14e3          	bne	s6,s2,4910 <_Z7GetDatav+0x1c0>
    492c:	776d                	lui	a4,0xffffb
    492e:	aaa70713          	addi	a4,a4,-1366 # ffffaaaa <MEM_SIZE+0xfffdaaaa>
    4932:	001b9793          	slli	a5,s7,0x1
    4936:	8ff9                	and	a5,a5,a4
    4938:	6715                	lui	a4,0x5
    493a:	55570713          	addi	a4,a4,1365 # 5555 <_Z16HPS_spi_uio_cmd8hh+0x51>
    493e:	07c2                	slli	a5,a5,0x10
    4940:	83c1                	srli	a5,a5,0x10
    4942:	00ec7c33          	and	s8,s8,a4
    4946:	00fc6733          	or	a4,s8,a5
    494a:	055d7d13          	andi	s10,s10,85
    494e:	8321                	srli	a4,a4,0x8
    4950:	fced10e3          	bne	s10,a4,4910 <_Z7GetDatav+0x1c0>
    4954:	0ff7f793          	zext.b	a5,a5
    4958:	0187e7b3          	or	a5,a5,s8
    495c:	055cfc93          	andi	s9,s9,85
    4960:	0ff7f793          	zext.b	a5,a5
    4964:	fafc96e3          	bne	s9,a5,4910 <_Z7GetDatav+0x1c0>
    4968:	2af000ef          	jal	ra,5416 <_Z15HPS_DisableFpgav>
    496c:	4505                	li	a0,1
    496e:	b5a9                	j	47b8 <_Z7GetDatav+0x68>

00004970 <_Z8FindSyncP7adfTYPE>:
    4970:	1101                	addi	sp,sp,-32
    4972:	ca26                	sw	s1,20(sp)
    4974:	c84a                	sw	s2,16(sp)
    4976:	6491                	lui	s1,0x4
    4978:	c452                	sw	s4,8(sp)
    497a:	6941                	lui	s2,0x10
    497c:	7a71                	lui	s4,0xffffc
    497e:	c64e                	sw	s3,12(sp)
    4980:	c256                	sw	s5,4(sp)
    4982:	ce06                	sw	ra,28(sp)
    4984:	fff48a93          	addi	s5,s1,-1 # 3fff <_Z19update_mouse_inputsv+0x16f>
    4988:	cc22                	sw	s0,24(sp)
    498a:	89aa                	mv	s3,a0
    498c:	1a7d                	addi	s4,s4,-1 # ffffbfff <MEM_SIZE+0xfffdbfff>
    498e:	197d                	addi	s2,s2,-1 # ffff <_ZL5arrow+0xa47>
    4990:	48948493          	addi	s1,s1,1161
    4994:	263000ef          	jal	ra,53f6 <_Z14HPS_EnableFpgav>
    4998:	4501                	li	a0,0
    499a:	2f7000ef          	jal	ra,5490 <_Z12HPS_fpga_spit>
    499e:	00855793          	srli	a5,a0,0x8
    49a2:	8b89                	andi	a5,a5,2
    49a4:	0ff57513          	zext.b	a0,a0
    49a8:	cfb1                	beqz	a5,4a04 <_Z8FindSyncP7adfTYPE+0x94>
    49aa:	0119c783          	lbu	a5,17(s3)
    49ae:	04a79b63          	bne	a5,a0,4a04 <_Z8FindSyncP7adfTYPE+0x94>
    49b2:	4501                	li	a0,0
    49b4:	2dd000ef          	jal	ra,5490 <_Z12HPS_fpga_spit>
    49b8:	4501                	li	a0,0
    49ba:	2d7000ef          	jal	ra,5490 <_Z12HPS_fpga_spit>
    49be:	014577b3          	and	a5,a0,s4
    49c2:	07c2                	slli	a5,a5,0x10
    49c4:	83c1                	srli	a5,a5,0x10
    49c6:	cf9d                	beqz	a5,4a04 <_Z8FindSyncP7adfTYPE+0x94>
    49c8:	01557433          	and	s0,a0,s5
    49cc:	0442                	slli	s0,s0,0x10
    49ce:	8041                	srli	s0,s0,0x10
    49d0:	a029                	j	49da <_Z8FindSyncP7adfTYPE+0x6a>
    49d2:	2bf000ef          	jal	ra,5490 <_Z12HPS_fpga_spit>
    49d6:	00950b63          	beq	a0,s1,49ec <_Z8FindSyncP7adfTYPE+0x7c>
    49da:	147d                	addi	s0,s0,-1
    49dc:	0442                	slli	s0,s0,0x10
    49de:	8041                	srli	s0,s0,0x10
    49e0:	4501                	li	a0,0
    49e2:	ff2418e3          	bne	s0,s2,49d2 <_Z8FindSyncP7adfTYPE+0x62>
    49e6:	231000ef          	jal	ra,5416 <_Z15HPS_DisableFpgav>
    49ea:	b76d                	j	4994 <_Z8FindSyncP7adfTYPE+0x24>
    49ec:	22b000ef          	jal	ra,5416 <_Z15HPS_DisableFpgav>
    49f0:	4505                	li	a0,1
    49f2:	40f2                	lw	ra,28(sp)
    49f4:	4462                	lw	s0,24(sp)
    49f6:	44d2                	lw	s1,20(sp)
    49f8:	4942                	lw	s2,16(sp)
    49fa:	49b2                	lw	s3,12(sp)
    49fc:	4a22                	lw	s4,8(sp)
    49fe:	4a92                	lw	s5,4(sp)
    4a00:	6105                	addi	sp,sp,32
    4a02:	8082                	ret
    4a04:	213000ef          	jal	ra,5416 <_Z15HPS_DisableFpgav>
    4a08:	4501                	li	a0,0
    4a0a:	b7e5                	j	49f2 <_Z8FindSyncP7adfTYPE+0x82>

00004a0c <_Z9GetHeaderPhS_>:
    4a0c:	715d                	addi	sp,sp,-80
    4a0e:	c4a2                	sw	s0,72(sp)
    4a10:	dc52                	sw	s4,56(sp)
    4a12:	6411                	lui	s0,0x4
    4a14:	6a3d                	lui	s4,0xf
    4a16:	c2a6                	sw	s1,68(sp)
    4a18:	c0ca                	sw	s2,64(sp)
    4a1a:	de4e                	sw	s3,60(sp)
    4a1c:	c686                	sw	ra,76(sp)
    4a1e:	da56                	sw	s5,52(sp)
    4a20:	d85a                	sw	s6,48(sp)
    4a22:	d65e                	sw	s7,44(sp)
    4a24:	d462                	sw	s8,40(sp)
    4a26:	d266                	sw	s9,36(sp)
    4a28:	d06a                	sw	s10,32(sp)
    4a2a:	ce6e                	sw	s11,28(sp)
    4a2c:	89aa                	mv	s3,a0
    4a2e:	892e                	mv	s2,a1
    4a30:	5a0a0b23          	sb	zero,1462(s4) # f5b6 <Error>
    4a34:	f0040413          	addi	s0,s0,-256 # 3f00 <_Z19update_mouse_inputsv+0x70>
    4a38:	44e1                	li	s1,24
    4a3a:	a02d                	j	4a64 <_Z9GetHeaderPhS_+0x58>
    4a3c:	255000ef          	jal	ra,5490 <_Z12HPS_fpga_spit>
    4a40:	4501                	li	a0,0
    4a42:	24f000ef          	jal	ra,5490 <_Z12HPS_fpga_spit>
    4a46:	008577b3          	and	a5,a0,s0
    4a4a:	07c2                	slli	a5,a5,0x10
    4a4c:	0ff57713          	zext.b	a4,a0
    4a50:	83c1                	srli	a5,a5,0x10
    4a52:	0542                	slli	a0,a0,0x10
    4a54:	8541                	srai	a0,a0,0x10
    4a56:	e3b9                	bnez	a5,4a9c <_Z9GetHeaderPhS_+0x90>
    4a58:	04e4e263          	bltu	s1,a4,4a9c <_Z9GetHeaderPhS_+0x90>
    4a5c:	06055163          	bgez	a0,4abe <_Z9GetHeaderPhS_+0xb2>
    4a60:	1b7000ef          	jal	ra,5416 <_Z15HPS_DisableFpgav>
    4a64:	193000ef          	jal	ra,53f6 <_Z14HPS_EnableFpgav>
    4a68:	4501                	li	a0,0
    4a6a:	227000ef          	jal	ra,5490 <_Z12HPS_fpga_spit>
    4a6e:	87aa                	mv	a5,a0
    4a70:	83a1                	srli	a5,a5,0x8
    4a72:	8b89                	andi	a5,a5,2
    4a74:	4501                	li	a0,0
    4a76:	f3f9                	bnez	a5,4a3c <_Z9GetHeaderPhS_+0x30>
    4a78:	19f000ef          	jal	ra,5416 <_Z15HPS_DisableFpgav>
    4a7c:	4501                	li	a0,0
    4a7e:	40b6                	lw	ra,76(sp)
    4a80:	4426                	lw	s0,72(sp)
    4a82:	4496                	lw	s1,68(sp)
    4a84:	4906                	lw	s2,64(sp)
    4a86:	59f2                	lw	s3,60(sp)
    4a88:	5a62                	lw	s4,56(sp)
    4a8a:	5ad2                	lw	s5,52(sp)
    4a8c:	5b42                	lw	s6,48(sp)
    4a8e:	5bb2                	lw	s7,44(sp)
    4a90:	5c22                	lw	s8,40(sp)
    4a92:	5c92                	lw	s9,36(sp)
    4a94:	5d02                	lw	s10,32(sp)
    4a96:	4df2                	lw	s11,28(sp)
    4a98:	6161                	addi	sp,sp,80
    4a9a:	8082                	ret
    4a9c:	4501                	li	a0,0
    4a9e:	1f3000ef          	jal	ra,5490 <_Z12HPS_fpga_spit>
    4aa2:	6791                	lui	a5,0x4
    4aa4:	48978793          	addi	a5,a5,1161 # 4489 <_Z22update_keyboard_inputsv+0x275>
    4aa8:	00f50f63          	beq	a0,a5,4ac6 <_Z9GetHeaderPhS_+0xba>
    4aac:	651d                	lui	a0,0x7
    4aae:	47d5                	li	a5,21
    4ab0:	eb450513          	addi	a0,a0,-332 # 6eb4 <_ZL13mapHidToAmiga+0x2f4>
    4ab4:	5afa0b23          	sb	a5,1462(s4)
    4ab8:	12a010ef          	jal	ra,5be2 <riscprintff_>
    4abc:	bf75                	j	4a78 <_Z9GetHeaderPhS_+0x6c>
    4abe:	47d1                	li	a5,20
    4ac0:	5afa0b23          	sb	a5,1462(s4)
    4ac4:	bf55                	j	4a78 <_Z9GetHeaderPhS_+0x6c>
    4ac6:	4501                	li	a0,0
    4ac8:	1c9000ef          	jal	ra,5490 <_Z12HPS_fpga_spit>
    4acc:	00855d13          	srli	s10,a0,0x8
    4ad0:	0ff57b93          	zext.b	s7,a0
    4ad4:	4501                	li	a0,0
    4ad6:	1bb000ef          	jal	ra,5490 <_Z12HPS_fpga_spit>
    4ada:	00855d93          	srli	s11,a0,0x8
    4ade:	0dc2                	slli	s11,s11,0x10
    4ae0:	010ddd93          	srli	s11,s11,0x10
    4ae4:	001d9593          	slli	a1,s11,0x1
    4ae8:	0ff57b13          	zext.b	s6,a0
    4aec:	0d42                	slli	s10,s10,0x10
    4aee:	4501                	li	a0,0
    4af0:	0aa5fa93          	andi	s5,a1,170
    4af4:	010d5d13          	srli	s10,s10,0x10
    4af8:	199000ef          	jal	ra,5490 <_Z12HPS_fpga_spit>
    4afc:	00855493          	srli	s1,a0,0x8
    4b00:	87aa                	mv	a5,a0
    4b02:	001d1c13          	slli	s8,s10,0x1
    4b06:	001b9413          	slli	s0,s7,0x1
    4b0a:	0554f693          	andi	a3,s1,85
    4b0e:	05557713          	andi	a4,a0,85
    4b12:	0ff7f793          	zext.b	a5,a5
    4b16:	0aac7c13          	andi	s8,s8,170
    4b1a:	0aa47413          	andi	s0,s0,170
    4b1e:	4501                	li	a0,0
    4b20:	00dc6c33          	or	s8,s8,a3
    4b24:	c63e                	sw	a5,12(sp)
    4b26:	8c59                	or	s0,s0,a4
    4b28:	169000ef          	jal	ra,5490 <_Z12HPS_fpga_spit>
    4b2c:	00855793          	srli	a5,a0,0x8
    4b30:	001b1c93          	slli	s9,s6,0x1
    4b34:	0557f693          	andi	a3,a5,85
    4b38:	05557713          	andi	a4,a0,85
    4b3c:	0aacfc93          	andi	s9,s9,170
    4b40:	0ff00613          	li	a2,255
    4b44:	0ff4f493          	zext.b	s1,s1
    4b48:	0ff7f793          	zext.b	a5,a5
    4b4c:	00dae6b3          	or	a3,s5,a3
    4b50:	0ff57513          	zext.b	a0,a0
    4b54:	00ece733          	or	a4,s9,a4
    4b58:	00cc0d63          	beq	s8,a2,4b72 <_Z9GetHeaderPhS_+0x166>
    4b5c:	47d9                	li	a5,22
    4b5e:	5afa0b23          	sb	a5,1462(s4)
    4b62:	651d                	lui	a0,0x7
    4b64:	8622                	mv	a2,s0
    4b66:	85e2                	mv	a1,s8
    4b68:	ed450513          	addi	a0,a0,-300 # 6ed4 <_ZL13mapHidToAmiga+0x314>
    4b6c:	076010ef          	jal	ra,5be2 <riscprintff_>
    4b70:	b721                	j	4a78 <_Z9GetHeaderPhS_+0x6c>
    4b72:	09f00613          	li	a2,159
    4b76:	00866963          	bltu	a2,s0,4b88 <_Z9GetHeaderPhS_+0x17c>
    4b7a:	4629                	li	a2,10
    4b7c:	00d67a63          	bgeu	a2,a3,4b90 <_Z9GetHeaderPhS_+0x184>
    4b80:	47e1                	li	a5,24
    4b82:	5afa0b23          	sb	a5,1462(s4)
    4b86:	bff1                	j	4b62 <_Z9GetHeaderPhS_+0x156>
    4b88:	47dd                	li	a5,23
    4b8a:	5afa0b23          	sb	a5,1462(s4)
    4b8e:	bfd1                	j	4b62 <_Z9GetHeaderPhS_+0x156>
    4b90:	fff70593          	addi	a1,a4,-1
    4b94:	0ff5f593          	zext.b	a1,a1
    4b98:	00b67663          	bgeu	a2,a1,4ba4 <_Z9GetHeaderPhS_+0x198>
    4b9c:	47e5                	li	a5,25
    4b9e:	5afa0b23          	sb	a5,1462(s4)
    4ba2:	b7c1                	j	4b62 <_Z9GetHeaderPhS_+0x156>
    4ba4:	5b6a4603          	lbu	a2,1462(s4)
    4ba8:	fe4d                	bnez	a2,4b62 <_Z9GetHeaderPhS_+0x156>
    4baa:	4732                	lw	a4,12(sp)
    4bac:	00898023          	sb	s0,0(s3)
    4bb0:	01a4c4b3          	xor	s1,s1,s10
    4bb4:	01b7c7b3          	xor	a5,a5,s11
    4bb8:	0ff4f993          	zext.b	s3,s1
    4bbc:	0ff7fa93          	zext.b	s5,a5
    4bc0:	00ebc4b3          	xor	s1,s7,a4
    4bc4:	00ab4b33          	xor	s6,s6,a0
    4bc8:	00d90023          	sb	a3,0(s2)
    4bcc:	4421                	li	s0,8
    4bce:	4501                	li	a0,0
    4bd0:	0c1000ef          	jal	ra,5490 <_Z12HPS_fpga_spit>
    4bd4:	00855713          	srli	a4,a0,0x8
    4bd8:	00a4c7b3          	xor	a5,s1,a0
    4bdc:	00e9c733          	xor	a4,s3,a4
    4be0:	4501                	li	a0,0
    4be2:	0ff7f493          	zext.b	s1,a5
    4be6:	0ff77993          	zext.b	s3,a4
    4bea:	0a7000ef          	jal	ra,5490 <_Z12HPS_fpga_spit>
    4bee:	00855793          	srli	a5,a0,0x8
    4bf2:	147d                	addi	s0,s0,-1
    4bf4:	00fac7b3          	xor	a5,s5,a5
    4bf8:	00ab4533          	xor	a0,s6,a0
    4bfc:	0ff47413          	zext.b	s0,s0
    4c00:	0ff7fa93          	zext.b	s5,a5
    4c04:	0ff57b13          	zext.b	s6,a0
    4c08:	f079                	bnez	s0,4bce <_Z9GetHeaderPhS_+0x1c2>
    4c0a:	4501                	li	a0,0
    4c0c:	085000ef          	jal	ra,5490 <_Z12HPS_fpga_spit>
    4c10:	00151413          	slli	s0,a0,0x1
    4c14:	7ced                	lui	s9,0xffffb
    4c16:	4501                	li	a0,0
    4c18:	079000ef          	jal	ra,5490 <_Z12HPS_fpga_spit>
    4c1c:	aaac8c93          	addi	s9,s9,-1366 # ffffaaaa <MEM_SIZE+0xfffdaaaa>
    4c20:	01947433          	and	s0,s0,s9
    4c24:	892a                	mv	s2,a0
    4c26:	6c15                	lui	s8,0x5
    4c28:	4501                	li	a0,0
    4c2a:	067000ef          	jal	ra,5490 <_Z12HPS_fpga_spit>
    4c2e:	0442                	slli	s0,s0,0x10
    4c30:	555c0c13          	addi	s8,s8,1365 # 5555 <_Z16HPS_spi_uio_cmd8hh+0x51>
    4c34:	01857bb3          	and	s7,a0,s8
    4c38:	8041                	srli	s0,s0,0x10
    4c3a:	008bd793          	srli	a5,s7,0x8
    4c3e:	00845d13          	srli	s10,s0,0x8
    4c42:	4501                	li	a0,0
    4c44:	00fd6d33          	or	s10,s10,a5
    4c48:	0559f993          	andi	s3,s3,85
    4c4c:	045000ef          	jal	ra,5490 <_Z12HPS_fpga_spit>
    4c50:	01a98663          	beq	s3,s10,4c5c <_Z9GetHeaderPhS_+0x250>
    4c54:	47e9                	li	a5,26
    4c56:	5afa0b23          	sb	a5,1462(s4)
    4c5a:	bd39                	j	4a78 <_Z9GetHeaderPhS_+0x6c>
    4c5c:	0ff47793          	zext.b	a5,s0
    4c60:	0177e7b3          	or	a5,a5,s7
    4c64:	0554f493          	andi	s1,s1,85
    4c68:	0ff7f793          	zext.b	a5,a5
    4c6c:	fef494e3          	bne	s1,a5,4c54 <_Z9GetHeaderPhS_+0x248>
    4c70:	00191793          	slli	a5,s2,0x1
    4c74:	0197f7b3          	and	a5,a5,s9
    4c78:	07c2                	slli	a5,a5,0x10
    4c7a:	83c1                	srli	a5,a5,0x10
    4c7c:	01857533          	and	a0,a0,s8
    4c80:	00f56733          	or	a4,a0,a5
    4c84:	055afa93          	andi	s5,s5,85
    4c88:	8321                	srli	a4,a4,0x8
    4c8a:	fcea95e3          	bne	s5,a4,4c54 <_Z9GetHeaderPhS_+0x248>
    4c8e:	0ff7f793          	zext.b	a5,a5
    4c92:	8fc9                	or	a5,a5,a0
    4c94:	055b7b13          	andi	s6,s6,85
    4c98:	0ff7f793          	zext.b	a5,a5
    4c9c:	fafb1ce3          	bne	s6,a5,4c54 <_Z9GetHeaderPhS_+0x248>
    4ca0:	776000ef          	jal	ra,5416 <_Z15HPS_DisableFpgav>
    4ca4:	4505                	li	a0,1
    4ca6:	bbe1                	j	4a7e <_Z9GetHeaderPhS_+0x72>

00004ca8 <_Z10SendSectorPhhhhh>:
    4ca8:	1101                	addi	sp,sp,-32
    4caa:	c256                	sw	s5,4(sp)
    4cac:	6aad                	lui	s5,0xb
    4cae:	ca26                	sw	s1,20(sp)
    4cb0:	84aa                	mv	s1,a0
    4cb2:	aaaa8513          	addi	a0,s5,-1366 # aaaa <sector_buffer+0x2f2a>
    4cb6:	ce06                	sw	ra,28(sp)
    4cb8:	cc22                	sw	s0,24(sp)
    4cba:	c84a                	sw	s2,16(sp)
    4cbc:	8436                	mv	s0,a3
    4cbe:	892e                	mv	s2,a1
    4cc0:	c64e                	sw	s3,12(sp)
    4cc2:	c452                	sw	s4,8(sp)
    4cc4:	89b2                	mv	s3,a2
    4cc6:	8a3a                	mv	s4,a4
    4cc8:	c05a                	sw	s6,0(sp)
    4cca:	7c6000ef          	jal	ra,5490 <_Z12HPS_fpga_spit>
    4cce:	aaaa8513          	addi	a0,s5,-1366
    4cd2:	0422                	slli	s0,s0,0x8
    4cd4:	7bc000ef          	jal	ra,5490 <_Z12HPS_fpga_spit>
    4cd8:	01446433          	or	s0,s0,s4
    4cdc:	8522                	mv	a0,s0
    4cde:	7b2000ef          	jal	ra,5490 <_Z12HPS_fpga_spit>
    4ce2:	8522                	mv	a0,s0
    4ce4:	7ac000ef          	jal	ra,5490 <_Z12HPS_fpga_spit>
    4ce8:	0019da13          	srli	s4,s3,0x1
    4cec:	6b15                	lui	s6,0x5
    4cee:	500b0b13          	addi	s6,s6,1280 # 5500 <_Z7spi32_wm+0x24>
    4cf2:	055a7513          	andi	a0,s4,85
    4cf6:	01656533          	or	a0,a0,s6
    4cfa:	796000ef          	jal	ra,5490 <_Z12HPS_fpga_spit>
    4cfe:	47ad                	li	a5,11
    4d00:	00195a93          	srli	s5,s2,0x1
    4d04:	412787b3          	sub	a5,a5,s2
    4d08:	8785                	srai	a5,a5,0x1
    4d0a:	055af713          	andi	a4,s5,85
    4d0e:	0557f513          	andi	a0,a5,85
    4d12:	0722                	slli	a4,a4,0x8
    4d14:	8d59                	or	a0,a0,a4
    4d16:	0ff7f413          	zext.b	s0,a5
    4d1a:	776000ef          	jal	ra,5490 <_Z12HPS_fpga_spit>
    4d1e:	0559f513          	andi	a0,s3,85
    4d22:	01656533          	or	a0,a0,s6
    4d26:	76a000ef          	jal	ra,5490 <_Z12HPS_fpga_spit>
    4d2a:	47ad                	li	a5,11
    4d2c:	412787b3          	sub	a5,a5,s2
    4d30:	0ff7f793          	zext.b	a5,a5
    4d34:	05597713          	andi	a4,s2,85
    4d38:	0722                	slli	a4,a4,0x8
    4d3a:	0557f513          	andi	a0,a5,85
    4d3e:	013a4a33          	xor	s4,s4,s3
    4d42:	8fa1                	xor	a5,a5,s0
    4d44:	012acab3          	xor	s5,s5,s2
    4d48:	8d59                	or	a0,a0,a4
    4d4a:	6b2d                	lui	s6,0xb
    4d4c:	0557f993          	andi	s3,a5,85
    4d50:	055a7a13          	andi	s4,s4,85
    4d54:	055afa93          	andi	s5,s5,85
    4d58:	4441                	li	s0,16
    4d5a:	736000ef          	jal	ra,5490 <_Z12HPS_fpga_spit>
    4d5e:	aaab0913          	addi	s2,s6,-1366 # aaaa <sector_buffer+0x2f2a>
    4d62:	147d                	addi	s0,s0,-1
    4d64:	0442                	slli	s0,s0,0x10
    4d66:	854a                	mv	a0,s2
    4d68:	8041                	srli	s0,s0,0x10
    4d6a:	726000ef          	jal	ra,5490 <_Z12HPS_fpga_spit>
    4d6e:	f875                	bnez	s0,4d62 <_Z10SendSectorPhhhhh+0xba>
    4d70:	aaab0513          	addi	a0,s6,-1366
    4d74:	71c000ef          	jal	ra,5490 <_Z12HPS_fpga_spit>
    4d78:	aaab0513          	addi	a0,s6,-1366
    4d7c:	714000ef          	jal	ra,5490 <_Z12HPS_fpga_spit>
    4d80:	faaa6513          	ori	a0,s4,-86
    4d84:	77ed                	lui	a5,0xffffb
    4d86:	a0078793          	addi	a5,a5,-1536 # ffffaa00 <MEM_SIZE+0xfffdaa00>
    4d8a:	0ff57513          	zext.b	a0,a0
    4d8e:	8d5d                	or	a0,a0,a5
    4d90:	0542                	slli	a0,a0,0x10
    4d92:	8141                	srli	a0,a0,0x10
    4d94:	6fc000ef          	jal	ra,5490 <_Z12HPS_fpga_spit>
    4d98:	0aaae793          	ori	a5,s5,170
    4d9c:	07a2                	slli	a5,a5,0x8
    4d9e:	0aa9e513          	ori	a0,s3,170
    4da2:	8d5d                	or	a0,a0,a5
    4da4:	6ec000ef          	jal	ra,5490 <_Z12HPS_fpga_spit>
    4da8:	20048413          	addi	s0,s1,512
    4dac:	87a6                	mv	a5,s1
    4dae:	4a01                	li	s4,0
    4db0:	4901                	li	s2,0
    4db2:	4a81                	li	s5,0
    4db4:	4981                	li	s3,0
    4db6:	0007c583          	lbu	a1,0(a5)
    4dba:	0017c603          	lbu	a2,1(a5)
    4dbe:	0027c683          	lbu	a3,2(a5)
    4dc2:	0037c703          	lbu	a4,3(a5)
    4dc6:	0015d513          	srli	a0,a1,0x1
    4dca:	8da9                	xor	a1,a1,a0
    4dcc:	00165893          	srli	a7,a2,0x1
    4dd0:	0016d813          	srli	a6,a3,0x1
    4dd4:	00175513          	srli	a0,a4,0x1
    4dd8:	01164633          	xor	a2,a2,a7
    4ddc:	0106c6b3          	xor	a3,a3,a6
    4de0:	8f29                	xor	a4,a4,a0
    4de2:	0791                	addi	a5,a5,4
    4de4:	00b9c9b3          	xor	s3,s3,a1
    4de8:	00cacab3          	xor	s5,s5,a2
    4dec:	00d94933          	xor	s2,s2,a3
    4df0:	00ea4a33          	xor	s4,s4,a4
    4df4:	fc8791e3          	bne	a5,s0,4db6 <_Z10SendSectorPhhhhh+0x10e>
    4df8:	6b2d                	lui	s6,0xb
    4dfa:	aaab0513          	addi	a0,s6,-1366 # aaaa <sector_buffer+0x2f2a>
    4dfe:	692000ef          	jal	ra,5490 <_Z12HPS_fpga_spit>
    4e02:	aaab0513          	addi	a0,s6,-1366
    4e06:	68a000ef          	jal	ra,5490 <_Z12HPS_fpga_spit>
    4e0a:	faa9e793          	ori	a5,s3,-86
    4e0e:	0ff7f793          	zext.b	a5,a5
    4e12:	faaae513          	ori	a0,s5,-86
    4e16:	07a2                	slli	a5,a5,0x8
    4e18:	0ff57513          	zext.b	a0,a0
    4e1c:	8d5d                	or	a0,a0,a5
    4e1e:	672000ef          	jal	ra,5490 <_Z12HPS_fpga_spit>
    4e22:	faa96793          	ori	a5,s2,-86
    4e26:	0ff7f793          	zext.b	a5,a5
    4e2a:	faaa6513          	ori	a0,s4,-86
    4e2e:	07a2                	slli	a5,a5,0x8
    4e30:	0ff57513          	zext.b	a0,a0
    4e34:	8d5d                	or	a0,a0,a5
    4e36:	65a000ef          	jal	ra,5490 <_Z12HPS_fpga_spit>
    4e3a:	8926                	mv	s2,s1
    4e3c:	00094783          	lbu	a5,0(s2)
    4e40:	0909                	addi	s2,s2,2
    4e42:	fff94503          	lbu	a0,-1(s2)
    4e46:	8385                	srli	a5,a5,0x1
    4e48:	0aa7e793          	ori	a5,a5,170
    4e4c:	8105                	srli	a0,a0,0x1
    4e4e:	07a2                	slli	a5,a5,0x8
    4e50:	0aa56513          	ori	a0,a0,170
    4e54:	8d5d                	or	a0,a0,a5
    4e56:	2d2d                	jal	5490 <_Z12HPS_fpga_spit>
    4e58:	fe8912e3          	bne	s2,s0,4e3c <_Z10SendSectorPhhhhh+0x194>
    4e5c:	0004c783          	lbu	a5,0(s1)
    4e60:	0489                	addi	s1,s1,2
    4e62:	fff4c503          	lbu	a0,-1(s1)
    4e66:	0aa7e793          	ori	a5,a5,170
    4e6a:	07a2                	slli	a5,a5,0x8
    4e6c:	0aa56513          	ori	a0,a0,170
    4e70:	8d5d                	or	a0,a0,a5
    4e72:	2d39                	jal	5490 <_Z12HPS_fpga_spit>
    4e74:	fe8494e3          	bne	s1,s0,4e5c <_Z10SendSectorPhhhhh+0x1b4>
    4e78:	40f2                	lw	ra,28(sp)
    4e7a:	4462                	lw	s0,24(sp)
    4e7c:	44d2                	lw	s1,20(sp)
    4e7e:	4942                	lw	s2,16(sp)
    4e80:	49b2                	lw	s3,12(sp)
    4e82:	4a22                	lw	s4,8(sp)
    4e84:	4a92                	lw	s5,4(sp)
    4e86:	4b02                	lw	s6,0(sp)
    4e88:	6105                	addi	sp,sp,32
    4e8a:	8082                	ret

00004e8c <_Z10WriteTrackP7adfTYPE>:
    4e8c:	7179                	addi	sp,sp,-48
    4e8e:	d422                	sw	s0,40(sp)
    4e90:	d04a                	sw	s2,32(sp)
    4e92:	ce4e                	sw	s3,28(sp)
    4e94:	cc52                	sw	s4,24(sp)
    4e96:	ca56                	sw	s5,20(sp)
    4e98:	d606                	sw	ra,44(sp)
    4e9a:	d226                	sw	s1,36(sp)
    4e9c:	01154783          	lbu	a5,17(a0)
    4ea0:	6ab9                	lui	s5,0xe
    4ea2:	842a                	mv	s0,a0
    4ea4:	00179993          	slli	s3,a5,0x1
    4ea8:	99be                	add	s3,s3,a5
    4eaa:	098a                	slli	s3,s3,0x2
    4eac:	40f989b3          	sub	s3,s3,a5
    4eb0:	57fd                	li	a5,-1
    4eb2:	00f50923          	sb	a5,18(a0)
    4eb6:	693d                	lui	s2,0xf
    4eb8:	4a6d                	li	s4,27
    4eba:	ba8a8a93          	addi	s5,s5,-1112 # dba8 <sector_bufferfdd0>
    4ebe:	8522                	mv	a0,s0
    4ec0:	ab1ff0ef          	jal	ra,4970 <_Z8FindSyncP7adfTYPE>
    4ec4:	c121                	beqz	a0,4f04 <_Z10WriteTrackP7adfTYPE+0x78>
    4ec6:	00f10593          	addi	a1,sp,15
    4eca:	00e10513          	addi	a0,sp,14
    4ece:	b3fff0ef          	jal	ra,4a0c <_Z9GetHeaderPhS_>
    4ed2:	84ca                	mv	s1,s2
    4ed4:	c92d                	beqz	a0,4f46 <_Z10WriteTrackP7adfTYPE+0xba>
    4ed6:	01144703          	lbu	a4,17(s0)
    4eda:	00e14783          	lbu	a5,14(sp)
    4ede:	02f70c63          	beq	a4,a5,4f16 <_Z10WriteTrackP7adfTYPE+0x8a>
    4ee2:	5b490b23          	sb	s4,1462(s2) # f5b6 <Error>
    4ee6:	45ed                	li	a1,27
    4ee8:	651d                	lui	a0,0x7
    4eea:	f1450513          	addi	a0,a0,-236 # 6f14 <_ZL13mapHidToAmiga+0x354>
    4eee:	4f5000ef          	jal	ra,5be2 <riscprintff_>
    4ef2:	651d                	lui	a0,0x7
    4ef4:	f2c50513          	addi	a0,a0,-212 # 6f2c <_ZL13mapHidToAmiga+0x36c>
    4ef8:	4eb000ef          	jal	ra,5be2 <riscprintff_>
    4efc:	8522                	mv	a0,s0
    4efe:	a73ff0ef          	jal	ra,4970 <_Z8FindSyncP7adfTYPE>
    4f02:	f171                	bnez	a0,4ec6 <_Z10WriteTrackP7adfTYPE+0x3a>
    4f04:	50b2                	lw	ra,44(sp)
    4f06:	5422                	lw	s0,40(sp)
    4f08:	5492                	lw	s1,36(sp)
    4f0a:	5902                	lw	s2,32(sp)
    4f0c:	49f2                	lw	s3,28(sp)
    4f0e:	4a62                	lw	s4,24(sp)
    4f10:	4ad2                	lw	s5,20(sp)
    4f12:	6145                	addi	sp,sp,48
    4f14:	8082                	ret
    4f16:	e14ff0ef          	jal	ra,452a <_Z14dataslot_readyv>
    4f1a:	dd75                	beqz	a0,4f16 <_Z10WriteTrackP7adfTYPE+0x8a>
    4f1c:	00f14603          	lbu	a2,15(sp)
    4f20:	00045503          	lhu	a0,0(s0)
    4f24:	85d6                	mv	a1,s5
    4f26:	964e                	add	a2,a2,s3
    4f28:	fc6ff0ef          	jal	ra,46ee <_Z22dataslot_write_lba_settmm>
    4f2c:	825ff0ef          	jal	ra,4750 <_Z7GetDatav>
    4f30:	c911                	beqz	a0,4f44 <_Z10WriteTrackP7adfTYPE+0xb8>
    4f32:	00844783          	lbu	a5,8(s0)
    4f36:	8bc1                	andi	a5,a5,16
    4f38:	cf81                	beqz	a5,4f50 <_Z10WriteTrackP7adfTYPE+0xc4>
    4f3a:	4581                	li	a1,0
    4f3c:	20000513          	li	a0,512
    4f40:	fdaff0ef          	jal	ra,471a <_Z18dataslot_write_lbamb>
    4f44:	64bd                	lui	s1,0xf
    4f46:	5b64c783          	lbu	a5,1462(s1) # f5b6 <Error>
    4f4a:	dbb5                	beqz	a5,4ebe <_Z10WriteTrackP7adfTYPE+0x32>
    4f4c:	85be                	mv	a1,a5
    4f4e:	bf69                	j	4ee8 <_Z10WriteTrackP7adfTYPE+0x5c>
    4f50:	651d                	lui	a0,0x7
    4f52:	47f9                	li	a5,30
    4f54:	64bd                	lui	s1,0xf
    4f56:	ef050513          	addi	a0,a0,-272 # 6ef0 <_ZL13mapHidToAmiga+0x330>
    4f5a:	5af48b23          	sb	a5,1462(s1) # f5b6 <Error>
    4f5e:	485000ef          	jal	ra,5be2 <riscprintff_>
    4f62:	5b64c783          	lbu	a5,1462(s1)
    4f66:	dfa1                	beqz	a5,4ebe <_Z10WriteTrackP7adfTYPE+0x32>
    4f68:	b7d5                	j	4f4c <_Z10WriteTrackP7adfTYPE+0xc0>

00004f6a <_Z9ReadTrackP7adfTYPE>:
    4f6a:	715d                	addi	sp,sp,-80
    4f6c:	c2a6                	sw	s1,68(sp)
    4f6e:	c686                	sw	ra,76(sp)
    4f70:	c4a2                	sw	s0,72(sp)
    4f72:	c0ca                	sw	s2,64(sp)
    4f74:	de4e                	sw	s3,60(sp)
    4f76:	dc52                	sw	s4,56(sp)
    4f78:	da56                	sw	s5,52(sp)
    4f7a:	d85a                	sw	s6,48(sp)
    4f7c:	d65e                	sw	s7,44(sp)
    4f7e:	d462                	sw	s8,40(sp)
    4f80:	d266                	sw	s9,36(sp)
    4f82:	d06a                	sw	s10,32(sp)
    4f84:	ce6e                	sw	s11,28(sp)
    4f86:	01154583          	lbu	a1,17(a0)
    4f8a:	455c                	lw	a5,12(a0)
    4f8c:	84aa                	mv	s1,a0
    4f8e:	24f5fe63          	bgeu	a1,a5,51ea <_Z9ReadTrackP7adfTYPE+0x280>
    4f92:	4401                	li	s0,0
    4f94:	4090                	lw	a2,0(s1)
    4f96:	400c                	lw	a1,0(s0)
    4f98:	651d                	lui	a0,0x7
    4f9a:	f5050513          	addi	a0,a0,-176 # 6f50 <_ZL13mapHidToAmiga+0x390>
    4f9e:	445000ef          	jal	ra,5be2 <riscprintff_>
    4fa2:	0114c603          	lbu	a2,17(s1)
    4fa6:	01104583          	lbu	a1,17(zero) # 11 <ipc_vector+0x9>
    4faa:	651d                	lui	a0,0x7
    4fac:	f6450513          	addi	a0,a0,-156 # 6f64 <_ZL13mapHidToAmiga+0x3a4>
    4fb0:	433000ef          	jal	ra,5be2 <riscprintff_>
    4fb4:	0084c603          	lbu	a2,8(s1)
    4fb8:	00804583          	lbu	a1,8(zero) # 8 <ipc_vector>
    4fbc:	651d                	lui	a0,0x7
    4fbe:	f7450513          	addi	a0,a0,-140 # 6f74 <_ZL13mapHidToAmiga+0x3b4>
    4fc2:	421000ef          	jal	ra,5be2 <riscprintff_>
    4fc6:	0114c783          	lbu	a5,17(s1)
    4fca:	408c                	lw	a1,0(s1)
    4fcc:	0124c683          	lbu	a3,18(s1)
    4fd0:	4010                	lw	a2,0(s0)
    4fd2:	01144703          	lbu	a4,17(s0)
    4fd6:	8e9d                	sub	a3,a3,a5
    4fd8:	8e0d                	sub	a2,a2,a1
    4fda:	0016b693          	seqz	a3,a3
    4fde:	00163613          	seqz	a2,a2
    4fe2:	8f1d                	sub	a4,a4,a5
    4fe4:	8ef1                	and	a3,a3,a2
    4fe6:	00173713          	seqz	a4,a4
    4fea:	8f75                	and	a4,a4,a3
    4fec:	0084c683          	lbu	a3,8(s1)
    4ff0:	18070e63          	beqz	a4,518c <_Z9ReadTrackP7adfTYPE+0x222>
    4ff4:	00804703          	lbu	a4,8(zero) # 8 <ipc_vector>
    4ff8:	18d71a63          	bne	a4,a3,518c <_Z9ReadTrackP7adfTYPE+0x222>
    4ffc:	651d                	lui	a0,0x7
    4ffe:	f8450513          	addi	a0,a0,-124 # 6f84 <_ZL13mapHidToAmiga+0x3c4>
    5002:	0104c403          	lbu	s0,16(s1)
    5006:	3dd000ef          	jal	ra,5be2 <riscprintff_>
    500a:	26f5                	jal	53f6 <_Z14HPS_EnableFpgav>
    500c:	4501                	li	a0,0
    500e:	2149                	jal	5490 <_Z12HPS_fpga_spit>
    5010:	4501                	li	a0,0
    5012:	29bd                	jal	5490 <_Z12HPS_fpga_spit>
    5014:	4501                	li	a0,0
    5016:	29ad                	jal	5490 <_Z12HPS_fpga_spit>
    5018:	2efd                	jal	5416 <_Z15HPS_DisableFpgav>
    501a:	67b9                	lui	a5,0xe
    501c:	6ba5                	lui	s7,0x9
    501e:	ba878993          	addi	s3,a5,-1112 # dba8 <sector_bufferfdd0>
    5022:	914b8793          	addi	a5,s7,-1772 # 8914 <sector_buffer+0xd94>
    5026:	c43e                	sw	a5,8(sp)
    5028:	67a9                	lui	a5,0xa
    502a:	6839                	lui	a6,0xe
    502c:	6b11                	lui	s6,0x4
    502e:	14478793          	addi	a5,a5,324 # a144 <sector_buffer+0x25c4>
    5032:	6a1d                	lui	s4,0x7
    5034:	da880c13          	addi	s8,a6,-600 # dda8 <sector_bufferfdd1>
    5038:	691d                	lui	s2,0x7
    503a:	20000c93          	li	s9,512
    503e:	489b0b13          	addi	s6,s6,1161 # 4489 <_Z22update_keyboard_inputsv+0x275>
    5042:	c63e                	sw	a5,12(sp)
    5044:	4aa9                	li	s5,10
    5046:	85a2                	mv	a1,s0
    5048:	fbca0513          	addi	a0,s4,-68 # 6fbc <_ZL13mapHidToAmiga+0x3fc>
    504c:	397000ef          	jal	ra,5be2 <riscprintff_>
    5050:	00941593          	slli	a1,s0,0x9
    5054:	86ce                	mv	a3,s3
    5056:	4781                	li	a5,0
    5058:	00b7e733          	or	a4,a5,a1
    505c:	9762                	add	a4,a4,s8
    505e:	00074703          	lbu	a4,0(a4)
    5062:	0785                	addi	a5,a5,1
    5064:	0685                	addi	a3,a3,1
    5066:	fee68fa3          	sb	a4,-1(a3)
    506a:	ff9797e3          	bne	a5,s9,5058 <_Z9ReadTrackP7adfTYPE+0xee>
    506e:	fc890513          	addi	a0,s2,-56 # 6fc8 <_ZL13mapHidToAmiga+0x408>
    5072:	371000ef          	jal	ra,5be2 <riscprintff_>
    5076:	2641                	jal	53f6 <_Z14HPS_EnableFpgav>
    5078:	4501                	li	a0,0
    507a:	2919                	jal	5490 <_Z12HPS_fpga_spit>
    507c:	8d2a                	mv	s10,a0
    507e:	00855d93          	srli	s11,a0,0x8
    5082:	4501                	li	a0,0
    5084:	2131                	jal	5490 <_Z12HPS_fpga_spit>
    5086:	8baa                	mv	s7,a0
    5088:	4501                	li	a0,0
    508a:	2119                	jal	5490 <_Z12HPS_fpga_spit>
    508c:	44dc                	lw	a5,12(s1)
    508e:	0ffd7d13          	zext.b	s10,s10
    5092:	0ffdfd93          	zext.b	s11,s11
    5096:	00fd6563          	bltu	s10,a5,50a0 <_Z9ReadTrackP7adfTYPE+0x136>
    509a:	17fd                	addi	a5,a5,-1
    509c:	0ff7fd13          	zext.b	s10,a5
    50a0:	060b8b63          	beqz	s7,5116 <_Z9ReadTrackP7adfTYPE+0x1ac>
    50a4:	47a2                	lw	a5,8(sp)
    50a6:	06fb8863          	beq	s7,a5,5116 <_Z9ReadTrackP7adfTYPE+0x1ac>
    50aa:	47b2                	lw	a5,12(sp)
    50ac:	06fb8563          	beq	s7,a5,5116 <_Z9ReadTrackP7adfTYPE+0x1ac>
    50b0:	0114c783          	lbu	a5,17(s1)
    50b4:	07a78663          	beq	a5,s10,5120 <_Z9ReadTrackP7adfTYPE+0x1b6>
    50b8:	2eb9                	jal	5416 <_Z15HPS_DisableFpgav>
    50ba:	0114c783          	lbu	a5,17(s1)
    50be:	0ba79863          	bne	a5,s10,516e <_Z9ReadTrackP7adfTYPE+0x204>
    50c2:	001dfd93          	andi	s11,s11,1
    50c6:	0a0d8463          	beqz	s11,516e <_Z9ReadTrackP7adfTYPE+0x204>
    50ca:	0405                	addi	s0,s0,1
    50cc:	0ff47413          	zext.b	s0,s0
    50d0:	028aeb63          	bltu	s5,s0,5106 <_Z9ReadTrackP7adfTYPE+0x19c>
    50d4:	00848823          	sb	s0,16(s1)
    50d8:	3e800513          	li	a0,1000
    50dc:	33f000ef          	jal	ra,5c1a <_Z10riscusleepi>
    50e0:	b79d                	j	5046 <_Z9ReadTrackP7adfTYPE+0xdc>
    50e2:	642d                	lui	s0,0xb
    50e4:	15e00d93          	li	s11,350
    50e8:	aaa40413          	addi	s0,s0,-1366 # aaaa <sector_buffer+0x2f2a>
    50ec:	1dfd                	addi	s11,s11,-1
    50ee:	0dc2                	slli	s11,s11,0x10
    50f0:	8522                	mv	a0,s0
    50f2:	010ddd93          	srli	s11,s11,0x10
    50f6:	2e69                	jal	5490 <_Z12HPS_fpga_spit>
    50f8:	fe0d9ae3          	bnez	s11,50ec <_Z9ReadTrackP7adfTYPE+0x182>
    50fc:	2e29                	jal	5416 <_Z15HPS_DisableFpgav>
    50fe:	0114c783          	lbu	a5,17(s1)
    5102:	07a79663          	bne	a5,s10,516e <_Z9ReadTrackP7adfTYPE+0x204>
    5106:	4401                	li	s0,0
    5108:	00848823          	sb	s0,16(s1)
    510c:	3e800513          	li	a0,1000
    5110:	30b000ef          	jal	ra,5c1a <_Z10riscusleepi>
    5114:	bf0d                	j	5046 <_Z9ReadTrackP7adfTYPE+0xdc>
    5116:	0114c783          	lbu	a5,17(s1)
    511a:	8bda                	mv	s7,s6
    511c:	f9a79ee3          	bne	a5,s10,50b8 <_Z9ReadTrackP7adfTYPE+0x14e>
    5120:	001dfd93          	andi	s11,s11,1
    5124:	020d9163          	bnez	s11,5146 <_Z9ReadTrackP7adfTYPE+0x1dc>
    5128:	4426                	lw	s0,72(sp)
    512a:	40b6                	lw	ra,76(sp)
    512c:	4496                	lw	s1,68(sp)
    512e:	4906                	lw	s2,64(sp)
    5130:	59f2                	lw	s3,60(sp)
    5132:	5a62                	lw	s4,56(sp)
    5134:	5ad2                	lw	s5,52(sp)
    5136:	5b42                	lw	s6,48(sp)
    5138:	5bb2                	lw	s7,44(sp)
    513a:	5c22                	lw	s8,40(sp)
    513c:	5c92                	lw	s9,36(sp)
    513e:	5d02                	lw	s10,32(sp)
    5140:	4df2                	lw	s11,28(sp)
    5142:	6161                	addi	sp,sp,80
    5144:	acc9                	j	5416 <_Z15HPS_DisableFpgav>
    5146:	008bd693          	srli	a3,s7,0x8
    514a:	67b9                	lui	a5,0xe
    514c:	0ffbf713          	zext.b	a4,s7
    5150:	0ff6f693          	zext.b	a3,a3
    5154:	866a                	mv	a2,s10
    5156:	85a2                	mv	a1,s0
    5158:	ba878513          	addi	a0,a5,-1112 # dba8 <sector_bufferfdd0>
    515c:	b4dff0ef          	jal	ra,4ca8 <_Z10SendSectorPhhhhh>
    5160:	f95401e3          	beq	s0,s5,50e2 <_Z9ReadTrackP7adfTYPE+0x178>
    5164:	2c4d                	jal	5416 <_Z15HPS_DisableFpgav>
    5166:	0114c783          	lbu	a5,17(s1)
    516a:	f7a780e3          	beq	a5,s10,50ca <_Z9ReadTrackP7adfTYPE+0x160>
    516e:	40b6                	lw	ra,76(sp)
    5170:	4426                	lw	s0,72(sp)
    5172:	4496                	lw	s1,68(sp)
    5174:	4906                	lw	s2,64(sp)
    5176:	59f2                	lw	s3,60(sp)
    5178:	5a62                	lw	s4,56(sp)
    517a:	5ad2                	lw	s5,52(sp)
    517c:	5b42                	lw	s6,48(sp)
    517e:	5bb2                	lw	s7,44(sp)
    5180:	5c22                	lw	s8,40(sp)
    5182:	5c92                	lw	s9,36(sp)
    5184:	5d02                	lw	s10,32(sp)
    5186:	4df2                	lw	s11,28(sp)
    5188:	6161                	addi	sp,sp,80
    518a:	8082                	ret
    518c:	4401                	li	s0,0
    518e:	00f48923          	sb	a5,18(s1)
    5192:	00048823          	sb	zero,16(s1)
    5196:	40d0                	lw	a2,4(s1)
    5198:	00d40423          	sb	a3,8(s0)
    519c:	44d4                	lw	a3,12(s1)
    519e:	00179713          	slli	a4,a5,0x1
    51a2:	973e                	add	a4,a4,a5
    51a4:	651d                	lui	a0,0x7
    51a6:	070a                	slli	a4,a4,0x2
    51a8:	c00c                	sw	a1,0(s0)
    51aa:	c050                	sw	a2,4(s0)
    51ac:	c454                	sw	a3,12(s0)
    51ae:	00040823          	sb	zero,16(s0)
    51b2:	00f408a3          	sb	a5,17(s0)
    51b6:	00f40923          	sb	a5,18(s0)
    51ba:	f9c50513          	addi	a0,a0,-100 # 6f9c <_ZL13mapHidToAmiga+0x3dc>
    51be:	40f70433          	sub	s0,a4,a5
    51c2:	221000ef          	jal	ra,5be2 <riscprintff_>
    51c6:	b64ff0ef          	jal	ra,452a <_Z14dataslot_readyv>
    51ca:	dd75                	beqz	a0,51c6 <_Z9ReadTrackP7adfTYPE+0x25c>
    51cc:	0004d503          	lhu	a0,0(s1)
    51d0:	6685                	lui	a3,0x1
    51d2:	65b9                	lui	a1,0xe
    51d4:	60068693          	addi	a3,a3,1536 # 1600 <_Z19OSD_Keyboard_3_linebi+0x380>
    51d8:	00941613          	slli	a2,s0,0x9
    51dc:	da858593          	addi	a1,a1,-600 # dda8 <sector_bufferfdd1>
    51e0:	be0ff0ef          	jal	ra,45c0 <_Z13dataslot_readtmmm>
    51e4:	f549                	bnez	a0,516e <_Z9ReadTrackP7adfTYPE+0x204>
    51e6:	4401                	li	s0,0
    51e8:	b50d                	j	500a <_Z9ReadTrackP7adfTYPE+0xa0>
    51ea:	651d                	lui	a0,0x7
    51ec:	f3850513          	addi	a0,a0,-200 # 6f38 <_ZL13mapHidToAmiga+0x378>
    51f0:	1f3000ef          	jal	ra,5be2 <riscprintff_>
    51f4:	44dc                	lw	a5,12(s1)
    51f6:	17fd                	addi	a5,a5,-1
    51f8:	00f488a3          	sb	a5,17(s1)
    51fc:	bb59                	j	4f92 <_Z9ReadTrackP7adfTYPE+0x28>

000051fe <UpdateDriveStatus_fdd>:
    51fe:	1141                	addi	sp,sp,-16
    5200:	c422                	sw	s0,8(sp)
    5202:	641d                	lui	s0,0x7
    5204:	30040413          	addi	s0,s0,768 # 7300 <df>
    5208:	c606                	sw	ra,12(sp)
    520a:	22f5                	jal	53f6 <_Z14HPS_EnableFpgav>
    520c:	01c44503          	lbu	a0,28(s0)
    5210:	04444703          	lbu	a4,68(s0)
    5214:	00844683          	lbu	a3,8(s0)
    5218:	03044783          	lbu	a5,48(s0)
    521c:	070e                	slli	a4,a4,0x3
    521e:	0506                	slli	a0,a0,0x1
    5220:	8d59                	or	a0,a0,a4
    5222:	8d55                	or	a0,a0,a3
    5224:	078a                	slli	a5,a5,0x2
    5226:	8d5d                	or	a0,a0,a5
    5228:	6785                	lui	a5,0x1
    522a:	8d5d                	or	a0,a0,a5
    522c:	0542                	slli	a0,a0,0x10
    522e:	8141                	srli	a0,a0,0x10
    5230:	2485                	jal	5490 <_Z12HPS_fpga_spit>
    5232:	00844583          	lbu	a1,8(s0)
    5236:	651d                	lui	a0,0x7
    5238:	fdc50513          	addi	a0,a0,-36 # 6fdc <_ZL13mapHidToAmiga+0x41c>
    523c:	1a7000ef          	jal	ra,5be2 <riscprintff_>
    5240:	01c44583          	lbu	a1,28(s0)
    5244:	651d                	lui	a0,0x7
    5246:	ff450513          	addi	a0,a0,-12 # 6ff4 <_ZL13mapHidToAmiga+0x434>
    524a:	199000ef          	jal	ra,5be2 <riscprintff_>
    524e:	03044583          	lbu	a1,48(s0)
    5252:	651d                	lui	a0,0x7
    5254:	00c50513          	addi	a0,a0,12 # 700c <_ZL13mapHidToAmiga+0x44c>
    5258:	18b000ef          	jal	ra,5be2 <riscprintff_>
    525c:	04444583          	lbu	a1,68(s0)
    5260:	651d                	lui	a0,0x7
    5262:	02450513          	addi	a0,a0,36 # 7024 <_ZL13mapHidToAmiga+0x464>
    5266:	17d000ef          	jal	ra,5be2 <riscprintff_>
    526a:	01c44783          	lbu	a5,28(s0)
    526e:	04444683          	lbu	a3,68(s0)
    5272:	00844603          	lbu	a2,8(s0)
    5276:	03044703          	lbu	a4,48(s0)
    527a:	068e                	slli	a3,a3,0x3
    527c:	0786                	slli	a5,a5,0x1
    527e:	8fd5                	or	a5,a5,a3
    5280:	8fd1                	or	a5,a5,a2
    5282:	070a                	slli	a4,a4,0x2
    5284:	8fd9                	or	a5,a5,a4
    5286:	6585                	lui	a1,0x1
    5288:	651d                	lui	a0,0x7
    528a:	8ddd                	or	a1,a1,a5
    528c:	03c50513          	addi	a0,a0,60 # 703c <_ZL13mapHidToAmiga+0x47c>
    5290:	153000ef          	jal	ra,5be2 <riscprintff_>
    5294:	2249                	jal	5416 <_Z15HPS_DisableFpgav>
    5296:	4781                	li	a5,0
    5298:	00078423          	sb	zero,8(a5) # 1008 <_Z19OSD_Keyboard_2_linebi+0x2c8>
    529c:	00079823          	sh	zero,16(a5)
    52a0:	00078923          	sb	zero,18(a5)
    52a4:	40b2                	lw	ra,12(sp)
    52a6:	4422                	lw	s0,8(sp)
    52a8:	0007a023          	sw	zero,0(a5)
    52ac:	0007a223          	sw	zero,4(a5)
    52b0:	0007a623          	sw	zero,12(a5)
    52b4:	0141                	addi	sp,sp,16
    52b6:	8082                	ret

000052b8 <UnsertFloppy>:
    52b8:	1141                	addi	sp,sp,-16
    52ba:	c422                	sw	s0,8(sp)
    52bc:	842a                	mv	s0,a0
    52be:	651d                	lui	a0,0x7
    52c0:	05850513          	addi	a0,a0,88 # 7058 <_ZL13mapHidToAmiga+0x498>
    52c4:	c606                	sw	ra,12(sp)
    52c6:	11d000ef          	jal	ra,5be2 <riscprintff_>
    52ca:	00040423          	sb	zero,8(s0)
    52ce:	00041823          	sh	zero,16(s0)
    52d2:	00040923          	sb	zero,18(s0)
    52d6:	00042023          	sw	zero,0(s0)
    52da:	00042223          	sw	zero,4(s0)
    52de:	00042623          	sw	zero,12(s0)
    52e2:	4422                	lw	s0,8(sp)
    52e4:	40b2                	lw	ra,12(sp)
    52e6:	0141                	addi	sp,sp,16
    52e8:	f17ff06f          	j	51fe <UpdateDriveStatus_fdd>

000052ec <RemoveDriveStatus>:
    52ec:	1141                	addi	sp,sp,-16
    52ee:	c606                	sw	ra,12(sp)
    52f0:	2219                	jal	53f6 <_Z14HPS_EnableFpgav>
    52f2:	6505                	lui	a0,0x1
    52f4:	2a71                	jal	5490 <_Z12HPS_fpga_spit>
    52f6:	40b2                	lw	ra,12(sp)
    52f8:	0141                	addi	sp,sp,16
    52fa:	aa31                	j	5416 <_Z15HPS_DisableFpgav>

000052fc <HandleFDD>:
    52fc:	00455793          	srli	a5,a0,0x4
    5300:	8b8d                	andi	a5,a5,3
    5302:	6721                	lui	a4,0x8
    5304:	b6f70623          	sb	a5,-1172(a4) # 7b6c <drives>
    5308:	00157793          	andi	a5,a0,1
    530c:	862e                	mv	a2,a1
    530e:	e395                	bnez	a5,5332 <HandleFDD+0x36>
    5310:	00257793          	andi	a5,a0,2
    5314:	e391                	bnez	a5,5318 <HandleFDD+0x1c>
    5316:	8082                	ret
    5318:	8119                	srli	a0,a0,0x6
    531a:	00251793          	slli	a5,a0,0x2
    531e:	97aa                	add	a5,a5,a0
    5320:	651d                	lui	a0,0x7
    5322:	078a                	slli	a5,a5,0x2
    5324:	30050513          	addi	a0,a0,768 # 7300 <df>
    5328:	953e                	add	a0,a0,a5
    532a:	00b508a3          	sb	a1,17(a0)
    532e:	b5fff06f          	j	4e8c <_Z10WriteTrackP7adfTYPE>
    5332:	00655593          	srli	a1,a0,0x6
    5336:	1141                	addi	sp,sp,-16
    5338:	00259793          	slli	a5,a1,0x2
    533c:	c422                	sw	s0,8(sp)
    533e:	97ae                	add	a5,a5,a1
    5340:	641d                	lui	s0,0x7
    5342:	078a                	slli	a5,a5,0x2
    5344:	30040413          	addi	s0,s0,768 # 7300 <df>
    5348:	651d                	lui	a0,0x7
    534a:	c606                	sw	ra,12(sp)
    534c:	943e                	add	s0,s0,a5
    534e:	06450513          	addi	a0,a0,100 # 7064 <_ZL13mapHidToAmiga+0x4a4>
    5352:	00c408a3          	sb	a2,17(s0)
    5356:	69b000ef          	jal	ra,61f0 <printf>
    535a:	8522                	mv	a0,s0
    535c:	4422                	lw	s0,8(sp)
    535e:	40b2                	lw	ra,12(sp)
    5360:	0141                	addi	sp,sp,16
    5362:	c09ff06f          	j	4f6a <_Z9ReadTrackP7adfTYPE>

00005366 <InsertFloppy>:
    5366:	1141                	addi	sp,sp,-16
    5368:	c422                	sw	s0,8(sp)
    536a:	c606                	sw	ra,12(sp)
    536c:	000e6737          	lui	a4,0xe6
    5370:	6785                	lui	a5,0x1
    5372:	60078793          	addi	a5,a5,1536 # 1600 <_Z19OSD_Keyboard_3_linebi+0x380>
    5376:	c110                	sw	a2,0(a0)
    5378:	c14c                	sw	a1,4(a0)
    537a:	9ff70713          	addi	a4,a4,-1537 # e59ff <MEM_SIZE+0xc59ff>
    537e:	02f5d7b3          	divu	a5,a1,a5
    5382:	842a                	mv	s0,a0
    5384:	06b76063          	bltu	a4,a1,53e4 <InsertFloppy+0x7e>
    5388:	c45c                	sw	a5,12(s0)
    538a:	47c5                	li	a5,17
    538c:	00f40423          	sb	a5,8(s0)
    5390:	651d                	lui	a0,0x7
    5392:	57fd                	li	a5,-1
    5394:	00f40923          	sb	a5,18(s0)
    5398:	4585                	li	a1,1
    539a:	00041823          	sh	zero,16(s0)
    539e:	0bc50513          	addi	a0,a0,188 # 70bc <_ZL13mapHidToAmiga+0x4fc>
    53a2:	041000ef          	jal	ra,5be2 <riscprintff_>
    53a6:	404c                	lw	a1,4(s0)
    53a8:	651d                	lui	a0,0x7
    53aa:	0d050513          	addi	a0,a0,208 # 70d0 <_ZL13mapHidToAmiga+0x510>
    53ae:	00a5d613          	srli	a2,a1,0xa
    53b2:	031000ef          	jal	ra,5be2 <riscprintff_>
    53b6:	444c                	lw	a1,12(s0)
    53b8:	651d                	lui	a0,0x7
    53ba:	0ec50513          	addi	a0,a0,236 # 70ec <_ZL13mapHidToAmiga+0x52c>
    53be:	025000ef          	jal	ra,5be2 <riscprintff_>
    53c2:	01244583          	lbu	a1,18(s0)
    53c6:	651d                	lui	a0,0x7
    53c8:	10050513          	addi	a0,a0,256 # 7100 <_ZL13mapHidToAmiga+0x540>
    53cc:	017000ef          	jal	ra,5be2 <riscprintff_>
    53d0:	00844583          	lbu	a1,8(s0)
    53d4:	4422                	lw	s0,8(sp)
    53d6:	40b2                	lw	ra,12(sp)
    53d8:	651d                	lui	a0,0x7
    53da:	11850513          	addi	a0,a0,280 # 7118 <_ZL13mapHidToAmiga+0x558>
    53de:	0141                	addi	sp,sp,16
    53e0:	0030006f          	j	5be2 <riscprintff_>
    53e4:	651d                	lui	a0,0x7
    53e6:	85be                	mv	a1,a5
    53e8:	08c50513          	addi	a0,a0,140 # 708c <_ZL13mapHidToAmiga+0x4cc>
    53ec:	7f6000ef          	jal	ra,5be2 <riscprintff_>
    53f0:	0a600793          	li	a5,166
    53f4:	bf51                	j	5388 <InsertFloppy+0x22>

000053f6 <_Z14HPS_EnableFpgav>:
    53f6:	1141                	addi	sp,sp,-16
    53f8:	c606                	sw	ra,12(sp)
    53fa:	7e2000ef          	jal	ra,5bdc <_Z17DisableInterruptsv>
    53fe:	fd000713          	li	a4,-48
    5402:	431c                	lw	a5,0(a4)
    5404:	0001                	nop
    5406:	0001                	nop
    5408:	800406b7          	lui	a3,0x80040
    540c:	40b2                	lw	ra,12(sp)
    540e:	8fd5                	or	a5,a5,a3
    5410:	c31c                	sw	a5,0(a4)
    5412:	0141                	addi	sp,sp,16
    5414:	8082                	ret

00005416 <_Z15HPS_DisableFpgav>:
    5416:	fd000693          	li	a3,-48
    541a:	429c                	lw	a5,0(a3)
    541c:	0001                	nop
    541e:	0001                	nop
    5420:	fffc0737          	lui	a4,0xfffc0
    5424:	177d                	addi	a4,a4,-1 # fffbffff <MEM_SIZE+0xfff9ffff>
    5426:	8ff9                	and	a5,a5,a4
    5428:	80000737          	lui	a4,0x80000
    542c:	8fd9                	or	a5,a5,a4
    542e:	c29c                	sw	a5,0(a3)
    5430:	7960006f          	j	5bc6 <_Z16EnableInterruptsv>

00005434 <_Z12HPS_EnableIOv>:
    5434:	1141                	addi	sp,sp,-16
    5436:	c606                	sw	ra,12(sp)
    5438:	7a4000ef          	jal	ra,5bdc <_Z17DisableInterruptsv>
    543c:	fd000713          	li	a4,-48
    5440:	431c                	lw	a5,0(a4)
    5442:	0001                	nop
    5444:	0001                	nop
    5446:	801006b7          	lui	a3,0x80100
    544a:	40b2                	lw	ra,12(sp)
    544c:	8fd5                	or	a5,a5,a3
    544e:	c31c                	sw	a5,0(a4)
    5450:	0141                	addi	sp,sp,16
    5452:	8082                	ret

00005454 <_Z13HPS_DisableIOv>:
    5454:	fd000693          	li	a3,-48
    5458:	429c                	lw	a5,0(a3)
    545a:	0001                	nop
    545c:	0001                	nop
    545e:	fff00737          	lui	a4,0xfff00
    5462:	177d                	addi	a4,a4,-1 # ffefffff <MEM_SIZE+0xffedffff>
    5464:	8ff9                	and	a5,a5,a4
    5466:	80000737          	lui	a4,0x80000
    546a:	8fd9                	or	a5,a5,a4
    546c:	c29c                	sw	a5,0(a3)
    546e:	7580006f          	j	5bc6 <_Z16EnableInterruptsv>

00005472 <_Z14HPS_DisableOsdv>:
    5472:	fd000693          	li	a3,-48
    5476:	429c                	lw	a5,0(a3)
    5478:	0001                	nop
    547a:	0001                	nop
    547c:	ffe40737          	lui	a4,0xffe40
    5480:	177d                	addi	a4,a4,-1 # ffe3ffff <MEM_SIZE+0xffe1ffff>
    5482:	8ff9                	and	a5,a5,a4
    5484:	80000737          	lui	a4,0x80000
    5488:	8fd9                	or	a5,a5,a4
    548a:	c29c                	sw	a5,0(a3)
    548c:	73a0006f          	j	5bc6 <_Z16EnableInterruptsv>

00005490 <_Z12HPS_fpga_spit>:
    5490:	fd002683          	lw	a3,-48(zero) # ffffffd0 <MEM_SIZE+0xfffdffd0>
    5494:	0001                	nop
    5496:	0001                	nop
    5498:	fffd07b7          	lui	a5,0xfffd0
    549c:	8efd                	and	a3,a3,a5
    549e:	8ec9                	or	a3,a3,a0
    54a0:	0001                	nop
    54a2:	000207b7          	lui	a5,0x20
    54a6:	fcd02823          	sw	a3,-48(zero) # ffffffd0 <MEM_SIZE+0xfffdffd0>
    54aa:	8fd5                	or	a5,a5,a3
    54ac:	fcf02823          	sw	a5,-48(zero) # ffffffd0 <MEM_SIZE+0xfffdffd0>
    54b0:	00020737          	lui	a4,0x20
    54b4:	fd402783          	lw	a5,-44(zero) # ffffffd4 <MEM_SIZE+0xfffdffd4>
    54b8:	0001                	nop
    54ba:	0001                	nop
    54bc:	8ff9                	and	a5,a5,a4
    54be:	dbfd                	beqz	a5,54b4 <_Z12HPS_fpga_spit+0x24>
    54c0:	fcd02823          	sw	a3,-48(zero) # ffffffd0 <MEM_SIZE+0xfffdffd0>
    54c4:	00020737          	lui	a4,0x20
    54c8:	fd402503          	lw	a0,-44(zero) # ffffffd4 <MEM_SIZE+0xfffdffd4>
    54cc:	0001                	nop
    54ce:	0001                	nop
    54d0:	00e577b3          	and	a5,a0,a4
    54d4:	fbf5                	bnez	a5,54c8 <_Z12HPS_fpga_spit+0x38>
    54d6:	0542                	slli	a0,a0,0x10
    54d8:	8141                	srli	a0,a0,0x10
    54da:	8082                	ret

000054dc <_Z7spi32_wm>:
    54dc:	1141                	addi	sp,sp,-16
    54de:	c422                	sw	s0,8(sp)
    54e0:	842a                	mv	s0,a0
    54e2:	0542                	slli	a0,a0,0x10
    54e4:	8141                	srli	a0,a0,0x10
    54e6:	c606                	sw	ra,12(sp)
    54e8:	fa9ff0ef          	jal	ra,5490 <_Z12HPS_fpga_spit>
    54ec:	87aa                	mv	a5,a0
    54ee:	01045513          	srli	a0,s0,0x10
    54f2:	843e                	mv	s0,a5
    54f4:	f9dff0ef          	jal	ra,5490 <_Z12HPS_fpga_spit>
    54f8:	0542                	slli	a0,a0,0x10
    54fa:	40b2                	lw	ra,12(sp)
    54fc:	8d41                	or	a0,a0,s0
    54fe:	4422                	lw	s0,8(sp)
    5500:	0141                	addi	sp,sp,16
    5502:	8082                	ret

00005504 <_Z16HPS_spi_uio_cmd8hh>:
    5504:	1141                	addi	sp,sp,-16
    5506:	c422                	sw	s0,8(sp)
    5508:	c226                	sw	s1,4(sp)
    550a:	c04a                	sw	s2,0(sp)
    550c:	c606                	sw	ra,12(sp)
    550e:	fd000413          	li	s0,-48
    5512:	892a                	mv	s2,a0
    5514:	84ae                	mv	s1,a1
    5516:	25d9                	jal	5bdc <_Z17DisableInterruptsv>
    5518:	401c                	lw	a5,0(s0)
    551a:	0001                	nop
    551c:	0001                	nop
    551e:	80100737          	lui	a4,0x80100
    5522:	8fd9                	or	a5,a5,a4
    5524:	c01c                	sw	a5,0(s0)
    5526:	4505                	li	a0,1
    5528:	2dcd                	jal	5c1a <_Z10riscusleepi>
    552a:	854a                	mv	a0,s2
    552c:	f65ff0ef          	jal	ra,5490 <_Z12HPS_fpga_spit>
    5530:	4505                	li	a0,1
    5532:	25e5                	jal	5c1a <_Z10riscusleepi>
    5534:	8526                	mv	a0,s1
    5536:	f5bff0ef          	jal	ra,5490 <_Z12HPS_fpga_spit>
    553a:	84aa                	mv	s1,a0
    553c:	4505                	li	a0,1
    553e:	2df1                	jal	5c1a <_Z10riscusleepi>
    5540:	401c                	lw	a5,0(s0)
    5542:	0001                	nop
    5544:	0001                	nop
    5546:	fff00737          	lui	a4,0xfff00
    554a:	177d                	addi	a4,a4,-1 # ffefffff <MEM_SIZE+0xffedffff>
    554c:	8ff9                	and	a5,a5,a4
    554e:	80000737          	lui	a4,0x80000
    5552:	8fd9                	or	a5,a5,a4
    5554:	c01c                	sw	a5,0(s0)
    5556:	2d85                	jal	5bc6 <_Z16EnableInterruptsv>
    5558:	40b2                	lw	ra,12(sp)
    555a:	4422                	lw	s0,8(sp)
    555c:	4902                	lw	s2,0(sp)
    555e:	0ff4f513          	zext.b	a0,s1
    5562:	4492                	lw	s1,4(sp)
    5564:	0141                	addi	sp,sp,16
    5566:	8082                	ret

00005568 <_Z17HPS_fpga_spi_fastt>:
    5568:	fd000713          	li	a4,-48
    556c:	431c                	lw	a5,0(a4)
    556e:	fffd06b7          	lui	a3,0xfffd0
    5572:	8ff5                	and	a5,a5,a3
    5574:	8d5d                	or	a0,a0,a5
    5576:	000207b7          	lui	a5,0x20
    557a:	c308                	sw	a0,0(a4)
    557c:	8fc9                	or	a5,a5,a0
    557e:	c31c                	sw	a5,0(a4)
    5580:	c308                	sw	a0,0(a4)
    5582:	fd402503          	lw	a0,-44(zero) # ffffffd4 <MEM_SIZE+0xfffdffd4>
    5586:	0542                	slli	a0,a0,0x10
    5588:	8141                	srli	a0,a0,0x10
    558a:	8082                	ret

0000558c <_Z29HPS_fpga_spi_fast_block_writePKtm>:
    558c:	fd002603          	lw	a2,-48(zero) # ffffffd0 <MEM_SIZE+0xfffdffd0>
    5590:	fffd07b7          	lui	a5,0xfffd0
    5594:	fff58713          	addi	a4,a1,-1 # fff <_Z19OSD_Keyboard_2_linebi+0x2bf>
    5598:	8e7d                	and	a2,a2,a5
    559a:	c585                	beqz	a1,55c2 <_Z29HPS_fpga_spi_fast_block_writePKtm+0x36>
    559c:	00020837          	lui	a6,0x20
    55a0:	55fd                	li	a1,-1
    55a2:	00055783          	lhu	a5,0(a0)
    55a6:	177d                	addi	a4,a4,-1 # 7fffffff <MEM_SIZE+0x7ffdffff>
    55a8:	0509                	addi	a0,a0,2
    55aa:	8fd1                	or	a5,a5,a2
    55ac:	fcf02823          	sw	a5,-48(zero) # ffffffd0 <MEM_SIZE+0xfffdffd0>
    55b0:	0107e6b3          	or	a3,a5,a6
    55b4:	fcd02823          	sw	a3,-48(zero) # ffffffd0 <MEM_SIZE+0xfffdffd0>
    55b8:	feb715e3          	bne	a4,a1,55a2 <_Z29HPS_fpga_spi_fast_block_writePKtm+0x16>
    55bc:	fcf02823          	sw	a5,-48(zero) # ffffffd0 <MEM_SIZE+0xfffdffd0>
    55c0:	8082                	ret
    55c2:	87b2                	mv	a5,a2
    55c4:	fcf02823          	sw	a5,-48(zero) # ffffffd0 <MEM_SIZE+0xfffdffd0>
    55c8:	8082                	ret

000055ca <_Z28HPS_fpga_spi_fast_block_readPtmb>:
    55ca:	fd002683          	lw	a3,-48(zero) # ffffffd0 <MEM_SIZE+0xfffdffd0>
    55ce:	fffd07b7          	lui	a5,0xfffd0
    55d2:	00020637          	lui	a2,0x20
    55d6:	8efd                	and	a3,a3,a5
    55d8:	fcd02823          	sw	a3,-48(zero) # ffffffd0 <MEM_SIZE+0xfffdffd0>
    55dc:	fff58793          	addi	a5,a1,-1
    55e0:	8e55                	or	a2,a2,a3
    55e2:	587d                	li	a6,-1
    55e4:	cd89                	beqz	a1,55fe <_Z28HPS_fpga_spi_fast_block_readPtmb+0x34>
    55e6:	fcc02823          	sw	a2,-48(zero) # ffffffd0 <MEM_SIZE+0xfffdffd0>
    55ea:	fcd02823          	sw	a3,-48(zero) # ffffffd0 <MEM_SIZE+0xfffdffd0>
    55ee:	fd402703          	lw	a4,-44(zero) # ffffffd4 <MEM_SIZE+0xfffdffd4>
    55f2:	17fd                	addi	a5,a5,-1 # fffcffff <MEM_SIZE+0xfffaffff>
    55f4:	0509                	addi	a0,a0,2
    55f6:	fee51f23          	sh	a4,-2(a0)
    55fa:	ff0796e3          	bne	a5,a6,55e6 <_Z28HPS_fpga_spi_fast_block_readPtmb+0x1c>
    55fe:	8082                	ret

00005600 <_Z20HPS_spi_osd_cmd_conth>:
    5600:	1141                	addi	sp,sp,-16
    5602:	c422                	sw	s0,8(sp)
    5604:	c606                	sw	ra,12(sp)
    5606:	842a                	mv	s0,a0
    5608:	2bd1                	jal	5bdc <_Z17DisableInterruptsv>
    560a:	fd000713          	li	a4,-48
    560e:	431c                	lw	a5,0(a4)
    5610:	0001                	nop
    5612:	0001                	nop
    5614:	801c06b7          	lui	a3,0x801c0
    5618:	8522                	mv	a0,s0
    561a:	4422                	lw	s0,8(sp)
    561c:	40b2                	lw	ra,12(sp)
    561e:	8fd5                	or	a5,a5,a3
    5620:	c31c                	sw	a5,0(a4)
    5622:	0141                	addi	sp,sp,16
    5624:	e6dff06f          	j	5490 <_Z12HPS_fpga_spit>

00005628 <_Z15HPS_spi_osd_cmdh>:
    5628:	1141                	addi	sp,sp,-16
    562a:	c422                	sw	s0,8(sp)
    562c:	c226                	sw	s1,4(sp)
    562e:	c606                	sw	ra,12(sp)
    5630:	fd000413          	li	s0,-48
    5634:	84aa                	mv	s1,a0
    5636:	235d                	jal	5bdc <_Z17DisableInterruptsv>
    5638:	401c                	lw	a5,0(s0)
    563a:	0001                	nop
    563c:	0001                	nop
    563e:	801c0737          	lui	a4,0x801c0
    5642:	8fd9                	or	a5,a5,a4
    5644:	c01c                	sw	a5,0(s0)
    5646:	8526                	mv	a0,s1
    5648:	e49ff0ef          	jal	ra,5490 <_Z12HPS_fpga_spit>
    564c:	401c                	lw	a5,0(s0)
    564e:	0001                	nop
    5650:	0001                	nop
    5652:	ffe40737          	lui	a4,0xffe40
    5656:	177d                	addi	a4,a4,-1 # ffe3ffff <MEM_SIZE+0xffe1ffff>
    5658:	8ff9                	and	a5,a5,a4
    565a:	80000737          	lui	a4,0x80000
    565e:	8fd9                	or	a5,a5,a4
    5660:	c01c                	sw	a5,0(s0)
    5662:	4422                	lw	s0,8(sp)
    5664:	40b2                	lw	ra,12(sp)
    5666:	4492                	lw	s1,4(sp)
    5668:	0141                	addi	sp,sp,16
    566a:	abb1                	j	5bc6 <_Z16EnableInterruptsv>

0000566c <_Z17HPS_OSD_spi_writePKhmi>:
    566c:	1141                	addi	sp,sp,-16
    566e:	c422                	sw	s0,8(sp)
    5670:	c04a                	sw	s2,0(sp)
    5672:	c606                	sw	ra,12(sp)
    5674:	c226                	sw	s1,4(sp)
    5676:	842a                	mv	s0,a0
    5678:	892e                	mv	s2,a1
    567a:	e20d                	bnez	a2,569c <_Z17HPS_OSD_spi_writePKhmi+0x30>
    567c:	00b504b3          	add	s1,a0,a1
    5680:	c981                	beqz	a1,5690 <_Z17HPS_OSD_spi_writePKhmi+0x24>
    5682:	00044503          	lbu	a0,0(s0)
    5686:	0405                	addi	s0,s0,1
    5688:	e09ff0ef          	jal	ra,5490 <_Z12HPS_fpga_spit>
    568c:	fe849be3          	bne	s1,s0,5682 <_Z17HPS_OSD_spi_writePKhmi+0x16>
    5690:	40b2                	lw	ra,12(sp)
    5692:	4422                	lw	s0,8(sp)
    5694:	4492                	lw	s1,4(sp)
    5696:	4902                	lw	s2,0(sp)
    5698:	0141                	addi	sp,sp,16
    569a:	8082                	ret
    569c:	0015d493          	srli	s1,a1,0x1
    56a0:	c49d                	beqz	s1,56ce <_Z17HPS_OSD_spi_writePKhmi+0x62>
    56a2:	0486                	slli	s1,s1,0x1
    56a4:	94aa                	add	s1,s1,a0
    56a6:	00045503          	lhu	a0,0(s0)
    56aa:	0409                	addi	s0,s0,2
    56ac:	de5ff0ef          	jal	ra,5490 <_Z12HPS_fpga_spit>
    56b0:	fe849be3          	bne	s1,s0,56a6 <_Z17HPS_OSD_spi_writePKhmi+0x3a>
    56b4:	00197913          	andi	s2,s2,1
    56b8:	fc090ce3          	beqz	s2,5690 <_Z17HPS_OSD_spi_writePKhmi+0x24>
    56bc:	4422                	lw	s0,8(sp)
    56be:	0004c503          	lbu	a0,0(s1)
    56c2:	40b2                	lw	ra,12(sp)
    56c4:	4492                	lw	s1,4(sp)
    56c6:	4902                	lw	s2,0(sp)
    56c8:	0141                	addi	sp,sp,16
    56ca:	dc7ff06f          	j	5490 <_Z12HPS_fpga_spit>
    56ce:	84aa                	mv	s1,a0
    56d0:	b7d5                	j	56b4 <_Z17HPS_OSD_spi_writePKhmi+0x48>

000056d2 <_Z14OsdWriteOffsethPKchhcccii>:
    56d2:	715d                	addi	sp,sp,-80
    56d4:	d466                	sw	s9,40(sp)
    56d6:	67bd                	lui	a5,0xf
    56d8:	c6a2                	sw	s0,76(sp)
    56da:	c4a6                	sw	s1,72(sp)
    56dc:	c2ca                	sw	s2,68(sp)
    56de:	c0ce                	sw	s3,64(sp)
    56e0:	de52                	sw	s4,60(sp)
    56e2:	dc56                	sw	s5,56(sp)
    56e4:	da5a                	sw	s6,52(sp)
    56e6:	d85e                	sw	s7,48(sp)
    56e8:	d662                	sw	s8,44(sp)
    56ea:	d26a                	sw	s10,36(sp)
    56ec:	d06e                	sw	s11,32(sp)
    56ee:	4e46                	lw	t3,80(sp)
    56f0:	5b87ac83          	lw	s9,1464(a5) # f5b8 <_ZL5arrow>
    56f4:	0ff00f93          	li	t6,255
    56f8:	c689                	beqz	a3,5702 <_Z14OsdWriteOffsethPKchhcccii+0x30>
    56fa:	05500f93          	li	t6,85
    56fe:	0ff00693          	li	a3,255
    5702:	6421                	lui	s0,0x8
    5704:	b7042783          	lw	a5,-1168(s0) # 7b70 <_ZL6osdset>
    5708:	01f57f13          	andi	t5,a0,31
    570c:	4b05                	li	s6,1
    570e:	01eb1b33          	sll	s6,s6,t5
    5712:	00fb6b33          	or	s6,s6,a5
    5716:	0f22                	slli	t5,t5,0x8
    5718:	67a1                	lui	a5,0x8
    571a:	b7e7aa23          	sw	t5,-1164(a5) # 7b74 <_ZL9osdbufpos>
    571e:	679d                	lui	a5,0x7
    5720:	6321                	lui	t1,0x8
    5722:	35078793          	addi	a5,a5,848 # 7350 <charfont>
    5726:	b7832483          	lw	s1,-1160(t1) # 7b78 <_ZL8osd_size>
    572a:	cc3e                	sw	a5,24(sp)
    572c:	67bd                	lui	a5,0xf
    572e:	3a878c13          	addi	s8,a5,936 # f3a8 <_ZL6osdbuf>
    5732:	67bd                	lui	a5,0xf
    5734:	4981                	li	s3,0
    5736:	4a878793          	addi	a5,a5,1192 # f4a8 <framebuffer>
    573a:	6a9d                	lui	s5,0x7
    573c:	6a1d                	lui	s4,0x7
    573e:	8d42                	mv	s10,a6
    5740:	b7642823          	sw	s6,-1168(s0)
    5744:	14fd                	addi	s1,s1,-1
    5746:	c602                	sw	zero,12(sp)
    5748:	4281                	li	t0,0
    574a:	4301                	li	t1,0
    574c:	4e81                	li	t4,0
    574e:	492d                	li	s2,11
    5750:	4bb1                	li	s7,12
    5752:	4db5                	li	s11,13
    5754:	ce3e                	sw	a5,28(sp)
    5756:	3d8a8a93          	addi	s5,s5,984 # 73d8 <charfont+0x88>
    575a:	3f8a0a13          	addi	s4,s4,1016 # 73f8 <charfont+0xa8>
    575e:	884e                	mv	a6,s3
    5760:	ce09                	beqz	a2,577a <_Z14OsdWriteOffsethPKchhcccii+0xa8>
    5762:	003ed793          	srli	a5,t4,0x3
    5766:	01c7c463          	blt	a5,t3,576e <_Z14OsdWriteOffsethPKchhcccii+0x9c>
    576a:	0ff00313          	li	t1,255
    576e:	0117a7b3          	slt	a5,a5,a7
    5772:	40f007b3          	neg	a5,a5
    5776:	00f37333          	and	t1,t1,a5
    577a:	08950763          	beq	a0,s1,5808 <_Z14OsdWriteOffsethPKchhcccii+0x136>
    577e:	0005c783          	lbu	a5,0(a1)
    5782:	0585                	addi	a1,a1,1
    5784:	16078263          	beqz	a5,58e8 <_Z14OsdWriteOffsethPKchhcccii+0x216>
    5788:	13278563          	beq	a5,s2,58b2 <_Z14OsdWriteOffsethPKchhcccii+0x1e0>
    578c:	15778963          	beq	a5,s7,58de <_Z14OsdWriteOffsethPKchhcccii+0x20c>
    5790:	13b78863          	beq	a5,s11,58c0 <_Z14OsdWriteOffsethPKchhcccii+0x1ee>
    5794:	4429                	li	s0,10
    5796:	12878563          	beq	a5,s0,58c0 <_Z14OsdWriteOffsethPKchhcccii+0x1ee>
    579a:	0f700413          	li	s0,247
    579e:	fdd461e3          	bltu	s0,t4,5760 <_Z14OsdWriteOffsethPKchhcccii+0x8e>
    57a2:	4462                	lw	s0,24(sp)
    57a4:	42f2                	lw	t0,28(sp)
    57a6:	078e                	slli	a5,a5,0x3
    57a8:	97a2                	add	a5,a5,s0
    57aa:	feae8413          	addi	s0,t4,-22
    57ae:	010349b3          	xor	s3,t1,a6
    57b2:	9416                	add	s0,s0,t0
    57b4:	00878293          	addi	t0,a5,8
    57b8:	c826                	sw	s1,16(sp)
    57ba:	0ff9f993          	zext.b	s3,s3
    57be:	01ec03b3          	add	t2,s8,t5
    57c2:	ca76                	sw	t4,20(sp)
    57c4:	8496                	mv	s1,t0
    57c6:	0785                	addi	a5,a5,1
    57c8:	4281                	li	t0,0
    57ca:	000d0463          	beqz	s10,57d2 <_Z14OsdWriteOffsethPKchhcccii+0x100>
    57ce:	00044283          	lbu	t0,0(s0)
    57d2:	fff7ce83          	lbu	t4,-1(a5)
    57d6:	0385                	addi	t2,t2,1
    57d8:	0405                	addi	s0,s0,1
    57da:	00ee9eb3          	sll	t4,t4,a4
    57de:	01dffeb3          	and	t4,t6,t4
    57e2:	01d9ceb3          	xor	t4,s3,t4
    57e6:	01d2e2b3          	or	t0,t0,t4
    57ea:	fe538fa3          	sb	t0,-1(t2)
    57ee:	01f6cfb3          	xor	t6,a3,t6
    57f2:	fc979ae3          	bne	a5,s1,57c6 <_Z14OsdWriteOffsethPKchhcccii+0xf4>
    57f6:	4ed2                	lw	t4,20(sp)
    57f8:	44c2                	lw	s1,16(sp)
    57fa:	0f21                	addi	t5,t5,8 # 10008 <_ZL5arrow+0xa50>
    57fc:	0ea1                	addi	t4,t4,8
    57fe:	0ec2                	slli	t4,t4,0x10
    5800:	010ede93          	srli	t4,t4,0x10
    5804:	4285                	li	t0,1
    5806:	bfa9                	j	5760 <_Z14OsdWriteOffsethPKchhcccii+0x8e>
    5808:	001cf793          	andi	a5,s9,1
    580c:	dbad                	beqz	a5,577e <_Z14OsdWriteOffsethPKchhcccii+0xac>
    580e:	01ec07b3          	add	a5,s8,t5
    5812:	003f0993          	addi	s3,t5,3
    5816:	00678023          	sb	t1,0(a5)
    581a:	006780a3          	sb	t1,1(a5)
    581e:	00678123          	sb	t1,2(a5)
    5822:	679d                	lui	a5,0x7
    5824:	643d                	lui	s0,0xf
    5826:	83e2                	mv	t2,s8
    5828:	99e2                	add	s3,s3,s8
    582a:	3d078293          	addi	t0,a5,976 # 73d0 <charfont+0x80>
    582e:	0002c783          	lbu	a5,0(t0)
    5832:	0985                	addi	s3,s3,1
    5834:	0285                	addi	t0,t0,1
    5836:	00e797b3          	sll	a5,a5,a4
    583a:	00f347b3          	xor	a5,t1,a5
    583e:	fef98fa3          	sb	a5,-1(s3)
    5842:	ff5296e3          	bne	t0,s5,582e <_Z14OsdWriteOffsethPKchhcccii+0x15c>
    5846:	00bf0993          	addi	s3,t5,11
    584a:	679d                	lui	a5,0x7
    584c:	99e2                	add	s3,s3,s8
    584e:	3f078293          	addi	t0,a5,1008 # 73f0 <charfont+0xa0>
    5852:	0002c783          	lbu	a5,0(t0)
    5856:	0985                	addi	s3,s3,1
    5858:	0285                	addi	t0,t0,1
    585a:	00e797b3          	sll	a5,a5,a4
    585e:	00f347b3          	xor	a5,t1,a5
    5862:	fef98fa3          	sb	a5,-1(s3)
    5866:	ff4296e3          	bne	t0,s4,5852 <_Z14OsdWriteOffsethPKchhcccii+0x180>
    586a:	01ec07b3          	add	a5,s8,t5
    586e:	017f0293          	addi	t0,t5,23
    5872:	006789a3          	sb	t1,19(a5)
    5876:	00678a23          	sb	t1,20(a5)
    587a:	00678aa3          	sb	t1,21(a5)
    587e:	00678b23          	sb	t1,22(a5)
    5882:	005c07b3          	add	a5,s8,t0
    5886:	00678023          	sb	t1,0(a5)
    588a:	0005c783          	lbu	a5,0(a1)
    588e:	0ee1                	addi	t4,t4,24
    5890:	0ec2                	slli	t4,t4,0x10
    5892:	0f61                	addi	t5,t5,24
    5894:	010ede93          	srli	t4,t4,0x10
    5898:	ffecfc93          	andi	s9,s9,-2
    589c:	0e078b63          	beqz	a5,5992 <_Z14OsdWriteOffsethPKchhcccii+0x2c0>
    58a0:	0015c783          	lbu	a5,1(a1)
    58a4:	c7fd                	beqz	a5,5992 <_Z14OsdWriteOffsethPKchhcccii+0x2c0>
    58a6:	0025c783          	lbu	a5,2(a1)
    58aa:	058d                	addi	a1,a1,3
    58ac:	c3fd                	beqz	a5,5992 <_Z14OsdWriteOffsethPKchhcccii+0x2c0>
    58ae:	4285                	li	t0,1
    58b0:	bd45                	j	5760 <_Z14OsdWriteOffsethPKchhcccii+0x8e>
    58b2:	fff6c693          	not	a3,a3
    58b6:	0aafcf93          	xori	t6,t6,170
    58ba:	0ff6f693          	zext.b	a3,a3
    58be:	b54d                	j	5760 <_Z14OsdWriteOffsethPKchhcccii+0x8e>
    58c0:	0505                	addi	a0,a0,1
    58c2:	01f57f13          	andi	t5,a0,31
    58c6:	4785                	li	a5,1
    58c8:	01e797b3          	sll	a5,a5,t5
    58cc:	00fb6b33          	or	s6,s6,a5
    58d0:	4785                	li	a5,1
    58d2:	0ff57513          	zext.b	a0,a0
    58d6:	0f22                	slli	t5,t5,0x8
    58d8:	c63e                	sw	a5,12(sp)
    58da:	4285                	li	t0,1
    58dc:	b551                	j	5760 <_Z14OsdWriteOffsethPKchhcccii+0x8e>
    58de:	fff84793          	not	a5,a6
    58e2:	0ff7f813          	zext.b	a6,a5
    58e6:	bdad                	j	5760 <_Z14OsdWriteOffsethPKchhcccii+0x8e>
    58e8:	47b2                	lw	a5,12(sp)
    58ea:	886a                	mv	a6,s10
    58ec:	c781                	beqz	a5,58f4 <_Z14OsdWriteOffsethPKchhcccii+0x222>
    58ee:	67a1                	lui	a5,0x8
    58f0:	b767a823          	sw	s6,-1168(a5) # 7b70 <_ZL6osdset>
    58f4:	00028563          	beqz	t0,58fe <_Z14OsdWriteOffsethPKchhcccii+0x22c>
    58f8:	67a1                	lui	a5,0x8
    58fa:	b7e7aa23          	sw	t5,-1164(a5) # 7b74 <_ZL9osdbufpos>
    58fe:	643d                	lui	s0,0xf
    5900:	0ff00793          	li	a5,255
    5904:	86f6                	mv	a3,t4
    5906:	3a840393          	addi	t2,s0,936 # f3a8 <_ZL6osdbuf>
    590a:	07d7e463          	bltu	a5,t4,5972 <_Z14OsdWriteOffsethPKchhcccii+0x2a0>
    590e:	67a1                	lui	a5,0x8
    5910:	b747a883          	lw	a7,-1164(a5) # 7b74 <_ZL9osdbufpos>
    5914:	0ff00793          	li	a5,255
    5918:	001e8613          	addi	a2,t4,1
    591c:	41d787b3          	sub	a5,a5,t4
    5920:	00138593          	addi	a1,t2,1
    5924:	3a840413          	addi	s0,s0,936
    5928:	01079e93          	slli	t4,a5,0x10
    592c:	0642                	slli	a2,a2,0x10
    592e:	010ede93          	srli	t4,t4,0x10
    5932:	95c6                	add	a1,a1,a7
    5934:	9446                	add	s0,s0,a7
    5936:	8241                	srli	a2,a2,0x10
    5938:	6e3d                	lui	t3,0xf
    593a:	93c6                	add	t2,t2,a7
    593c:	95f6                	add	a1,a1,t4
    593e:	4a8e0e13          	addi	t3,t3,1192 # f4a8 <framebuffer>
    5942:	8e01                	sub	a2,a2,s0
    5944:	00de0f33          	add	t5,t3,a3
    5948:	879a                	mv	a5,t1
    594a:	007606b3          	add	a3,a2,t2
    594e:	00080863          	beqz	a6,595e <_Z14OsdWriteOffsethPKchhcccii+0x28c>
    5952:	feaf4783          	lbu	a5,-22(t5)
    5956:	00f367b3          	or	a5,t1,a5
    595a:	0ff7f793          	zext.b	a5,a5
    595e:	00f38023          	sb	a5,0(t2)
    5962:	0385                	addi	t2,t2,1
    5964:	fe7590e3          	bne	a1,t2,5944 <_Z14OsdWriteOffsethPKchhcccii+0x272>
    5968:	0885                	addi	a7,a7,1
    596a:	98f6                	add	a7,a7,t4
    596c:	67a1                	lui	a5,0x8
    596e:	b717aa23          	sw	a7,-1164(a5) # 7b74 <_ZL9osdbufpos>
    5972:	02950e63          	beq	a0,s1,59ae <_Z14OsdWriteOffsethPKchhcccii+0x2dc>
    5976:	4436                	lw	s0,76(sp)
    5978:	44a6                	lw	s1,72(sp)
    597a:	4916                	lw	s2,68(sp)
    597c:	4986                	lw	s3,64(sp)
    597e:	5a72                	lw	s4,60(sp)
    5980:	5ae2                	lw	s5,56(sp)
    5982:	5b52                	lw	s6,52(sp)
    5984:	5bc2                	lw	s7,48(sp)
    5986:	5c32                	lw	s8,44(sp)
    5988:	5ca2                	lw	s9,40(sp)
    598a:	5d12                	lw	s10,36(sp)
    598c:	5d82                	lw	s11,32(sp)
    598e:	6161                	addi	sp,sp,80
    5990:	8082                	ret
    5992:	47b2                	lw	a5,12(sp)
    5994:	886a                	mv	a6,s10
    5996:	c781                	beqz	a5,599e <_Z14OsdWriteOffsethPKchhcccii+0x2cc>
    5998:	67a1                	lui	a5,0x8
    599a:	b767a823          	sw	s6,-1168(a5) # 7b70 <_ZL6osdset>
    599e:	67a1                	lui	a5,0x8
    59a0:	b7e7aa23          	sw	t5,-1164(a5) # 7b74 <_ZL9osdbufpos>
    59a4:	0ff00793          	li	a5,255
    59a8:	86f6                	mv	a3,t4
    59aa:	f7d7f2e3          	bgeu	a5,t4,590e <_Z14OsdWriteOffsethPKchhcccii+0x23c>
    59ae:	002cfc93          	andi	s9,s9,2
    59b2:	fc0c82e3          	beqz	s9,5976 <_Z14OsdWriteOffsethPKchhcccii+0x2a4>
    59b6:	67a1                	lui	a5,0x8
    59b8:	b747a503          	lw	a0,-1164(a5) # 7b74 <_ZL9osdbufpos>
    59bc:	643d                	lui	s0,0xf
    59be:	3a840393          	addi	t2,s0,936 # f3a8 <_ZL6osdbuf>
    59c2:	00a387b3          	add	a5,t2,a0
    59c6:	00350613          	addi	a2,a0,3
    59ca:	669d                	lui	a3,0x7
    59cc:	659d                	lui	a1,0x7
    59ce:	00678023          	sb	t1,0(a5)
    59d2:	006780a3          	sb	t1,1(a5)
    59d6:	00678123          	sb	t1,2(a5)
    59da:	961e                	add	a2,a2,t2
    59dc:	3f868693          	addi	a3,a3,1016 # 73f8 <charfont+0xa8>
    59e0:	40058593          	addi	a1,a1,1024 # 7400 <charfont+0xb0>
    59e4:	0006c783          	lbu	a5,0(a3)
    59e8:	0605                	addi	a2,a2,1 # 20001 <MEM_SIZE+0x1>
    59ea:	0685                	addi	a3,a3,1
    59ec:	00e797b3          	sll	a5,a5,a4
    59f0:	00f347b3          	xor	a5,t1,a5
    59f4:	fef60fa3          	sb	a5,-1(a2)
    59f8:	feb696e3          	bne	a3,a1,59e4 <_Z14OsdWriteOffsethPKchhcccii+0x312>
    59fc:	00b50613          	addi	a2,a0,11
    5a00:	669d                	lui	a3,0x7
    5a02:	659d                	lui	a1,0x7
    5a04:	961e                	add	a2,a2,t2
    5a06:	3d868693          	addi	a3,a3,984 # 73d8 <charfont+0x88>
    5a0a:	3e058593          	addi	a1,a1,992 # 73e0 <charfont+0x90>
    5a0e:	0006c783          	lbu	a5,0(a3)
    5a12:	0605                	addi	a2,a2,1
    5a14:	0685                	addi	a3,a3,1
    5a16:	00e797b3          	sll	a5,a5,a4
    5a1a:	00f347b3          	xor	a5,t1,a5
    5a1e:	fef60fa3          	sb	a5,-1(a2)
    5a22:	feb696e3          	bne	a3,a1,5a0e <_Z14OsdWriteOffsethPKchhcccii+0x33c>
    5a26:	93aa                	add	t2,t2,a0
    5a28:	67a1                	lui	a5,0x8
    5a2a:	0559                	addi	a0,a0,22
    5a2c:	006389a3          	sb	t1,19(t2)
    5a30:	00638a23          	sb	t1,20(t2)
    5a34:	b6a7aa23          	sw	a0,-1164(a5) # 7b74 <_ZL9osdbufpos>
    5a38:	00638aa3          	sb	t1,21(t2)
    5a3c:	bf2d                	j	5976 <_Z14OsdWriteOffsethPKchhcccii+0x2a4>

00005a3e <_Z8OsdWritePKchhcii>:
    5a3e:	1101                	addi	sp,sp,-32
    5a40:	c03e                	sw	a5,0(sp)
    5a42:	88ba                	mv	a7,a4
    5a44:	8836                	mv	a6,a3
    5a46:	4781                	li	a5,0
    5a48:	86b2                	mv	a3,a2
    5a4a:	4701                	li	a4,0
    5a4c:	862e                	mv	a2,a1
    5a4e:	85aa                	mv	a1,a0
    5a50:	4501                	li	a0,0
    5a52:	ce06                	sw	ra,28(sp)
    5a54:	c7fff0ef          	jal	ra,56d2 <_Z14OsdWriteOffsethPKchhcccii>
    5a58:	40f2                	lw	ra,28(sp)
    5a5a:	6105                	addi	sp,sp,32
    5a5c:	8082                	ret

00005a5e <_Z14OsdWriteDirecttPKcbhii>:
    5a5e:	0ff00813          	li	a6,255
    5a62:	c689                	beqz	a3,5a6c <_Z14OsdWriteDirecttPKcbhii+0xe>
    5a64:	05500813          	li	a6,85
    5a68:	0ff00693          	li	a3,255
    5a6c:	050e                	slli	a0,a0,0x3
    5a6e:	6321                	lui	t1,0x8
    5a70:	b6a32a23          	sw	a0,-1164(t1) # 7b74 <_ZL9osdbufpos>
    5a74:	4881                	li	a7,0
    5a76:	ca09                	beqz	a2,5a88 <_Z14OsdWriteDirecttPKcbhii+0x2a>
    5a78:	00e05863          	blez	a4,5a88 <_Z14OsdWriteDirecttPKcbhii+0x2a>
    5a7c:	0017a793          	slti	a5,a5,1
    5a80:	40f007b3          	neg	a5,a5
    5a84:	0ff7f893          	zext.b	a7,a5
    5a88:	0005c703          	lbu	a4,0(a1)
    5a8c:	4605                	li	a2,1
    5a8e:	ff570793          	addi	a5,a4,-11 # 7ffffff5 <MEM_SIZE+0x7ffdfff5>
    5a92:	0ff7f793          	zext.b	a5,a5
    5a96:	02f67e63          	bgeu	a2,a5,5ad2 <_Z14OsdWriteDirecttPKcbhii+0x74>
    5a9a:	679d                	lui	a5,0x7
    5a9c:	070e                	slli	a4,a4,0x3
    5a9e:	35078793          	addi	a5,a5,848 # 7350 <charfont>
    5aa2:	663d                	lui	a2,0xf
    5aa4:	973e                	add	a4,a4,a5
    5aa6:	3a860613          	addi	a2,a2,936 # f3a8 <_ZL6osdbuf>
    5aaa:	962a                	add	a2,a2,a0
    5aac:	00870593          	addi	a1,a4,8
    5ab0:	00074783          	lbu	a5,0(a4)
    5ab4:	0605                	addi	a2,a2,1
    5ab6:	0705                	addi	a4,a4,1
    5ab8:	00f877b3          	and	a5,a6,a5
    5abc:	00f8c7b3          	xor	a5,a7,a5
    5ac0:	fef60fa3          	sb	a5,-1(a2)
    5ac4:	0106c833          	xor	a6,a3,a6
    5ac8:	feb714e3          	bne	a4,a1,5ab0 <_Z14OsdWriteDirecttPKcbhii+0x52>
    5acc:	0521                	addi	a0,a0,8
    5ace:	b6a32a23          	sw	a0,-1164(t1)
    5ad2:	8082                	ret

00005ad4 <_Z8OsdClearv>:
    5ad4:	67bd                	lui	a5,0xf
    5ad6:	3a878793          	addi	a5,a5,936 # f3a8 <_ZL6osdbuf>
    5ada:	10078713          	addi	a4,a5,256
    5ade:	00078023          	sb	zero,0(a5)
    5ae2:	0001                	nop
    5ae4:	0785                	addi	a5,a5,1
    5ae6:	fee79ce3          	bne	a5,a4,5ade <_Z8OsdClearv+0xa>
    5aea:	8082                	ret

00005aec <_Z10InfoEnableiiiiii>:
    5aec:	1101                	addi	sp,sp,-32
    5aee:	c256                	sw	s5,4(sp)
    5af0:	8aaa                	mv	s5,a0
    5af2:	04500513          	li	a0,69
    5af6:	ce06                	sw	ra,28(sp)
    5af8:	cc22                	sw	s0,24(sp)
    5afa:	ca26                	sw	s1,20(sp)
    5afc:	c84a                	sw	s2,16(sp)
    5afe:	c64e                	sw	s3,12(sp)
    5b00:	c452                	sw	s4,8(sp)
    5b02:	89b2                	mv	s3,a2
    5b04:	8a2e                	mv	s4,a1
    5b06:	8936                	mv	s2,a3
    5b08:	84ba                	mv	s1,a4
    5b0a:	843e                	mv	s0,a5
    5b0c:	af5ff0ef          	jal	ra,5600 <_Z20HPS_spi_osd_cmd_conth>
    5b10:	010a9513          	slli	a0,s5,0x10
    5b14:	8141                	srli	a0,a0,0x10
    5b16:	97bff0ef          	jal	ra,5490 <_Z12HPS_fpga_spit>
    5b1a:	010a1513          	slli	a0,s4,0x10
    5b1e:	8141                	srli	a0,a0,0x10
    5b20:	971ff0ef          	jal	ra,5490 <_Z12HPS_fpga_spit>
    5b24:	01099513          	slli	a0,s3,0x10
    5b28:	8141                	srli	a0,a0,0x10
    5b2a:	967ff0ef          	jal	ra,5490 <_Z12HPS_fpga_spit>
    5b2e:	01091513          	slli	a0,s2,0x10
    5b32:	8141                	srli	a0,a0,0x10
    5b34:	95dff0ef          	jal	ra,5490 <_Z12HPS_fpga_spit>
    5b38:	01049513          	slli	a0,s1,0x10
    5b3c:	8141                	srli	a0,a0,0x10
    5b3e:	0442                	slli	s0,s0,0x10
    5b40:	8041                	srli	s0,s0,0x10
    5b42:	94fff0ef          	jal	ra,5490 <_Z12HPS_fpga_spit>
    5b46:	8522                	mv	a0,s0
    5b48:	949ff0ef          	jal	ra,5490 <_Z12HPS_fpga_spit>
    5b4c:	8522                	mv	a0,s0
    5b4e:	943ff0ef          	jal	ra,5490 <_Z12HPS_fpga_spit>
    5b52:	8522                	mv	a0,s0
    5b54:	93dff0ef          	jal	ra,5490 <_Z12HPS_fpga_spit>
    5b58:	4462                	lw	s0,24(sp)
    5b5a:	40f2                	lw	ra,28(sp)
    5b5c:	44d2                	lw	s1,20(sp)
    5b5e:	4942                	lw	s2,16(sp)
    5b60:	49b2                	lw	s3,12(sp)
    5b62:	4a22                	lw	s4,8(sp)
    5b64:	4a92                	lw	s5,4(sp)
    5b66:	6105                	addi	sp,sp,32
    5b68:	90bff06f          	j	5472 <_Z14HPS_DisableOsdv>

00005b6c <_Z10OsdDisablev>:
    5b6c:	04000513          	li	a0,64
    5b70:	ab9ff06f          	j	5628 <_Z15HPS_spi_osd_cmdh>

00005b74 <_Z9OsdUpdatei>:
    5b74:	02056513          	ori	a0,a0,32
    5b78:	1141                	addi	sp,sp,-16
    5b7a:	0ff57513          	zext.b	a0,a0
    5b7e:	c606                	sw	ra,12(sp)
    5b80:	a81ff0ef          	jal	ra,5600 <_Z20HPS_spi_osd_cmd_conth>
    5b84:	653d                	lui	a0,0xf
    5b86:	4601                	li	a2,0
    5b88:	10000593          	li	a1,256
    5b8c:	3a850513          	addi	a0,a0,936 # f3a8 <_ZL6osdbuf>
    5b90:	addff0ef          	jal	ra,566c <_Z17HPS_OSD_spi_writePKhmi>
    5b94:	40b2                	lw	ra,12(sp)
    5b96:	0141                	addi	sp,sp,16
    5b98:	8dbff06f          	j	5472 <_Z14HPS_DisableOsdv>

00005b9c <SetUART>:
    5b9c:	0a100793          	li	a5,161
    5ba0:	f8f02a23          	sw	a5,-108(zero) # ffffff94 <MEM_SIZE+0xfffdff94>
    5ba4:	8082                	ret

00005ba6 <_handle_trap>:
    5ba6:	1141                	addi	sp,sp,-16
    5ba8:	c422                	sw	s0,8(sp)
    5baa:	c606                	sw	ra,12(sp)
    5bac:	5451                	li	s0,-12
    5bae:	00042023          	sw	zero,0(s0)
    5bb2:	831fa0ef          	jal	ra,3e2 <_Z17core_input_updatev>
    5bb6:	4785                	li	a5,1
    5bb8:	fcf02223          	sw	a5,-60(zero) # ffffffc4 <MEM_SIZE+0xfffdffc4>
    5bbc:	40b2                	lw	ra,12(sp)
    5bbe:	c01c                	sw	a5,0(s0)
    5bc0:	4422                	lw	s0,8(sp)
    5bc2:	0141                	addi	sp,sp,16
    5bc4:	8082                	ret

00005bc6 <_Z16EnableInterruptsv>:
    5bc6:	4785                	li	a5,1
    5bc8:	fef02a23          	sw	a5,-12(zero) # fffffff4 <MEM_SIZE+0xfffdfff4>
    5bcc:	8082                	ret

00005bce <_Z22timer1Interrupts_setupm>:
    5bce:	fca02423          	sw	a0,-56(zero) # ffffffc8 <MEM_SIZE+0xfffdffc8>
    5bd2:	8082                	ret

00005bd4 <_Z22timer1Interrupts_resetv>:
    5bd4:	4785                	li	a5,1
    5bd6:	fcf02223          	sw	a5,-60(zero) # ffffffc4 <MEM_SIZE+0xfffdffc4>
    5bda:	8082                	ret

00005bdc <_Z17DisableInterruptsv>:
    5bdc:	fe002a23          	sw	zero,-12(zero) # fffffff4 <MEM_SIZE+0xfffdfff4>
    5be0:	8082                	ret

00005be2 <riscprintff_>:
    5be2:	1101                	addi	sp,sp,-32
    5be4:	c22e                	sw	a1,4(sp)
    5be6:	c432                	sw	a2,8(sp)
    5be8:	c636                	sw	a3,12(sp)
    5bea:	c83a                	sw	a4,16(sp)
    5bec:	ca3e                	sw	a5,20(sp)
    5bee:	cc42                	sw	a6,24(sp)
    5bf0:	ce46                	sw	a7,28(sp)
    5bf2:	4501                	li	a0,0
    5bf4:	6105                	addi	sp,sp,32
    5bf6:	8082                	ret

00005bf8 <_Z10ResetTimerv>:
    5bf8:	4785                	li	a5,1
    5bfa:	fcf02223          	sw	a5,-60(zero) # ffffffc4 <MEM_SIZE+0xfffdffc4>
    5bfe:	06500793          	li	a5,101
    5c02:	17fd                	addi	a5,a5,-1
    5c04:	fffd                	bnez	a5,5c02 <_Z10ResetTimerv+0xa>
    5c06:	fc002223          	sw	zero,-60(zero) # ffffffc4 <MEM_SIZE+0xfffdffc4>
    5c0a:	8082                	ret

00005c0c <_Z8SetTimerv>:
    5c0c:	000b57b7          	lui	a5,0xb5
    5c10:	46478793          	addi	a5,a5,1124 # b5464 <MEM_SIZE+0x95464>
    5c14:	f8f02c23          	sw	a5,-104(zero) # ffffff98 <MEM_SIZE+0xfffdff98>
    5c18:	8082                	ret

00005c1a <_Z10riscusleepi>:
    5c1a:	00a05663          	blez	a0,5c26 <_Z10riscusleepi+0xc>
    5c1e:	4781                	li	a5,0
    5c20:	0785                	addi	a5,a5,1
    5c22:	fef51fe3          	bne	a0,a5,5c20 <_Z10riscusleepi+0x6>
    5c26:	8082                	ret

00005c28 <memset>:
    5c28:	1141                	addi	sp,sp,-16
    5c2a:	c422                	sw	s0,8(sp)
    5c2c:	c606                	sw	ra,12(sp)
    5c2e:	842a                	mv	s0,a0
    5c30:	c601                	beqz	a2,5c38 <memset+0x10>
    5c32:	0ff5f593          	zext.b	a1,a1
    5c36:	3fcd                	jal	5c28 <memset>
    5c38:	40b2                	lw	ra,12(sp)
    5c3a:	8522                	mv	a0,s0
    5c3c:	4422                	lw	s0,8(sp)
    5c3e:	0141                	addi	sp,sp,16
    5c40:	8082                	ret

00005c42 <outnum>:
    5c42:	671d                	lui	a4,0x7
    5c44:	679d                	lui	a5,0x7
    5c46:	13070713          	addi	a4,a4,304 # 7130 <_ZL13mapHidToAmiga+0x570>
    5c4a:	14478793          	addi	a5,a5,324 # 7144 <_ZL13mapHidToAmiga+0x584>
    5c4e:	0047a883          	lw	a7,4(a5)
    5c52:	00072283          	lw	t0,0(a4)
    5c56:	00472f83          	lw	t6,4(a4)
    5c5a:	00872f03          	lw	t5,8(a4)
    5c5e:	00c72e83          	lw	t4,12(a4)
    5c62:	01074e03          	lbu	t3,16(a4)
    5c66:	0007a303          	lw	t1,0(a5)
    5c6a:	0087a803          	lw	a6,8(a5)
    5c6e:	47d8                	lw	a4,12(a5)
    5c70:	0107c783          	lbu	a5,16(a5)
    5c74:	7159                	addi	sp,sp,-112
    5c76:	d0ca                	sw	s2,96(sp)
    5c78:	cece                	sw	s3,92(sp)
    5c7a:	d046                	sw	a7,32(sp)
    5c7c:	02f10623          	sb	a5,44(sp)
    5c80:	d686                	sw	ra,108(sp)
    5c82:	d4a2                	sw	s0,104(sp)
    5c84:	d2a6                	sw	s1,100(sp)
    5c86:	ccd2                	sw	s4,88(sp)
    5c88:	c416                	sw	t0,8(sp)
    5c8a:	c67e                	sw	t6,12(sp)
    5c8c:	c87a                	sw	t5,16(sp)
    5c8e:	ca76                	sw	t4,20(sp)
    5c90:	01c10c23          	sb	t3,24(sp)
    5c94:	ce1a                	sw	t1,28(sp)
    5c96:	d242                	sw	a6,36(sp)
    5c98:	d43a                	sw	a4,40(sp)
    5c9a:	47a9                	li	a5,10
    5c9c:	01c6a883          	lw	a7,28(a3)
    5ca0:	89b6                	mv	s3,a3
    5ca2:	892a                	mv	s2,a0
    5ca4:	14f60763          	beq	a2,a5,5df2 <outnum+0x1b0>
    5ca8:	0030                	addi	a2,sp,8
    5caa:	0e088c63          	beqz	a7,5da2 <outnum+0x160>
    5cae:	03010a13          	addi	s4,sp,48
    5cb2:	87d2                	mv	a5,s4
    5cb4:	453d                	li	a0,15
    5cb6:	00f5f713          	andi	a4,a1,15
    5cba:	9732                	add	a4,a4,a2
    5cbc:	00074683          	lbu	a3,0(a4)
    5cc0:	872e                	mv	a4,a1
    5cc2:	0785                	addi	a5,a5,1
    5cc4:	fed78fa3          	sb	a3,-1(a5)
    5cc8:	8191                	srli	a1,a1,0x4
    5cca:	fee566e3          	bltu	a0,a4,5cb6 <outnum+0x74>
    5cce:	fff78493          	addi	s1,a5,-1
    5cd2:	00078023          	sb	zero,0(a5)
    5cd6:	8552                	mv	a0,s4
    5cd8:	2b99                	jal	622e <strlen>
    5cda:	0109a783          	lw	a5,16(s3)
    5cde:	00a9a023          	sw	a0,0(s3)
    5ce2:	0189a703          	lw	a4,24(s3)
    5ce6:	842a                	mv	s0,a0
    5ce8:	c791                	beqz	a5,5cf4 <outnum+0xb2>
    5cea:	ef55                	bnez	a4,5da6 <outnum+0x164>
    5cec:	0049a783          	lw	a5,4(s3)
    5cf0:	0cf54463          	blt	a0,a5,5db8 <outnum+0x176>
    5cf4:	0344ee63          	bltu	s1,s4,5d30 <outnum+0xee>
    5cf8:	8426                	mv	s0,s1
    5cfa:	0209a703          	lw	a4,32(s3)
    5cfe:	408487b3          	sub	a5,s1,s0
    5d02:	147d                	addi	s0,s0,-1
    5d04:	00e7da63          	bge	a5,a4,5d18 <outnum+0xd6>
    5d08:	00092783          	lw	a5,0(s2)
    5d0c:	00144503          	lbu	a0,1(s0)
    5d10:	cb85                	beqz	a5,5d40 <outnum+0xfe>
    5d12:	9782                	jalr	a5
    5d14:	ff4473e3          	bgeu	s0,s4,5cfa <outnum+0xb8>
    5d18:	0109a783          	lw	a5,16(s3)
    5d1c:	cb91                	beqz	a5,5d30 <outnum+0xee>
    5d1e:	0189a783          	lw	a5,24(s3)
    5d22:	c799                	beqz	a5,5d30 <outnum+0xee>
    5d24:	0009a403          	lw	s0,0(s3)
    5d28:	0049a783          	lw	a5,4(s3)
    5d2c:	04f44363          	blt	s0,a5,5d72 <outnum+0x130>
    5d30:	50b6                	lw	ra,108(sp)
    5d32:	5426                	lw	s0,104(sp)
    5d34:	5496                	lw	s1,100(sp)
    5d36:	5906                	lw	s2,96(sp)
    5d38:	49f6                	lw	s3,92(sp)
    5d3a:	4a66                	lw	s4,88(sp)
    5d3c:	6165                	addi	sp,sp,112
    5d3e:	8082                	ret
    5d40:	00492783          	lw	a5,4(s2)
    5d44:	dbe1                	beqz	a5,5d14 <outnum+0xd2>
    5d46:	00892703          	lw	a4,8(s2)
    5d4a:	00c92683          	lw	a3,12(s2)
    5d4e:	00170613          	addi	a2,a4,1
    5d52:	97ba                	add	a5,a5,a4
    5d54:	fcd750e3          	bge	a4,a3,5d14 <outnum+0xd2>
    5d58:	00c92423          	sw	a2,8(s2)
    5d5c:	00a78023          	sb	a0,0(a5)
    5d60:	f9447de3          	bgeu	s0,s4,5cfa <outnum+0xb8>
    5d64:	bf55                	j	5d18 <outnum+0xd6>
    5d66:	9702                	jalr	a4
    5d68:	0049a783          	lw	a5,4(s3)
    5d6c:	0405                	addi	s0,s0,1
    5d6e:	fcf451e3          	bge	s0,a5,5d30 <outnum+0xee>
    5d72:	00092703          	lw	a4,0(s2)
    5d76:	00c9c503          	lbu	a0,12(s3)
    5d7a:	f775                	bnez	a4,5d66 <outnum+0x124>
    5d7c:	00492703          	lw	a4,4(s2)
    5d80:	d775                	beqz	a4,5d6c <outnum+0x12a>
    5d82:	00892683          	lw	a3,8(s2)
    5d86:	00c92603          	lw	a2,12(s2)
    5d8a:	00168593          	addi	a1,a3,1
    5d8e:	9736                	add	a4,a4,a3
    5d90:	fcc6dee3          	bge	a3,a2,5d6c <outnum+0x12a>
    5d94:	00b92423          	sw	a1,8(s2)
    5d98:	00a70023          	sb	a0,0(a4)
    5d9c:	0049a783          	lw	a5,4(s3)
    5da0:	b7f1                	j	5d6c <outnum+0x12a>
    5da2:	0870                	addi	a2,sp,28
    5da4:	b729                	j	5cae <outnum+0x6c>
    5da6:	f544f9e3          	bgeu	s1,s4,5cf8 <outnum+0xb6>
    5daa:	bfbd                	j	5d28 <outnum+0xe6>
    5dac:	9702                	jalr	a4
    5dae:	0049a783          	lw	a5,4(s3)
    5db2:	0405                	addi	s0,s0,1
    5db4:	02f45c63          	bge	s0,a5,5dec <outnum+0x1aa>
    5db8:	00092703          	lw	a4,0(s2)
    5dbc:	00c9c503          	lbu	a0,12(s3)
    5dc0:	f775                	bnez	a4,5dac <outnum+0x16a>
    5dc2:	00492703          	lw	a4,4(s2)
    5dc6:	d775                	beqz	a4,5db2 <outnum+0x170>
    5dc8:	00892683          	lw	a3,8(s2)
    5dcc:	00c92603          	lw	a2,12(s2)
    5dd0:	00168593          	addi	a1,a3,1
    5dd4:	9736                	add	a4,a4,a3
    5dd6:	fcc6dee3          	bge	a3,a2,5db2 <outnum+0x170>
    5dda:	00b92423          	sw	a1,8(s2)
    5dde:	00a70023          	sb	a0,0(a4)
    5de2:	0049a783          	lw	a5,4(s3)
    5de6:	0405                	addi	s0,s0,1
    5de8:	fcf448e3          	blt	s0,a5,5db8 <outnum+0x176>
    5dec:	f144f6e3          	bgeu	s1,s4,5cf8 <outnum+0xb6>
    5df0:	b725                	j	5d18 <outnum+0xd6>
    5df2:	0405c363          	bltz	a1,5e38 <outnum+0x1f6>
    5df6:	0868                	addi	a0,sp,28
    5df8:	02089d63          	bnez	a7,5e32 <outnum+0x1f0>
    5dfc:	03010a13          	addi	s4,sp,48
    5e00:	84d2                	mv	s1,s4
    5e02:	46a9                	li	a3,10
    5e04:	4825                	li	a6,9
    5e06:	02d5f733          	remu	a4,a1,a3
    5e0a:	87a6                	mv	a5,s1
    5e0c:	0485                	addi	s1,s1,1
    5e0e:	862e                	mv	a2,a1
    5e10:	972a                	add	a4,a4,a0
    5e12:	00074703          	lbu	a4,0(a4)
    5e16:	02d5d5b3          	divu	a1,a1,a3
    5e1a:	fee48fa3          	sb	a4,-1(s1)
    5e1e:	fec864e3          	bltu	a6,a2,5e06 <outnum+0x1c4>
    5e22:	02088763          	beqz	a7,5e50 <outnum+0x20e>
    5e26:	02d00713          	li	a4,45
    5e2a:	0789                	addi	a5,a5,2
    5e2c:	00e48023          	sb	a4,0(s1)
    5e30:	b54d                	j	5cd2 <outnum+0x90>
    5e32:	0028                	addi	a0,sp,8
    5e34:	4881                	li	a7,0
    5e36:	b7d9                	j	5dfc <outnum+0x1ba>
    5e38:	4adc                	lw	a5,20(a3)
    5e3a:	ffd5                	bnez	a5,5df6 <outnum+0x1b4>
    5e3c:	40b005b3          	neg	a1,a1
    5e40:	00088563          	beqz	a7,5e4a <outnum+0x208>
    5e44:	0028                	addi	a0,sp,8
    5e46:	4885                	li	a7,1
    5e48:	bf55                	j	5dfc <outnum+0x1ba>
    5e4a:	0868                	addi	a0,sp,28
    5e4c:	4885                	li	a7,1
    5e4e:	b77d                	j	5dfc <outnum+0x1ba>
    5e50:	87a6                	mv	a5,s1
    5e52:	bdb5                	j	5cce <outnum+0x8c>

00005e54 <vbuf_printf>:
    5e54:	0005c783          	lbu	a5,0(a1)
    5e58:	34078c63          	beqz	a5,61b0 <vbuf_printf+0x35c>
    5e5c:	7119                	addi	sp,sp,-128
    5e5e:	d4d2                	sw	s4,104(sp)
    5e60:	d2d6                	sw	s5,100(sp)
    5e62:	d0da                	sw	s6,96(sp)
    5e64:	6a21                	lui	s4,0x8
    5e66:	6a9d                	lui	s5,0x7
    5e68:	6b1d                	lui	s6,0x7
    5e6a:	dca2                	sw	s0,120(sp)
    5e6c:	d8ca                	sw	s2,112(sp)
    5e6e:	d6ce                	sw	s3,108(sp)
    5e70:	cede                	sw	s7,92(sp)
    5e72:	de86                	sw	ra,124(sp)
    5e74:	daa6                	sw	s1,116(sp)
    5e76:	cce2                	sw	s8,88(sp)
    5e78:	cae6                	sw	s9,84(sp)
    5e7a:	c8ea                	sw	s10,80(sp)
    5e7c:	c6ee                	sw	s11,76(sp)
    5e7e:	842e                	mv	s0,a1
    5e80:	8baa                	mv	s7,a0
    5e82:	8932                	mv	s2,a2
    5e84:	1a7d                	addi	s4,s4,-1 # 7fff <sector_buffer+0x47f>
    5e86:	49e5                	li	s3,25
    5e88:	1b0a8a93          	addi	s5,s5,432 # 71b0 <_ZL13mapHidToAmiga+0x5f0>
    5e8c:	158b0b13          	addi	s6,s6,344 # 7158 <_ZL13mapHidToAmiga+0x598>
    5e90:	02500713          	li	a4,37
    5e94:	02e78e63          	beq	a5,a4,5ed0 <vbuf_printf+0x7c>
    5e98:	000ba703          	lw	a4,0(s7)
    5e9c:	1e070e63          	beqz	a4,6098 <vbuf_printf+0x244>
    5ea0:	853e                	mv	a0,a5
    5ea2:	9702                	jalr	a4
    5ea4:	84a2                	mv	s1,s0
    5ea6:	0014c783          	lbu	a5,1(s1)
    5eaa:	00148413          	addi	s0,s1,1
    5eae:	f3ed                	bnez	a5,5e90 <vbuf_printf+0x3c>
    5eb0:	50f6                	lw	ra,124(sp)
    5eb2:	5466                	lw	s0,120(sp)
    5eb4:	54d6                	lw	s1,116(sp)
    5eb6:	5946                	lw	s2,112(sp)
    5eb8:	59b6                	lw	s3,108(sp)
    5eba:	5a26                	lw	s4,104(sp)
    5ebc:	5a96                	lw	s5,100(sp)
    5ebe:	5b06                	lw	s6,96(sp)
    5ec0:	4bf6                	lw	s7,92(sp)
    5ec2:	4c66                	lw	s8,88(sp)
    5ec4:	4cd6                	lw	s9,84(sp)
    5ec6:	4d46                	lw	s10,80(sp)
    5ec8:	4db6                	lw	s11,76(sp)
    5eca:	4501                	li	a0,0
    5ecc:	6109                	addi	sp,sp,128
    5ece:	8082                	ret
    5ed0:	02000793          	li	a5,32
    5ed4:	02f10423          	sb	a5,40(sp)
    5ed8:	47a9                	li	a5,10
    5eda:	d602                	sw	zero,44(sp)
    5edc:	da02                	sw	zero,52(sp)
    5ede:	d802                	sw	zero,48(sp)
    5ee0:	d252                	sw	s4,36(sp)
    5ee2:	de3e                	sw	a5,60(sp)
    5ee4:	4c81                	li	s9,0
    5ee6:	4c25                	li	s8,9
    5ee8:	00144783          	lbu	a5,1(s0)
    5eec:	00140493          	addi	s1,s0,1
    5ef0:	fd078713          	addi	a4,a5,-48
    5ef4:	0ff77693          	zext.b	a3,a4
    5ef8:	10dc7163          	bgeu	s8,a3,5ffa <vbuf_printf+0x1a6>
    5efc:	fbf78713          	addi	a4,a5,-65
    5f00:	0ff77713          	zext.b	a4,a4
    5f04:	01a73693          	sltiu	a3,a4,26
    5f08:	dc36                	sw	a3,56(sp)
    5f0a:	10e9ee63          	bltu	s3,a4,6026 <vbuf_printf+0x1d2>
    5f0e:	fbd78793          	addi	a5,a5,-67
    5f12:	0ff7f793          	zext.b	a5,a5
    5f16:	4755                	li	a4,21
    5f18:	f8f767e3          	bltu	a4,a5,5ea6 <vbuf_printf+0x52>
    5f1c:	078a                	slli	a5,a5,0x2
    5f1e:	97da                	add	a5,a5,s6
    5f20:	439c                	lw	a5,0(a5)
    5f22:	8782                	jr	a5
    5f24:	000ba783          	lw	a5,0(s7)
    5f28:	00094503          	lbu	a0,0(s2)
    5f2c:	20078063          	beqz	a5,612c <vbuf_printf+0x2d8>
    5f30:	9782                	jalr	a5
    5f32:	0911                	addi	s2,s2,4
    5f34:	0014c783          	lbu	a5,1(s1)
    5f38:	00148413          	addi	s0,s1,1
    5f3c:	fbb1                	bnez	a5,5e90 <vbuf_printf+0x3c>
    5f3e:	bf8d                	j	5eb0 <vbuf_printf+0x5c>
    5f40:	00092c03          	lw	s8,0(s2)
    5f44:	8562                	mv	a0,s8
    5f46:	24e5                	jal	622e <strlen>
    5f48:	5d32                	lw	s10,44(sp)
    5f4a:	ce2a                	sw	a0,28(sp)
    5f4c:	5dd2                	lw	s11,52(sp)
    5f4e:	842a                	mv	s0,a0
    5f50:	87aa                	mv	a5,a0
    5f52:	160d1663          	bnez	s10,60be <vbuf_printf+0x26a>
    5f56:	000c4503          	lbu	a0,0(s8)
    5f5a:	dd61                	beqz	a0,5f32 <vbuf_printf+0xde>
    5f5c:	5792                	lw	a5,36(sp)
    5f5e:	8462                	mv	s0,s8
    5f60:	fff78c93          	addi	s9,a5,-1
    5f64:	9c3e                	add	s8,s8,a5
    5f66:	9ca2                	add	s9,s9,s0
    5f68:	a029                	j	5f72 <vbuf_printf+0x11e>
    5f6a:	9782                	jalr	a5
    5f6c:	00044503          	lbu	a0,0(s0)
    5f70:	cd0d                	beqz	a0,5faa <vbuf_printf+0x156>
    5f72:	408c87b3          	sub	a5,s9,s0
    5f76:	d23e                	sw	a5,36(sp)
    5f78:	03840a63          	beq	s0,s8,5fac <vbuf_printf+0x158>
    5f7c:	000ba783          	lw	a5,0(s7)
    5f80:	0405                	addi	s0,s0,1
    5f82:	f7e5                	bnez	a5,5f6a <vbuf_printf+0x116>
    5f84:	004ba783          	lw	a5,4(s7)
    5f88:	d3f5                	beqz	a5,5f6c <vbuf_printf+0x118>
    5f8a:	008ba703          	lw	a4,8(s7)
    5f8e:	00cba683          	lw	a3,12(s7)
    5f92:	fcd75de3          	bge	a4,a3,5f6c <vbuf_printf+0x118>
    5f96:	00170693          	addi	a3,a4,1
    5f9a:	00dba423          	sw	a3,8(s7)
    5f9e:	97ba                	add	a5,a5,a4
    5fa0:	00a78023          	sb	a0,0(a5)
    5fa4:	00044503          	lbu	a0,0(s0)
    5fa8:	f569                	bnez	a0,5f72 <vbuf_printf+0x11e>
    5faa:	8c22                	mv	s8,s0
    5fac:	8562                	mv	a0,s8
    5fae:	2441                	jal	622e <strlen>
    5fb0:	ce2a                	sw	a0,28(sp)
    5fb2:	842a                	mv	s0,a0
    5fb4:	f60d0fe3          	beqz	s10,5f32 <vbuf_printf+0xde>
    5fb8:	f60d8de3          	beqz	s11,5f32 <vbuf_printf+0xde>
    5fbc:	5c02                	lw	s8,32(sp)
    5fbe:	f7845ae3          	bge	s0,s8,5f32 <vbuf_printf+0xde>
    5fc2:	02814c83          	lbu	s9,40(sp)
    5fc6:	a031                	j	5fd2 <vbuf_printf+0x17e>
    5fc8:	8566                	mv	a0,s9
    5fca:	9782                	jalr	a5
    5fcc:	0405                	addi	s0,s0,1
    5fce:	f68c02e3          	beq	s8,s0,5f32 <vbuf_printf+0xde>
    5fd2:	000ba783          	lw	a5,0(s7)
    5fd6:	fbed                	bnez	a5,5fc8 <vbuf_printf+0x174>
    5fd8:	004ba783          	lw	a5,4(s7)
    5fdc:	dbe5                	beqz	a5,5fcc <vbuf_printf+0x178>
    5fde:	008ba703          	lw	a4,8(s7)
    5fe2:	00cba683          	lw	a3,12(s7)
    5fe6:	fed753e3          	bge	a4,a3,5fcc <vbuf_printf+0x178>
    5fea:	00170693          	addi	a3,a4,1
    5fee:	00dba423          	sw	a3,8(s7)
    5ff2:	97ba                	add	a5,a5,a4
    5ff4:	01978023          	sb	s9,0(a5)
    5ff8:	bfd1                	j	5fcc <vbuf_printf+0x178>
    5ffa:	060c8363          	beqz	s9,6060 <vbuf_printf+0x20c>
    5ffe:	4601                	li	a2,0
    6000:	45a5                	li	a1,9
    6002:	0014c783          	lbu	a5,1(s1)
    6006:	00261693          	slli	a3,a2,0x2
    600a:	96b2                	add	a3,a3,a2
    600c:	0686                	slli	a3,a3,0x1
    600e:	00d70633          	add	a2,a4,a3
    6012:	fd078713          	addi	a4,a5,-48
    6016:	0ff77793          	zext.b	a5,a4
    601a:	8426                	mv	s0,s1
    601c:	0485                	addi	s1,s1,1
    601e:	fef5f2e3          	bgeu	a1,a5,6002 <vbuf_printf+0x1ae>
    6022:	d232                	sw	a2,36(sp)
    6024:	b5d1                	j	5ee8 <vbuf_printf+0x94>
    6026:	fdb78713          	addi	a4,a5,-37
    602a:	0ff77713          	zext.b	a4,a4
    602e:	05300693          	li	a3,83
    6032:	e6e6eae3          	bltu	a3,a4,5ea6 <vbuf_printf+0x52>
    6036:	070a                	slli	a4,a4,0x2
    6038:	9756                	add	a4,a4,s5
    603a:	4318                	lw	a4,0(a4)
    603c:	8702                	jr	a4
    603e:	4785                	li	a5,1
    6040:	da3e                	sw	a5,52(sp)
    6042:	8426                	mv	s0,s1
    6044:	b555                	j	5ee8 <vbuf_printf+0x94>
    6046:	000ba783          	lw	a5,0(s7)
    604a:	cfcd                	beqz	a5,6104 <vbuf_printf+0x2b0>
    604c:	02500513          	li	a0,37
    6050:	9782                	jalr	a5
    6052:	0014c783          	lbu	a5,1(s1)
    6056:	00148413          	addi	s0,s1,1
    605a:	e2079be3          	bnez	a5,5e90 <vbuf_printf+0x3c>
    605e:	bd89                	j	5eb0 <vbuf_printf+0x5c>
    6060:	03000693          	li	a3,48
    6064:	00d79463          	bne	a5,a3,606c <vbuf_printf+0x218>
    6068:	02f10423          	sb	a5,40(sp)
    606c:	4601                	li	a2,0
    606e:	45a5                	li	a1,9
    6070:	0014c783          	lbu	a5,1(s1)
    6074:	00261693          	slli	a3,a2,0x2
    6078:	96b2                	add	a3,a3,a2
    607a:	0686                	slli	a3,a3,0x1
    607c:	00d70633          	add	a2,a4,a3
    6080:	fd078713          	addi	a4,a5,-48
    6084:	0ff77793          	zext.b	a5,a4
    6088:	8426                	mv	s0,s1
    608a:	0485                	addi	s1,s1,1
    608c:	fef5f2e3          	bgeu	a1,a5,6070 <vbuf_printf+0x21c>
    6090:	4785                	li	a5,1
    6092:	d032                	sw	a2,32(sp)
    6094:	d63e                	sw	a5,44(sp)
    6096:	bd89                	j	5ee8 <vbuf_printf+0x94>
    6098:	004ba703          	lw	a4,4(s7)
    609c:	e00704e3          	beqz	a4,5ea4 <vbuf_printf+0x50>
    60a0:	008ba683          	lw	a3,8(s7)
    60a4:	00cba603          	lw	a2,12(s7)
    60a8:	dec6dee3          	bge	a3,a2,5ea4 <vbuf_printf+0x50>
    60ac:	00168613          	addi	a2,a3,1
    60b0:	00cba423          	sw	a2,8(s7)
    60b4:	9736                	add	a4,a4,a3
    60b6:	00f70023          	sb	a5,0(a4)
    60ba:	84a2                	mv	s1,s0
    60bc:	b3ed                	j	5ea6 <vbuf_printf+0x52>
    60be:	080d9a63          	bnez	s11,6152 <vbuf_printf+0x2fe>
    60c2:	5c82                	lw	s9,32(sp)
    60c4:	e99559e3          	bge	a0,s9,5f56 <vbuf_printf+0x102>
    60c8:	02814783          	lbu	a5,40(sp)
    60cc:	c63e                	sw	a5,12(sp)
    60ce:	a031                	j	60da <vbuf_printf+0x286>
    60d0:	4532                	lw	a0,12(sp)
    60d2:	9782                	jalr	a5
    60d4:	0405                	addi	s0,s0,1
    60d6:	0c8c8f63          	beq	s9,s0,61b4 <vbuf_printf+0x360>
    60da:	000ba783          	lw	a5,0(s7)
    60de:	fbed                	bnez	a5,60d0 <vbuf_printf+0x27c>
    60e0:	004ba783          	lw	a5,4(s7)
    60e4:	dbe5                	beqz	a5,60d4 <vbuf_printf+0x280>
    60e6:	008ba683          	lw	a3,8(s7)
    60ea:	00cba603          	lw	a2,12(s7)
    60ee:	fec6d3e3          	bge	a3,a2,60d4 <vbuf_printf+0x280>
    60f2:	4732                	lw	a4,12(sp)
    60f4:	00168613          	addi	a2,a3,1
    60f8:	00cba423          	sw	a2,8(s7)
    60fc:	97b6                	add	a5,a5,a3
    60fe:	00e78023          	sb	a4,0(a5)
    6102:	bfc9                	j	60d4 <vbuf_printf+0x280>
    6104:	004ba783          	lw	a5,4(s7)
    6108:	d8078fe3          	beqz	a5,5ea6 <vbuf_printf+0x52>
    610c:	008ba703          	lw	a4,8(s7)
    6110:	00cba683          	lw	a3,12(s7)
    6114:	d8d759e3          	bge	a4,a3,5ea6 <vbuf_printf+0x52>
    6118:	00170693          	addi	a3,a4,1
    611c:	97ba                	add	a5,a5,a4
    611e:	00dba423          	sw	a3,8(s7)
    6122:	02500713          	li	a4,37
    6126:	00e78023          	sb	a4,0(a5)
    612a:	bbb5                	j	5ea6 <vbuf_printf+0x52>
    612c:	004ba783          	lw	a5,4(s7)
    6130:	e00781e3          	beqz	a5,5f32 <vbuf_printf+0xde>
    6134:	008ba703          	lw	a4,8(s7)
    6138:	00cba683          	lw	a3,12(s7)
    613c:	ded75be3          	bge	a4,a3,5f32 <vbuf_printf+0xde>
    6140:	00170693          	addi	a3,a4,1
    6144:	00dba423          	sw	a3,8(s7)
    6148:	97ba                	add	a5,a5,a4
    614a:	00a78023          	sb	a0,0(a5)
    614e:	0911                	addi	s2,s2,4
    6150:	b3d5                	j	5f34 <vbuf_printf+0xe0>
    6152:	000c4503          	lbu	a0,0(s8)
    6156:	e00513e3          	bnez	a0,5f5c <vbuf_printf+0x108>
    615a:	843e                	mv	s0,a5
    615c:	b585                	j	5fbc <vbuf_printf+0x168>
    615e:	00092583          	lw	a1,0(s2)
    6162:	47a1                	li	a5,8
    6164:	00490413          	addi	s0,s2,4
    6168:	0874                	addi	a3,sp,28
    616a:	4641                	li	a2,16
    616c:	855e                	mv	a0,s7
    616e:	de3e                	sw	a5,60(sp)
    6170:	8922                	mv	s2,s0
    6172:	ad1ff0ef          	jal	ra,5c42 <outnum>
    6176:	0014c783          	lbu	a5,1(s1)
    617a:	00148413          	addi	s0,s1,1
    617e:	d00799e3          	bnez	a5,5e90 <vbuf_printf+0x3c>
    6182:	b33d                	j	5eb0 <vbuf_printf+0x5c>
    6184:	4785                	li	a5,1
    6186:	d83e                	sw	a5,48(sp)
    6188:	00092583          	lw	a1,0(s2)
    618c:	00490413          	addi	s0,s2,4
    6190:	0874                	addi	a3,sp,28
    6192:	4629                	li	a2,10
    6194:	855e                	mv	a0,s7
    6196:	aadff0ef          	jal	ra,5c42 <outnum>
    619a:	8922                	mv	s2,s0
    619c:	bfe9                	j	6176 <vbuf_printf+0x322>
    619e:	8426                	mv	s0,s1
    61a0:	b3a1                	j	5ee8 <vbuf_printf+0x94>
    61a2:	000ba703          	lw	a4,0(s7)
    61a6:	c31d                	beqz	a4,61cc <vbuf_printf+0x378>
    61a8:	853e                	mv	a0,a5
    61aa:	9702                	jalr	a4
    61ac:	0409                	addi	s0,s0,2
    61ae:	bb2d                	j	5ee8 <vbuf_printf+0x94>
    61b0:	4501                	li	a0,0
    61b2:	8082                	ret
    61b4:	000c4503          	lbu	a0,0(s8)
    61b8:	da0512e3          	bnez	a0,5f5c <vbuf_printf+0x108>
    61bc:	8562                	mv	a0,s8
    61be:	2885                	jal	622e <strlen>
    61c0:	ce2a                	sw	a0,28(sp)
    61c2:	0911                	addi	s2,s2,4
    61c4:	bb85                	j	5f34 <vbuf_printf+0xe0>
    61c6:	8426                	mv	s0,s1
    61c8:	4c85                	li	s9,1
    61ca:	bb39                	j	5ee8 <vbuf_printf+0x94>
    61cc:	004ba703          	lw	a4,4(s7)
    61d0:	df71                	beqz	a4,61ac <vbuf_printf+0x358>
    61d2:	008ba683          	lw	a3,8(s7)
    61d6:	00cba603          	lw	a2,12(s7)
    61da:	fcc6d9e3          	bge	a3,a2,61ac <vbuf_printf+0x358>
    61de:	00168613          	addi	a2,a3,1
    61e2:	00cba423          	sw	a2,8(s7)
    61e6:	9736                	add	a4,a4,a3
    61e8:	00f70023          	sb	a5,0(a4)
    61ec:	0409                	addi	s0,s0,2
    61ee:	b9ed                	j	5ee8 <vbuf_printf+0x94>

000061f0 <printf>:
    61f0:	6321                	lui	t1,0x8
    61f2:	b7c32303          	lw	t1,-1156(t1) # 7b7c <_stdout>
    61f6:	715d                	addi	sp,sp,-80
    61f8:	d606                	sw	ra,44(sp)
    61fa:	da2e                	sw	a1,52(sp)
    61fc:	dc32                	sw	a2,56(sp)
    61fe:	de36                	sw	a3,60(sp)
    6200:	c0ba                	sw	a4,64(sp)
    6202:	c2be                	sw	a5,68(sp)
    6204:	c4c2                	sw	a6,72(sp)
    6206:	c6c6                	sw	a7,76(sp)
    6208:	00030f63          	beqz	t1,6226 <printf+0x36>
    620c:	1850                	addi	a2,sp,52
    620e:	85aa                	mv	a1,a0
    6210:	0808                	addi	a0,sp,16
    6212:	c632                	sw	a2,12(sp)
    6214:	c81a                	sw	t1,16(sp)
    6216:	ca02                	sw	zero,20(sp)
    6218:	cc02                	sw	zero,24(sp)
    621a:	ce02                	sw	zero,28(sp)
    621c:	c39ff0ef          	jal	ra,5e54 <vbuf_printf>
    6220:	50b2                	lw	ra,44(sp)
    6222:	6161                	addi	sp,sp,80
    6224:	8082                	ret
    6226:	50b2                	lw	ra,44(sp)
    6228:	4501                	li	a0,0
    622a:	6161                	addi	sp,sp,80
    622c:	8082                	ret

0000622e <strlen>:
    622e:	00054783          	lbu	a5,0(a0)
    6232:	cb89                	beqz	a5,6244 <strlen+0x16>
    6234:	87aa                	mv	a5,a0
    6236:	0017c703          	lbu	a4,1(a5)
    623a:	0785                	addi	a5,a5,1
    623c:	ff6d                	bnez	a4,6236 <strlen+0x8>
    623e:	40a78533          	sub	a0,a5,a0
    6242:	8082                	ret
    6244:	4501                	li	a0,0
    6246:	8082                	ret
    6248:	36335b1b          	.4byte	0x36335b1b
    624c:	343b353b          	.4byte	0x343b353b
    6250:	726d                	lui	tp,0xffffb
    6252:	7365                	lui	t1,0xffff9
    6254:	7465                	lui	s0,0xffff9
    6256:	2520                	.2byte	0x2520
    6258:	1b64                	addi	s1,sp,444
    625a:	0d6d305b          	.4byte	0xd6d305b
    625e:	000a                	c.slli	zero,0x2
    6260:	6164                	.2byte	0x6164
    6262:	6174                	.2byte	0x6174
    6264:	746f6c73          	csrrsi	s8,0x746,30
    6268:	5520                	lw	s0,104(a0)
    626a:	6470                	.2byte	0x6470
    626c:	7461                	lui	s0,0xffff8
    626e:	2065                	jal	6316 <strlen+0xe8>
    6270:	6425                	lui	s0,0x9
    6272:	0a0d                	addi	s4,s4,3
    6274:	0000                	unimp
    6276:	0000                	unimp
    6278:	38335b1b          	.4byte	0x38335b1b
    627c:	353b313b          	.4byte	0x353b313b
    6280:	206d                	jal	632a <strlen+0xfc>
    6282:	6425                	lui	s0,0x9
    6284:	7320                	.2byte	0x7320
    6286:	7264                	.2byte	0x7264
    6288:	7165                	addi	sp,sp,-400
    628a:	1b35                	addi	s6,s6,-19
    628c:	0d6d305b          	.4byte	0xd6d305b
    6290:	000a                	c.slli	zero,0x2
    6292:	0000                	unimp
    6294:	38335b1b          	.4byte	0x38335b1b
    6298:	353b313b          	.4byte	0x353b313b
    629c:	206d                	jal	6346 <strlen+0x118>
    629e:	6425                	lui	s0,0x9
    62a0:	7320                	.2byte	0x7320
    62a2:	7264                	.2byte	0x7264
    62a4:	7165                	addi	sp,sp,-400
    62a6:	305b1b37          	lui	s6,0x305b1
    62aa:	0d6d                	addi	s10,s10,27
    62ac:	000a                	c.slli	zero,0x2
    62ae:	0000                	unimp
    62b0:	38335b1b          	.4byte	0x38335b1b
    62b4:	353b313b          	.4byte	0x353b313b
    62b8:	206d                	jal	6362 <strlen+0x134>
    62ba:	6425                	lui	s0,0x9
    62bc:	7320                	.2byte	0x7320
    62be:	7264                	.2byte	0x7264
    62c0:	7165                	addi	sp,sp,-400
    62c2:	1b36                	slli	s6,s6,0x2d
    62c4:	0d6d305b          	.4byte	0xd6d305b
    62c8:	000a                	c.slli	zero,0x2
    62ca:	0000                	unimp
    62cc:	6d305b1b          	.4byte	0x6d305b1b
    62d0:	0000                	unimp
    62d2:	0000                	unimp
    62d4:	4952                	lw	s2,20(sp)
    62d6:	4d204353          	.4byte	0x4d204353
    62da:	5550                	lw	a2,44(a0)
    62dc:	5320                	lw	s0,96(a4)
    62de:	6174                	.2byte	0x6174
    62e0:	7472                	.2byte	0x7472
    62e2:	7075                	c.lui	zero,0xffffd
    62e4:	6320                	.2byte	0x6320
    62e6:	0d65726f          	jal	tp,5d3bc <MEM_SIZE+0x3d3bc>
    62ea:	000a                	c.slli	zero,0x2
    62ec:	61657243          	.4byte	0x61657243
    62f0:	6574                	.2byte	0x6574
    62f2:	2064                	.2byte	0x2064
    62f4:	7942                	.2byte	0x7942
    62f6:	4d20                	lw	s0,88(a0)
    62f8:	7a61                	lui	s4,0xffff8
    62fa:	6d61                	lui	s10,0x18
    62fc:	7261                	lui	tp,0xffff8
    62fe:	32313373          	csrrc	t1,mhpmevent3,sp
    6302:	0a0d                	addi	s4,s4,3 # ffff8003 <MEM_SIZE+0xfffd8003>
    6304:	0000                	unimp
    6306:	0000                	unimp
    6308:	614d                	addi	sp,sp,176
    630a:	6920656b          	.4byte	0x6920656b
    630e:	206e                	.2byte	0x206e
    6310:	3032                	.2byte	0x3032
    6312:	3232                	.2byte	0x3232
    6314:	0a0d                	addi	s4,s4,3
    6316:	0000                	unimp
    6318:	2049                	jal	639a <strlen+0x16c>
    631a:	6168                	.2byte	0x6168
    631c:	6574                	.2byte	0x6574
    631e:	7420                	.2byte	0x7420
    6320:	6968                	.2byte	0x6968
    6322:	65642073          	csrs	0x656,s0
    6326:	7562                	.2byte	0x7562
    6328:	72656767          	.4byte	0x72656767
    632c:	4c20                	lw	s0,88(s0)
    632e:	0a0d4c4f          	.4byte	0xa0d4c4f
    6332:	0000                	unimp
    6334:	6261                	lui	tp,0x18
    6336:	2074756f          	jal	a0,4dd3c <MEM_SIZE+0x2dd3c>
    633a:	6f74                	.2byte	0x6f74
    633c:	6720                	.2byte	0x6720
    633e:	6e69206f          	j	98a24 <MEM_SIZE+0x78a24>
    6342:	6220                	.2byte	0x6220
    6344:	6261                	lui	tp,0x18
    6346:	0d79                	addi	s10,s10,30 # 1801e <_end+0x4a5e>
    6348:	000a                	c.slli	zero,0x2
    634a:	0000                	unimp
    634c:	6144                	.2byte	0x6144
    634e:	6174                	.2byte	0x6174
    6350:	5320                	lw	s0,96(a4)
    6352:	6f6c                	.2byte	0x6f6c
    6354:	2074                	.2byte	0x2074
    6356:	7055                	c.lui	zero,0xffff5
    6358:	6164                	.2byte	0x6164
    635a:	6574                	.2byte	0x6574
    635c:	0a0d                	addi	s4,s4,3
    635e:	0000                	unimp
    6360:	6144                	.2byte	0x6144
    6362:	6174                	.2byte	0x6174
    6364:	5320                	lw	s0,96(a4)
    6366:	6f6c                	.2byte	0x6f6c
    6368:	2074                	.2byte	0x2074
    636a:	6f64                	.2byte	0x6f64
    636c:	656e                	.2byte	0x656e
    636e:	0a0d                	addi	s4,s4,3
    6370:	0000                	unimp
    6372:	0000                	unimp
    6374:	72617473          	csrrci	s0,mhpmevent6h,2
    6378:	6974                	.2byte	0x6974
    637a:	676e                	.2byte	0x676e
    637c:	7420                	.2byte	0x7420
    637e:	6568                	.2byte	0x6568
    6380:	7220                	.2byte	0x7220
    6382:	7365                	lui	t1,0xffff9
    6384:	7465                	lui	s0,0xffff9
    6386:	0a0d                	addi	s4,s4,3
    6388:	0000                	unimp
    638a:	0000                	unimp
    638c:	706d6f43          	.4byte	0x706d6f43
    6390:	656c                	.2byte	0x656c
    6392:	6574                	.2byte	0x6574
    6394:	2064                	.2byte	0x2064
    6396:	6874                	.2byte	0x6874
    6398:	2065                	jal	6440 <strlen+0x212>
    639a:	6572                	.2byte	0x6572
    639c:	0d746573          	csrrsi	a0,0xd7,8
    63a0:	000a                	c.slli	zero,0x2
    63a2:	0000                	unimp
    63a4:	0a0d                	addi	s4,s4,3
    63a6:	4d31                	li	s10,12
    63a8:	5220                	lw	s0,96(a2)
    63aa:	0a0d6d6f          	jal	s10,dc44a <MEM_SIZE+0xbc44a>
    63ae:	0000                	unimp
    63b0:	0a0d                	addi	s4,s4,3
    63b2:	3135                	jal	5fde <vbuf_printf+0x18a>
    63b4:	4d32                	lw	s10,12(sp)
    63b6:	5220                	lw	s0,96(a2)
    63b8:	0a0d6d6f          	jal	s10,dc458 <MEM_SIZE+0xbc458>
    63bc:	0000                	unimp
    63be:	0000                	unimp
    63c0:	0a0d                	addi	s4,s4,3
    63c2:	3532                	.2byte	0x3532
    63c4:	4d36                	lw	s10,76(sp)
    63c6:	5220                	lw	s0,96(a2)
    63c8:	0a0d6d6f          	jal	s10,dc468 <MEM_SIZE+0xbc468>
    63cc:	0000                	unimp
    63ce:	0000                	unimp
    63d0:	4f44                	lw	s1,28(a4)
    63d2:	454e                	lw	a0,208(sp)
    63d4:	4220                	lw	s0,64(a2)
    63d6:	4f49                	li	t5,18
    63d8:	4f4c2053          	.4byte	0x4f4c2053
    63dc:	4441                	li	s0,16
    63de:	0a0d                	addi	s4,s4,3
    63e0:	0000                	unimp
    63e2:	0000                	unimp
    63e4:	4f44                	lw	s1,28(a4)
    63e6:	454e                	lw	a0,208(sp)
    63e8:	4320                	lw	s0,64(a4)
    63ea:	2065726f          	jal	tp,5d5f0 <MEM_SIZE+0x3d5f0>
    63ee:	75746553          	.4byte	0x75746553
    63f2:	0d70                	addi	a2,sp,668
    63f4:	000a                	c.slli	zero,0x2
    63f6:	0000                	unimp
    63f8:	6148                	.2byte	0x6148
    63fa:	6472                	.2byte	0x6472
    63fc:	7264                	.2byte	0x7264
    63fe:	7669                	lui	a2,0xffffa
    6400:	2065                	jal	64a8 <strlen+0x27a>
    6402:	7261                	lui	tp,0xffff8
    6404:	2065                	jal	64ac <strlen+0x27e>
    6406:	6562                	.2byte	0x6562
    6408:	6e69                	lui	t3,0x1a
    640a:	65732067          	.4byte	0x65732067
    640e:	7574                	.2byte	0x7574
    6410:	2070                	.2byte	0x2070
    6412:	6e69                	lui	t3,0x1a
    6414:	7420                	.2byte	0x7420
    6416:	6568                	.2byte	0x6568
    6418:	6320                	.2byte	0x6320
    641a:	0d65726f          	jal	tp,5d4f0 <MEM_SIZE+0x3d4f0>
    641e:	000a                	c.slli	zero,0x2
    6420:	6148                	.2byte	0x6148
    6422:	6472                	.2byte	0x6472
    6424:	7264                	.2byte	0x7264
    6426:	7669                	lui	a2,0xffffa
    6428:	2065                	jal	64d0 <strlen+0x2a2>
    642a:	75746573          	csrrsi	a0,0x757,8
    642e:	7370                	.2byte	0x7370
    6430:	2520                	.2byte	0x2520
    6432:	2e30                	.2byte	0x2e30
    6434:	7834                	.2byte	0x7834
    6436:	0d20                	addi	s0,sp,664
    6438:	000a                	c.slli	zero,0x2
    643a:	0000                	unimp
    643c:	0045                	c.nop	17
    643e:	0000                	unimp
    6440:	00000053          	.4byte	0x53
    6444:	00000043          	.4byte	0x43
    6448:	0020                	addi	s0,sp,8
    644a:	0000                	unimp
    644c:	0046                	c.slli	zero,0x11
    644e:	0000                	unimp
    6450:	0031                	c.nop	12
    6452:	0000                	unimp
    6454:	0032                	c.slli	zero,0xc
    6456:	0000                	unimp
    6458:	00000033          	add	zero,zero,zero
    645c:	0034                	addi	a3,sp,8
    645e:	0000                	unimp
    6460:	0035                	c.nop	13
    6462:	0000                	unimp
    6464:	0036                	c.slli	zero,0xd
    6466:	0000                	unimp
    6468:	00000037          	lui	zero,0x0
    646c:	0038                	addi	a4,sp,8
    646e:	0000                	unimp
    6470:	0039                	c.nop	14
    6472:	0000                	unimp
    6474:	0030                	addi	a2,sp,8
    6476:	0000                	unimp
    6478:	0048                	addi	a0,sp,4
    647a:	0000                	unimp
    647c:	004c                	addi	a1,sp,4
    647e:	0000                	unimp
    6480:	0050                	addi	a2,sp,4
    6482:	0000                	unimp
    6484:	007e                	c.slli	zero,0x1f
    6486:	0000                	unimp
    6488:	002d                	c.nop	11
    648a:	0000                	unimp
    648c:	0000002b          	.4byte	0x2b
    6490:	0042                	c.slli	zero,0x10
    6492:	0000                	unimp
    6494:	0044                	addi	s1,sp,4
    6496:	0000                	unimp
    6498:	0054                	addi	a3,sp,4
    649a:	0000                	unimp
    649c:	0041                	c.nop	16
    649e:	0000                	unimp
    64a0:	0051                	c.nop	20
    64a2:	0000                	unimp
    64a4:	00000057          	.4byte	0x57
    64a8:	0052                	c.slli	zero,0x14
    64aa:	0000                	unimp
    64ac:	0059                	c.nop	22
    64ae:	0000                	unimp
    64b0:	0055                	c.nop	21
    64b2:	0000                	unimp
    64b4:	0049                	c.nop	18
    64b6:	0000                	unimp
    64b8:	0000004f          	.4byte	0x4f
    64bc:	0000007b          	.4byte	0x7b
    64c0:	007d                	c.nop	31
    64c2:	0000                	unimp
    64c4:	007c                	addi	a5,sp,12
    64c6:	0000                	unimp
    64c8:	00000047          	.4byte	0x47
    64cc:	004a                	c.slli	zero,0x12
    64ce:	0000                	unimp
    64d0:	0000004b          	.4byte	0x4b
    64d4:	003a                	c.slli	zero,0xe
    64d6:	0000                	unimp
    64d8:	00000027          	.4byte	0x27
    64dc:	005a                	c.slli	zero,0x16
    64de:	0000                	unimp
    64e0:	0058                	addi	a4,sp,4
    64e2:	0000                	unimp
    64e4:	0056                	c.slli	zero,0x15
    64e6:	0000                	unimp
    64e8:	004e                	c.slli	zero,0x13
    64ea:	0000                	unimp
    64ec:	004d                	c.nop	19
    64ee:	0000                	unimp
    64f0:	002c                	addi	a1,sp,8
    64f2:	0000                	unimp
    64f4:	002e                	c.slli	zero,0xb
    64f6:	0000                	unimp
    64f8:	0000003f 00000012 	.8byte	0x120000003f
    6500:	0010                	.2byte	0x10
    6502:	0000                	unimp
    6504:	00000013          	nop
    6508:	0011                	c.nop	4
    650a:	0000                	unimp
    650c:	2bd2                	.2byte	0x2bd2
    650e:	0000                	unimp
    6510:	2bd2                	.2byte	0x2bd2
    6512:	0000                	unimp
    6514:	2bd2                	.2byte	0x2bd2
    6516:	0000                	unimp
    6518:	2c08                	.2byte	0x2c08
    651a:	0000                	unimp
    651c:	2c04                	.2byte	0x2c04
    651e:	0000                	unimp
    6520:	2c10                	.2byte	0x2c10
    6522:	0000                	unimp
    6524:	2c28                	.2byte	0x2c28
    6526:	0000                	unimp
    6528:	2c24                	.2byte	0x2c24
    652a:	0000                	unimp
    652c:	2c20                	.2byte	0x2c20
    652e:	0000                	unimp
    6530:	2c1c                	.2byte	0x2c1c
    6532:	0000                	unimp
    6534:	2c14                	.2byte	0x2c14
    6536:	0000                	unimp
    6538:	2bfc                	.2byte	0x2bfc
    653a:	0000                	unimp
    653c:	2bfc                	.2byte	0x2bfc
    653e:	0000                	unimp
    6540:	2c18                	.2byte	0x2c18
    6542:	0000                	unimp
    6544:	2c0c                	.2byte	0x2c0c
    6546:	0000                	unimp
    6548:	2982                	.2byte	0x2982
    654a:	0000                	unimp
    654c:	2bd2                	.2byte	0x2bd2
    654e:	0000                	unimp
    6550:	2c08                	.2byte	0x2c08
    6552:	0000                	unimp
    6554:	2c08                	.2byte	0x2c08
    6556:	0000                	unimp
    6558:	2c04                	.2byte	0x2c04
    655a:	0000                	unimp
    655c:	2c04                	.2byte	0x2c04
    655e:	0000                	unimp
    6560:	2c10                	.2byte	0x2c10
    6562:	0000                	unimp
    6564:	2c10                	.2byte	0x2c10
    6566:	0000                	unimp
    6568:	2c10                	.2byte	0x2c10
    656a:	0000                	unimp
    656c:	2c28                	.2byte	0x2c28
    656e:	0000                	unimp
    6570:	2c28                	.2byte	0x2c28
    6572:	0000                	unimp
    6574:	2c24                	.2byte	0x2c24
    6576:	0000                	unimp
    6578:	2c1c                	.2byte	0x2c1c
    657a:	0000                	unimp
    657c:	2c08                	.2byte	0x2c08
    657e:	0000                	unimp
    6580:	2c04                	.2byte	0x2c04
    6582:	0000                	unimp
    6584:	2c10                	.2byte	0x2c10
    6586:	0000                	unimp
    6588:	2c28                	.2byte	0x2c28
    658a:	0000                	unimp
    658c:	2c24                	.2byte	0x2c24
    658e:	0000                	unimp
    6590:	2c20                	.2byte	0x2c20
    6592:	0000                	unimp
    6594:	2c1c                	.2byte	0x2c1c
    6596:	0000                	unimp
    6598:	2c14                	.2byte	0x2c14
    659a:	0000                	unimp
    659c:	2bfc                	.2byte	0x2bfc
    659e:	0000                	unimp
    65a0:	2c0c                	.2byte	0x2c0c
    65a2:	0000                	unimp
    65a4:	2be2                	.2byte	0x2be2
    65a6:	0000                	unimp
    65a8:	2c00                	.2byte	0x2c00
    65aa:	0000                	unimp
    65ac:	2c00                	.2byte	0x2c00
    65ae:	0000                	unimp
    65b0:	2c2c                	.2byte	0x2c2c
    65b2:	0000                	unimp
    65b4:	2bd2                	.2byte	0x2bd2
    65b6:	0000                	unimp
    65b8:	2c04                	.2byte	0x2c04
    65ba:	0000                	unimp
    65bc:	2c28                	.2byte	0x2c28
    65be:	0000                	unimp
    65c0:	2c1c                	.2byte	0x2c1c
    65c2:	0000                	unimp
    65c4:	2bfc                	.2byte	0x2bfc
    65c6:	0000                	unimp
    65c8:	2c0c                	.2byte	0x2c0c
    65ca:	0000                	unimp
    65cc:	2be2                	.2byte	0x2be2
    65ce:	0000                	unimp
    65d0:	2be2                	.2byte	0x2be2
    65d2:	0000                	unimp
    65d4:	2be2                	.2byte	0x2be2
    65d6:	0000                	unimp
    65d8:	2c08                	.2byte	0x2c08
    65da:	0000                	unimp
    65dc:	2c10                	.2byte	0x2c10
    65de:	0000                	unimp
    65e0:	2c28                	.2byte	0x2c28
    65e2:	0000                	unimp
    65e4:	2c24                	.2byte	0x2c24
    65e6:	0000                	unimp
    65e8:	2c20                	.2byte	0x2c20
    65ea:	0000                	unimp
    65ec:	2c1c                	.2byte	0x2c1c
    65ee:	0000                	unimp
    65f0:	2c14                	.2byte	0x2c14
    65f2:	0000                	unimp
    65f4:	2bfc                	.2byte	0x2bfc
    65f6:	0000                	unimp
    65f8:	2c18                	.2byte	0x2c18
    65fa:	0000                	unimp
    65fc:	2c0c                	.2byte	0x2c0c
    65fe:	0000                	unimp
    6600:	2c00                	.2byte	0x2c00
    6602:	0000                	unimp
    6604:	2c2c                	.2byte	0x2c2c
    6606:	0000                	unimp
    6608:	2982                	.2byte	0x2982
    660a:	0000                	unimp
    660c:	2bd2                	.2byte	0x2bd2
    660e:	0000                	unimp
    6610:	2c08                	.2byte	0x2c08
    6612:	0000                	unimp
    6614:	2c04                	.2byte	0x2c04
    6616:	0000                	unimp
    6618:	2c10                	.2byte	0x2c10
    661a:	0000                	unimp
    661c:	2c28                	.2byte	0x2c28
    661e:	0000                	unimp
    6620:	2c24                	.2byte	0x2c24
    6622:	0000                	unimp
    6624:	2c20                	.2byte	0x2c20
    6626:	0000                	unimp
    6628:	2c1c                	.2byte	0x2c1c
    662a:	0000                	unimp
    662c:	2c14                	.2byte	0x2c14
    662e:	0000                	unimp
    6630:	2bfc                	.2byte	0x2bfc
    6632:	0000                	unimp
    6634:	2bfc                	.2byte	0x2bfc
    6636:	0000                	unimp
    6638:	2bfc                	.2byte	0x2bfc
    663a:	0000                	unimp
    663c:	2c0c                	.2byte	0x2c0c
    663e:	0000                	unimp
    6640:	2c00                	.2byte	0x2c00
	...

00006644 <_ZL18osdKeyboardlocater>:
    6644:	5045 5251 5453 5655 5857 5f59 ffff 00ff     EPQRSTUVWXY_....
    6654:	0201 0403 0605 0807 0a09 0c0b 4641 1042     ............AFB.
    6664:	1211 1413 1615 1817 1a19 0d1b 62ff 2120     .............b !
    6674:	2322 2524 2726 2928 442a ffff 3160 3332     "#$%&'()*D..`123
    6684:	3534 3736 3938 613a ff4c 63ff 6664 6740     456789:aL..cdf@g
    6694:	4f65 4e4d ffff ffff ffff 0000 5053 3d54     eOMN........SPT=
    66a4:	6425 202c 6548 6461 3d73 6425 0a0d 0000     %d, Heads=%d....
    66b4:	654e 2077 5053 3d54 6425 202c 6548 6461     New SPT=%d, Head
    66c4:	3d73 6425 202c 7943 696c 646e 7265 3d73     s=%d, Cylinders=
    66d4:	6425 0a0d 0000 0000 6469 5f65 6572 5f67     %d......ide_reg_
    66e4:	6573 2074 3025 382e 2058 3025 342e 0d58     set %0.8X %0.4X.
    66f4:	000a 0000 2020 6573 7463 726f 635f 756f     ....  sector_cou
    6704:	746e 203a 6425 0a0d 0000 0000 4546 4444     nt: %d......FEDD
    6714:	4453 5520 5350 0a0d 0000 0000 2020 6f6c     SD UPS......  lo
    6724:	706f 203a 6425 0a0d 0000 0000 2020 6966     op: %d......  fi
    6734:	696e 6873 0a0d 0000 654e 2077 6c62 636f     nish....New bloc
    6744:	206b 6973 657a 203a 6425 0a0d 0000 0000     k size: %d......
    6754:	6552 6573 2074 6f63 6d6d 6e61 2064 3028     Reset command (0
    6764:	6838 2029 6f66 2072 4448 2044 6f6e 2074     8h) for HDD not 
    6774:	7573 7070 726f 6574 0d64 000a 6552 6563     supported...Rece
    6784:	7669 6465 7220 6165 2064 6576 6972 7966     ived read verify
    6794:	6320 6d6f 616d 646e 202e 6f4e 2074 6d69      command. Not im
    67a4:	6c70 6d65 6e65 6574 2064 7562 2074 6572     plemented but re
    67b4:	7574 6e72 6e69 2067 4b4f 0d2e 000a 0000     turning OK......
    67c4:	2128 2029 6e55 7573 7070 726f 6574 2064     (!) Unsupported 
    67d4:	6f63 6d6d 6e61 2064 2528 3430 2958 0a0d     command (%04X)..
    67e4:	0000 0000 340e 0000 33c2 0000 33c2 0000     .....4...3...3..
    67f4:	33c2 0000 33c2 0000 33c2 0000 33c2 0000     .3...3...3...3..
    6804:	33c2 0000 33d2 0000 33d2 0000 33d2 0000     .3...3...3...3..
    6814:	33d2 0000 33d2 0000 33d2 0000 33d2 0000     .3...3...3...3..
    6824:	33d2 0000 33d2 0000 33d2 0000 33d2 0000     .3...3...3...3..
    6834:	33d2 0000 33d2 0000 33d2 0000 33d2 0000     .3...3...3...3..
    6844:	33d2 0000 33ec 0000 33ec 0000 33c2 0000     .3...3...3...3..
    6854:	33c2 0000 33c2 0000 33c2 0000 33c2 0000     .3...3...3...3..
    6864:	33c2 0000 33c2 0000 33c2 0000 33c2 0000     .3...3...3...3..
    6874:	33c2 0000 33c2 0000 33c2 0000 33c2 0000     .3...3...3...3..
    6884:	33c2 0000 33e4 0000 33e4 0000 33c2 0000     .3...3...3...3..
    6894:	33c2 0000 33c2 0000 33c2 0000 33c2 0000     .3...3...3...3..
    68a4:	33c2 0000 33c2 0000 33c2 0000 33c2 0000     .3...3...3...3..
    68b4:	33c2 0000 33c2 0000 33c2 0000 33c2 0000     .3...3...3...3..
    68c4:	33c2 0000 33f4 0000 5441 4e54 203a 6c49     .3...3..ATTN: Il
    68d4:	656c 6167 206c 4843 2053 6176 756c 2865     legal CHS value(
    68e4:	2973 0d2e 000a 0000 5420 6172 736e 616c     s)...... Transla
    68f4:	6574 203a 6573 7463 726f 2073 6425 3e2d     te: sectors %d->
    6904:	6425 202c 6568 6461 2073 6425 3e2d 6425     %d, heads %d->%d
    6914:	0d2e 000a 4420 4e41 4547 4f52 5355 203a     .... DANGEROUS: 
    6924:	6143 6e6e 746f 7420 6172 736e 616c 6574     Cannot translate
    6934:	7420 206f 656c 6167 206c 4843 2053 6176      to legal CHS va
    6944:	756c 7365 202e 6552 632d 6c61 7563 616c     lues. Re-calcula
    6954:	6574 7420 6568 4320 5348 0d2e 000a 0000     te the CHS......
    6964:	6f46 6e75 2064 4452 2042 6568 6461 7265     Found RDB header
    6974:	2d20 203e 616e 6974 6576 4120 696d 6167      -> native Amiga
    6984:	6920 616d 6567 0d2e 000a 0000 6f4e 5220      image......No R
    6994:	4244 6820 6165 6564 2072 6f66 6e75 2064     DB header found 
    69a4:	6e69 4820 4644 6920 616d 6567 202e 7341     in HDF image. As
    69b4:	7573 656d 6920 2774 2073 6d69 6761 2065     sume it's image 
    69c4:	666f 7320 6e69 6c67 2065 6170 7472 7469     of single partit
    69d4:	6f69 2e6e 5520 6573 5620 7269 7574 6c61     ion. Use Virtual
    69e4:	5220 4244 6820 6165 6564 2e72 0a0d 0000      RDB header.....
    69f4:	6f4e 5220 4244 6820 6165 6564 2072 6f66     No RDB header fo
    6a04:	6e75 2e64 5020 736f 6973 6c62 2065 6f6e     und. Possible no
    6a14:	2d6e 6d41 6769 2061 726f 6520 706d 7974     n-Amiga or empty
    6a24:	6920 616d 6567 0d2e 000a 0000 7264 2076      image......drv 
    6a34:	6425 2520 0064 0000 6f70 7472 2520 0064     %d %d...port %d.
    6a44:	4448 2544 3a64 2020 7270 7365 6e65 2074     HDD%d:  present 
    6a54:	6425 2020 6468 635f 6c79 6e69 6564 7372     %d  hd_cylinders
    6a64:	2520 2064 6820 5f64 6568 6461 2073 6425      %d  hd_heads %d
    6a74:	2020 6468 735f 7470 2520 2064 6820 5f64       hd_spt %d  hd_
    6a84:	6f74 6174 5f6c 6573 7463 726f 2073 6425     total_sectors %d
    6a94:	0a0d 0000 4449 2045 6f50 6e69 6574 2072     ....IDE Pointer 
    6aa4:	2520 3830 2058 0a0d 0000 0000 4449 2045      %08X ......IDE 
    6ab4:	6f63 6d6d 6e61 3a64 2520 2064 3025 5832     command: %d %02X
    6ac4:	2820 6e6f 2520 2964 0a0d 0000 2128 2029      (on %d)....(!) 
    6ad4:	4449 2045 6e75 6e6b 776f 206e 7473 7461     IDE unknown stat
    6ae4:	2165 0a0d 0000 0000 4449 2045 3025 5834     e!......IDE %04X
    6af4:	7220 7365 7465 7320 6174 7472 0a0d 0000      reset start....
    6b04:	4448 5b46 6e75 7469 205d 3025 5838 0d20     HDF[unit] %08X .
    6b14:	000a 0000 430a 6568 6b63 6e69 2067 4448     .....Checking HD
    6b24:	2044 6425 0a0d 0000 6973 657a 203a 6425     D %d....size: %d
    6b34:	2820 6425 4d20 2942 0a0d 0000 6468 3a66      (%d MB)....hdf:
    6b44:	2520 2f75 7525 252f 0075 0000 2820 6425      %u/%u/%u... (%d
    6b54:	4d20 2942 202c 0000 664f 7366 7465 203a      MB), ..Offset: 
    6b64:	6425 0a0d 0000 0000 6341 6974 6576 2520     %d......Active %
    6b74:	0d64 000a 6f4d 7375 2065 6944 6173 6c62     d...Mouse Disabl
    6b84:	6465 0000 6f4d 7375 2065 6e45 6261 656c     ed..Mouse Enable
    6b94:	0064 0000 6f4a 7379 6974 6b63 4120 6363     d...Joystick Acc
    6ba4:	7365 2073 6f63 6e75 2074 2058 3025 342e     ess count X %0.4
    6bb4:	2078 2059 3025 342e 0d78 000a               x Y %0.4x...

00006bc0 <_ZL13mapHidToAmiga>:
    6bc0:	ffff ffff 3520 2233 2312 2524 2617 2827     .... 53".#$%.&'(
    6bd0:	3637 1918 1310 1421 3416 3211 3115 0201     76....!..4.2.1..
    6be0:	0403 0605 0807 0a09 4544 4241 0b40 1a0c     ........DEAB@...
    6bf0:	0d1b 29ff 002a 3938 623a 5150 5352 5554     ...)*.89:bPQRSTU
    6c00:	5756 5958 ffff ffff 5fff ffff ff46 4eff     VWXY....._..F..N
    6c10:	4d4f ff4c 5d5c 5e4a 1d43 1f1e 2e2d 3d2f     OML.\]J^C...-./=
    6c20:	3f3e 3c0f 67ff ffff ffff ffff ffff ffff     >?.<.g..........
    6c30:	ffff ffff ffff ffff ffff ffff ffff ffff     ................
    6c40:	ffff ffff ffff ffff ffff ffff ffff ffff     ................
    6c50:	ffff ffff ffff ffff ffff ffff ffff ffff     ................
    6c60:	ffff ffff ffff ffff ffff ffff ffff ffff     ................
    6c70:	ffff ffff ffff ffff ffff ffff ffff ffff     ................
    6c80:	ffff ffff ffff ffff ffff ffff ffff ffff     ................
    6c90:	ffff ffff ffff ffff ffff ffff ffff ffff     ................
    6ca0:	ffff ffff ffff ffff ffff ffff ffff ffff     ................
    6cb0:	ffff ffff ffff ffff ffff ffff ffff ffff     ................
    6cc0:	5b1b 3833 313b 353b 436d 6568 6b63 6320     .[38;1;5mCheck c
    6cd0:	646f 7365 2520 2e30 5834 5b1b 6d30 0a0d     odes %0.4X.[0m..
    6ce0:	0000 0000 756e 626d 7265 7620 6c61 6575     ....number value
    6cf0:	203a 6425 0d20 000a 756e 626d 7265 7320     : %d ...number s
    6d00:	6f6c 3a74 2520 2064 0a0d 0000 756e 626d     lot: %d ....numb
    6d10:	7265 7320 7a69 3a65 2520 2064 0a0d 0000     er size: %d ....
    6d20:	5041 2046 6572 6461 203a 6425 202c 3025     APF read: %d, %0
    6d30:	342e 2c78 2520 2e30 7834 202c 3025 342e     .4x, %0.4x, %0.4
    6d40:	2c78 2520 0d64 000a 5b1b 3633 353b 343b     x, %d....[36;5;4
    6d50:	416d 4650 4620 4941 444c 6420 7461 7361     mAPF FAILD datas
    6d60:	6f6c 5f74 6572 6461 6320 6568 6b63 203f     lot_read check? 
    6d70:	6164 6174 6c73 746f 2520 2c64 6120 6464     dataslot %d, add
    6d80:	6572 7373 2520 2e30 5834 202c 666f 7366     ress %0.4X, offs
    6d90:	7465 3025 342e 2c58 6c20 6e65 7467 2568     et%0.4X, length%
    6da0:	2e30 5834 5b1b 6d30 0a0d 0000 5b1b 3633     0.4X.[0m.....[36
    6db0:	353b 343b 416d 4650 4620 4941 444c 6420     ;5;4mAPF FAILD d
    6dc0:	7461 7361 6f6c 5f74 6572 6461 6420 6e6f     ataslot_read don
    6dd0:	3f65 6420 7461 7361 6f6c 2074 6425 202c     e? dataslot %d, 
    6de0:	6461 7264 7365 2073 3025 342e 2c58 6f20     address %0.4X, o
    6df0:	6666 6573 2074 3025 342e 2c58 6c20 6e65     ffset %0.4X, len
    6e00:	7467 2068 3025 342e 2058 7265 6f72 2072     gth %0.4X error 
    6e10:	3025 342e 1b58 305b 0d6d 000a 5b1b 3833     %0.4X.[0m....[38
    6e20:	313b 353b 646d 6e6f 1b65 305b 0d6d 000a     ;1;5mdone.[0m...
    6e30:	5041 2046 7257 7469 3a65 2520 2c64 2520     APF Write: %d, %
    6e40:	2e30 7834 202c 3025 342e 2c78 2520 0d64     0.4x, %0.4x, %d.
    6e50:	000a 0000 5b1b 3633 353b 343b 416d 4650     .....[36;5;4mAPF
    6e60:	4620 4941 444c 6420 7461 7361 6f6c 5f74      FAILD dataslot_
    6e70:	7277 7469 3f65 6420 7461 7361 6f6c 2074     write? dataslot 
    6e80:	6425 202c 6461 7264 7365 2073 3025 342e     %d, address %0.4
    6e90:	2c58 6f20 6666 6573 2574 2e30 5834 202c     X, offset%0.4X, 
    6ea0:	656c 676e 6874 3025 342e 1b58 305b 0d6d     length%0.4X.[0m.
    6eb0:	000a 0000 530a 6365 6e6f 2064 7973 636e     .....Second sync
    6ec0:	7720 726f 2064 696d 7373 6e69 2e67 2e2e      word missing...
    6ed0:	000a 0000 570a 6f72 676e 6820 6165 6564     .....Wrong heade
    6ee0:	3a72 2520 2e75 7525 252e 2e75 7525 000a     r: %u.%u.%u.%u..
    6ef0:	7257 7469 2065 7461 6574 706d 2074 6f74     Write attempt to
    6f00:	7020 6f72 6574 7463 6465 6420 7369 216b      protected disk!
    6f10:	000a 0000 7257 7469 5465 6172 6b63 203a     ....WriteTrack: 
    6f20:	7265 6f72 2072 7525 000a 0000 7257 7469     error %u....Writ
    6f30:	2065 7265 6f72 0072 6c49 656c 6167 206c     e error.Illegal 
    6f40:	7274 6361 206b 6572 6461 203a 6425 000a     track read: %d..
    6f50:	6164 6174 6c73 746f 2073 6425 2520 0d64     dataslots %d %d.
    6f60:	000a 0000 7274 6361 736b 2520 2064 6425     ....tracks %d %d
    6f70:	0a0d 0000 7473 7461 7375 2520 2064 6425     ....status %d %d
    6f80:	0a0d 0000 6577 7520 6973 676e 7420 6568     ....we using the
    6f90:	6320 6361 6568 0a0d 0000 0000 6577 6120      cache......we a
    6fa0:	6572 6e20 746f 7520 6973 676e 7420 6568     re not using the
    6fb0:	6320 6361 6568 0a0d 0000 0000 6573 7463      cache......sect
    6fc0:	726f 2520 0d64 000a 6164 6174 7320 6365     or %d...data sec
    6fd0:	6f74 2072 6425 0a0d 0000 0000 7453 7461     tor %d......Stat
    6fe0:	7365 6420 7369 206b 3a30 2520 2e30 7834     es disk 0: %0.4x
    6ff0:	0a0d 0000 7453 7461 7365 6420 7369 206b     ....States disk 
    7000:	3a31 2520 2e30 7834 0a0d 0000 7453 7461     1: %0.4x....Stat
    7010:	7365 6420 7369 206b 3a32 2520 2e30 7834     es disk 2: %0.4x
    7020:	0a0d 0000 7453 7461 7365 6420 7369 206b     ....States disk 
    7030:	3a33 2520 2e30 7834 0a0d 0000 7453 7461     3: %0.4x....Stat
    7040:	7365 6f20 2066 6964 6b73 3a73 2520 2e30     es of disks: %0.
    7050:	7834 0a0d 0000 0000 6e75 6f6c 6461 0a0d     4x......unload..
    7060:	0000 0000 6553 656c 7463 6465 6420 6972     ....Selected dri
    7070:	6576 2520 0d64 530a 6c65 6365 6574 2064     ve %d..Selected 
    7080:	7274 6361 206b 6425 0a0d 0000 4e55 5553     track %d....UNSU
    7090:	5050 524f 4554 2044 4441 2046 4953 455a     PPORTED ADF SIZE
    70a0:	2121 2021 6f54 206f 616d 796e 7420 6172     !!! Too many tra
    70b0:	6b63 3a73 2520 756c 000a 0000 6966 656c     cks: %lu....file
    70c0:	7720 6972 6174 6c62 3a65 2520 0d64 000a      writable: %d...
    70d0:	6966 656c 7320 7a69 3a65 2520 756c 2820     file size: %lu (
    70e0:	6c25 2075 424b 0d29 000a 0000 7264 7669     %lu KB).....driv
    70f0:	2065 7274 6361 736b 203a 7525 0a0d 0000     e tracks: %u....
    7100:	7264 7669 2065 7274 6361 5f6b 7270 7665     drive track_prev
    7110:	203a 7525 0a0d 0000 7264 7669 2065 7473     : %u....drive st
    7120:	7461 7375 203a 7830 3025 5832 0a0d 0000     atus: 0x%02X....
    7130:	3130 3332 3534 3736 3938 4241 4443 4645     0123456789ABCDEF
    7140:	0000 0000 3130 3332 3534 3736 3938 6261     ....0123456789ab
    7150:	6463 6665 0000 0000 5f24 0000 6188 0000     cdef....$_...a..
    7160:	5ea6 0000 5ea6 0000 5ea6 0000 5ea6 0000     .^...^...^...^..
    7170:	5ea6 0000 5ea6 0000 5ea6 0000 619e 0000     .^...^...^...a..
    7180:	5ea6 0000 5ea6 0000 5ea6 0000 615e 0000     .^...^...^..^a..
    7190:	5ea6 0000 5ea6 0000 5f40 0000 5ea6 0000     .^...^..@_...^..
    71a0:	6184 0000 5ea6 0000 5ea6 0000 615e 0000     .a...^...^..^a..
    71b0:	6046 0000 5ea6 0000 5ea6 0000 5ea6 0000     F`...^...^...^..
    71c0:	5ea6 0000 5ea6 0000 5ea6 0000 5ea6 0000     .^...^...^...^..
    71d0:	603e 0000 61c6 0000 5ea6 0000 5ea6 0000     >`...a...^...^..
    71e0:	5ea6 0000 5ea6 0000 5ea6 0000 5ea6 0000     .^...^...^...^..
    71f0:	5ea6 0000 5ea6 0000 5ea6 0000 5ea6 0000     .^...^...^...^..
    7200:	5ea6 0000 5ea6 0000 5ea6 0000 5ea6 0000     .^...^...^...^..
    7210:	5ea6 0000 5ea6 0000 5ea6 0000 5ea6 0000     .^...^...^...^..
    7220:	5ea6 0000 5ea6 0000 5ea6 0000 5ea6 0000     .^...^...^...^..
    7230:	5ea6 0000 5ea6 0000 5ea6 0000 5ea6 0000     .^...^...^...^..
    7240:	5ea6 0000 5ea6 0000 5ea6 0000 5ea6 0000     .^...^...^...^..
    7250:	5ea6 0000 5ea6 0000 5ea6 0000 5ea6 0000     .^...^...^...^..
    7260:	5ea6 0000 5ea6 0000 5ea6 0000 5ea6 0000     .^...^...^...^..
    7270:	5ea6 0000 5ea6 0000 5ea6 0000 5ea6 0000     .^...^...^...^..
    7280:	5ea6 0000 5ea6 0000 5ea6 0000 61a2 0000     .^...^...^...a..
    7290:	5ea6 0000 5ea6 0000 5ea6 0000 5ea6 0000     .^...^...^...^..
    72a0:	5ea6 0000 5ea6 0000 5f24 0000 6188 0000     .^...^..$_...a..
    72b0:	5ea6 0000 5ea6 0000 5ea6 0000 5ea6 0000     .^...^...^...^..
    72c0:	5ea6 0000 5ea6 0000 5ea6 0000 619e 0000     .^...^...^...a..
    72d0:	5ea6 0000 5ea6 0000 5ea6 0000 615e 0000     .^...^...^..^a..
    72e0:	5ea6 0000 5ea6 0000 5f40 0000 5ea6 0000     .^...^..@_...^..
    72f0:	6184 0000 5ea6 0000 5ea6 0000 615e 0000     .a...^...^..^a..
