
build.riscv.amiga_mpu_bios/amiga_mpu_bios:     file format elf32-littleriscv


Disassembly of section .text:

00000000 <boot_vector>:
       0:	01c0006f          	j	1c <boot_vector2>
       4:	0000                	unimp
	...

00000008 <ipc_vector>:
	...
      10:	1300006f          	j	140 <isr_vector>

00000014 <ipc_request>:
      14:	0000                	unimp
	...

00000018 <ipc_frame>:
      18:	0000                	unimp
	...

0000001c <boot_vector2>:
      1c:	aac9                	j	1ee <start>
	...

0000003c <arg_argc>:
      3c:	00000000          	.word	0x00000000

00000040 <arg_argv>:
	...

00000140 <isr_vector>:
     140:	f7410113          	addi	sp,sp,-140
     144:	c57e                	sw	t6,136(sp)
     146:	c37a                	sw	t5,132(sp)
     148:	c176                	sw	t4,128(sp)
     14a:	def2                	sw	t3,124(sp)
     14c:	dcee                	sw	s11,120(sp)
     14e:	daea                	sw	s10,116(sp)
     150:	d8e6                	sw	s9,112(sp)
     152:	d6e2                	sw	s8,108(sp)
     154:	d4de                	sw	s7,104(sp)
     156:	d2da                	sw	s6,100(sp)
     158:	d0d6                	sw	s5,96(sp)
     15a:	ced2                	sw	s4,92(sp)
     15c:	ccce                	sw	s3,88(sp)
     15e:	caca                	sw	s2,84(sp)
     160:	c8c6                	sw	a7,80(sp)
     162:	c6c2                	sw	a6,76(sp)
     164:	c4be                	sw	a5,72(sp)
     166:	c2ba                	sw	a4,68(sp)
     168:	c0b6                	sw	a3,64(sp)
     16a:	de32                	sw	a2,60(sp)
     16c:	dc2e                	sw	a1,56(sp)
     16e:	da2a                	sw	a0,52(sp)
     170:	d826                	sw	s1,48(sp)
     172:	d622                	sw	s0,44(sp)
     174:	d41e                	sw	t2,40(sp)
     176:	d21a                	sw	t1,36(sp)
     178:	d016                	sw	t0,32(sp)
     17a:	ce12                	sw	tp,28(sp)
     17c:	cc0e                	sw	gp,24(sp)
     17e:	ca0a                	sw	sp,20(sp)
     180:	c806                	sw	ra,16(sp)
     182:	34202473          	csrr	s0,mcause
     186:	c422                	sw	s0,8(sp)
     188:	30002473          	csrr	s0,mstatus
     18c:	c222                	sw	s0,4(sp)
     18e:	34102473          	csrr	s0,mepc
     192:	c022                	sw	s0,0(sp)
     194:	667020ef          	jal	ra,2ffa <_handle_trap>

00000198 <exception_return>:
     198:	4402                	lw	s0,0(sp)
     19a:	34141073          	csrw	mepc,s0
     19e:	4412                	lw	s0,4(sp)
     1a0:	30041073          	csrw	mstatus,s0
     1a4:	40c2                	lw	ra,16(sp)
     1a6:	41e2                	lw	gp,24(sp)
     1a8:	4272                	lw	tp,28(sp)
     1aa:	5282                	lw	t0,32(sp)
     1ac:	5312                	lw	t1,36(sp)
     1ae:	53a2                	lw	t2,40(sp)
     1b0:	5432                	lw	s0,44(sp)
     1b2:	54c2                	lw	s1,48(sp)
     1b4:	5552                	lw	a0,52(sp)
     1b6:	55e2                	lw	a1,56(sp)
     1b8:	5672                	lw	a2,60(sp)
     1ba:	4686                	lw	a3,64(sp)
     1bc:	4716                	lw	a4,68(sp)
     1be:	47a6                	lw	a5,72(sp)
     1c0:	4836                	lw	a6,76(sp)
     1c2:	48c6                	lw	a7,80(sp)
     1c4:	4956                	lw	s2,84(sp)
     1c6:	49e6                	lw	s3,88(sp)
     1c8:	4a76                	lw	s4,92(sp)
     1ca:	5a86                	lw	s5,96(sp)
     1cc:	5b16                	lw	s6,100(sp)
     1ce:	5ba6                	lw	s7,104(sp)
     1d0:	5c36                	lw	s8,108(sp)
     1d2:	5cc6                	lw	s9,112(sp)
     1d4:	5d56                	lw	s10,116(sp)
     1d6:	5de6                	lw	s11,120(sp)
     1d8:	5e76                	lw	t3,124(sp)
     1da:	4e8a                	lw	t4,128(sp)
     1dc:	4f1a                	lw	t5,132(sp)
     1de:	4faa                	lw	t6,136(sp)
     1e0:	08c10113          	addi	sp,sp,140
     1e4:	30200073          	mret

000001e8 <exception_syscall>:
     1e8:	00000073          	ecall
     1ec:	8082                	ret

000001ee <start>:
     1ee:	0000d137          	lui	sp,0xd
     1f2:	b2810113          	addi	sp,sp,-1240 # cb28 <_sp>
     1f6:	14000293          	li	t0,320
     1fa:	30529073          	csrw	mtvec,t0
     1fe:	6295                	lui	t0,0x5
     200:	ea028293          	addi	t0,t0,-352 # 4ea0 <ide_inst>
     204:	6335                	lui	t1,0xd
     206:	b3830313          	addi	t1,t1,-1224 # cb38 <_end>

0000020a <bss_clear>:
     20a:	0002a023          	sw	zero,0(t0)
     20e:	0291                	addi	t0,t0,4
     210:	fe62cde3          	blt	t0,t1,20a <bss_clear>
     214:	0111                	addi	sp,sp,4
     216:	6505                	lui	a0,0x1
     218:	88050513          	addi	a0,a0,-1920 # 880 <_ZL16ide_set_geometryP7drive_ttt+0x70>
     21c:	30451073          	csrw	mie,a0
     220:	6509                	lui	a0,0x2
     222:	80850513          	addi	a0,a0,-2040 # 1808 <_Z6ide_ioii+0x170>
     226:	30051073          	csrw	mstatus,a0
     22a:	00000517          	auipc	a0,0x0
     22e:	e1250513          	addi	a0,a0,-494 # 3c <arg_argc>
     232:	4108                	lw	a0,0(a0)
     234:	00000597          	auipc	a1,0x0
     238:	e0c58593          	addi	a1,a1,-500 # 40 <arg_argv>
     23c:	288000ef          	jal	ra,4c4 <main>
     240:	2009                	jal	242 <_exit>

00000242 <_exit>:
     242:	0ff57513          	zext.b	a0,a0
     246:	7b251073          	csrw	dscratch0,a0

0000024a <_exit_loop>:
     24a:	2001                	jal	24a <_exit_loop>

0000024c <_Z10core_reseti>:
     24c:	1141                	addi	sp,sp,-16
     24e:	c422                	sw	s0,8(sp)
     250:	0ff57593          	zext.b	a1,a0
     254:	842a                	mv	s0,a0
     256:	0f000513          	li	a0,240
     25a:	c606                	sw	ra,12(sp)
     25c:	483020ef          	jal	ra,2ede <_Z16HPS_spi_uio_cmd8hh>
     260:	85a2                	mv	a1,s0
     262:	4422                	lw	s0,8(sp)
     264:	40b2                	lw	ra,12(sp)
     266:	6511                	lui	a0,0x4
     268:	09850513          	addi	a0,a0,152 # 4098 <strlen+0x1a>
     26c:	0141                	addi	sp,sp,16
     26e:	20c0306f          	j	347a <riscprintf_>

00000272 <_Z21core_update_dataslotsv>:
     272:	1141                	addi	sp,sp,-16
     274:	c422                	sw	s0,8(sp)
     276:	fb402403          	lw	s0,-76(zero) # ffffffb4 <MEM_SIZE+0xfffdffb4>
     27a:	6511                	lui	a0,0x4
     27c:	0b050513          	addi	a0,a0,176 # 40b0 <strlen+0x32>
     280:	85a2                	mv	a1,s0
     282:	c606                	sw	ra,12(sp)
     284:	1f6030ef          	jal	ra,347a <riscprintf_>
     288:	0d200793          	li	a5,210
     28c:	02f40363          	beq	s0,a5,2b2 <_Z21core_update_dataslotsv+0x40>
     290:	ec040793          	addi	a5,s0,-320
     294:	470d                	li	a4,3
     296:	00f77a63          	bgeu	a4,a5,2aa <_Z21core_update_dataslotsv+0x38>
     29a:	eca40413          	addi	s0,s0,-310
     29e:	04877b63          	bgeu	a4,s0,2f4 <_Z21core_update_dataslotsv+0x82>
     2a2:	40b2                	lw	ra,12(sp)
     2a4:	4422                	lw	s0,8(sp)
     2a6:	0141                	addi	sp,sp,16
     2a8:	8082                	ret
     2aa:	4422                	lw	s0,8(sp)
     2ac:	40b2                	lw	ra,12(sp)
     2ae:	0141                	addi	sp,sp,16
     2b0:	a649                	j	632 <minimig_fdd_update>
     2b2:	4599                	li	a1,6
     2b4:	0f000513          	li	a0,240
     2b8:	427020ef          	jal	ra,2ede <_Z16HPS_spi_uio_cmd8hh>
     2bc:	6411                	lui	s0,0x4
     2be:	4599                	li	a1,6
     2c0:	09840513          	addi	a0,s0,152 # 4098 <strlen+0x1a>
     2c4:	1b6030ef          	jal	ra,347a <riscprintf_>
     2c8:	0c800513          	li	a0,200
     2cc:	79e030ef          	jal	ra,3a6a <_Z10riscusleepi>
     2d0:	29b5                	jal	74c <minimig_restart_first>
     2d2:	0c800513          	li	a0,200
     2d6:	794030ef          	jal	ra,3a6a <_Z10riscusleepi>
     2da:	4581                	li	a1,0
     2dc:	0f000513          	li	a0,240
     2e0:	3ff020ef          	jal	ra,2ede <_Z16HPS_spi_uio_cmd8hh>
     2e4:	09840513          	addi	a0,s0,152
     2e8:	4422                	lw	s0,8(sp)
     2ea:	40b2                	lw	ra,12(sp)
     2ec:	4581                	li	a1,0
     2ee:	0141                	addi	sp,sp,16
     2f0:	18a0306f          	j	347a <riscprintf_>
     2f4:	4422                	lw	s0,8(sp)
     2f6:	40b2                	lw	ra,12(sp)
     2f8:	0141                	addi	sp,sp,16
     2fa:	a655                	j	69e <minimig_hdd_update>

000002fc <_Z12core_poll_iov>:
     2fc:	1141                	addi	sp,sp,-16
     2fe:	c606                	sw	ra,12(sp)
     300:	c422                	sw	s0,8(sp)
     302:	2f5020ef          	jal	ra,2df6 <_Z14HPS_EnableFpgav>
     306:	4501                	li	a0,0
     308:	363020ef          	jal	ra,2e6a <_Z12HPS_fpga_spit>
     30c:	842a                	mv	s0,a0
     30e:	4501                	li	a0,0
     310:	35b020ef          	jal	ra,2e6a <_Z12HPS_fpga_spit>
     314:	4501                	li	a0,0
     316:	355020ef          	jal	ra,2e6a <_Z12HPS_fpga_spit>
     31a:	2fb020ef          	jal	ra,2e14 <_Z15HPS_DisableFpgav>
     31e:	00845513          	srli	a0,s0,0x8
     322:	0ff47593          	zext.b	a1,s0
     326:	0ff57513          	zext.b	a0,a0
     32a:	1df020ef          	jal	ra,2d08 <HandleFDD>
     32e:	2b7d                	jal	8ec <_Z9ide_checkv>
     330:	01051793          	slli	a5,a0,0x10
     334:	0007c663          	bltz	a5,340 <_Z12core_poll_iov+0x44>
     338:	40b2                	lw	ra,12(sp)
     33a:	4422                	lw	s0,8(sp)
     33c:	0141                	addi	sp,sp,16
     33e:	8082                	ret
     340:	842a                	mv	s0,a0
     342:	00757593          	andi	a1,a0,7
     346:	4501                	li	a0,0
     348:	350010ef          	jal	ra,1698 <_Z6ide_ioii>
     34c:	00345593          	srli	a1,s0,0x3
     350:	4422                	lw	s0,8(sp)
     352:	40b2                	lw	ra,12(sp)
     354:	899d                	andi	a1,a1,7
     356:	4505                	li	a0,1
     358:	0141                	addi	sp,sp,16
     35a:	33e0106f          	j	1698 <_Z6ide_ioii>

0000035e <_Z15core_reg_updatev>:
     35e:	f0402783          	lw	a5,-252(zero) # ffffff04 <MEM_SIZE+0xfffdff04>
     362:	8b89                	andi	a5,a5,2
     364:	c789                	beqz	a5,36e <_Z15core_reg_updatev+0x10>
     366:	4789                	li	a5,2
     368:	f4f02a23          	sw	a5,-172(zero) # ffffff54 <MEM_SIZE+0xfffdff54>
     36c:	8082                	ret
     36e:	f4002a23          	sw	zero,-172(zero) # ffffff54 <MEM_SIZE+0xfffdff54>
     372:	8082                	ret

00000374 <_Z18core_restart_firstv>:
     374:	1141                	addi	sp,sp,-16
     376:	4599                	li	a1,6
     378:	0f000513          	li	a0,240
     37c:	c606                	sw	ra,12(sp)
     37e:	361020ef          	jal	ra,2ede <_Z16HPS_spi_uio_cmd8hh>
     382:	40b2                	lw	ra,12(sp)
     384:	6511                	lui	a0,0x4
     386:	4599                	li	a1,6
     388:	09850513          	addi	a0,a0,152 # 4098 <strlen+0x1a>
     38c:	0141                	addi	sp,sp,16
     38e:	0ec0306f          	j	347a <riscprintf_>

00000392 <_Z16core_input_setupv>:
     392:	37f0106f          	j	1f10 <_Z11input_setupv>

00000396 <_Z17core_input_updatev>:
     396:	33b0106f          	j	1ed0 <_Z12input_updatev>

0000039a <_Z4initv>:
     39a:	1141                	addi	sp,sp,-16
     39c:	c606                	sw	ra,12(sp)
     39e:	493020ef          	jal	ra,3030 <_Z17DisableInterruptsv>
     3a2:	6ba030ef          	jal	ra,3a5c <_Z8SetTimerv>
     3a6:	44b020ef          	jal	ra,2ff0 <SetUART>
     3aa:	69e030ef          	jal	ra,3a48 <_Z10ResetTimerv>
     3ae:	0007a537          	lui	a0,0x7a
     3b2:	12050513          	addi	a0,a0,288 # 7a120 <MEM_SIZE+0x5a120>
     3b6:	6b4030ef          	jal	ra,3a6a <_Z10riscusleepi>
     3ba:	6511                	lui	a0,0x4
     3bc:	0c850513          	addi	a0,a0,200 # 40c8 <strlen+0x4a>
     3c0:	0ba030ef          	jal	ra,347a <riscprintf_>
     3c4:	40b2                	lw	ra,12(sp)
     3c6:	0141                	addi	sp,sp,16
     3c8:	b775                	j	374 <_Z18core_restart_firstv>

000003ca <_Z8mainloopv>:
     3ca:	1101                	addi	sp,sp,-32
     3cc:	451d                	li	a0,7
     3ce:	ce06                	sw	ra,28(sp)
     3d0:	cc22                	sw	s0,24(sp)
     3d2:	ca26                	sw	s1,20(sp)
     3d4:	c84a                	sw	s2,16(sp)
     3d6:	c64e                	sw	s3,12(sp)
     3d8:	c452                	sw	s4,8(sp)
     3da:	3d8d                	jal	24c <_Z10core_reseti>
     3dc:	6509                	lui	a0,0x2
     3de:	32850513          	addi	a0,a0,808 # 2328 <_Z7GetDatav+0x1ca>
     3e2:	688030ef          	jal	ra,3a6a <_Z10riscusleepi>
     3e6:	6511                	lui	a0,0x4
     3e8:	0d050513          	addi	a0,a0,208 # 40d0 <strlen+0x52>
     3ec:	08e030ef          	jal	ra,347a <riscprintf_>
     3f0:	6511                	lui	a0,0x4
     3f2:	0e850513          	addi	a0,a0,232 # 40e8 <strlen+0x6a>
     3f6:	084030ef          	jal	ra,347a <riscprintf_>
     3fa:	6511                	lui	a0,0x4
     3fc:	10450513          	addi	a0,a0,260 # 4104 <strlen+0x86>
     400:	07a030ef          	jal	ra,347a <riscprintf_>
     404:	6511                	lui	a0,0x4
     406:	11450513          	addi	a0,a0,276 # 4114 <strlen+0x96>
     40a:	070030ef          	jal	ra,347a <riscprintf_>
     40e:	2e3d                	jal	74c <minimig_restart_first>
     410:	358d                	jal	272 <_Z21core_update_dataslotsv>
     412:	7d000513          	li	a0,2000
     416:	654030ef          	jal	ra,3a6a <_Z10riscusleepi>
     41a:	3fa5                	jal	392 <_Z16core_input_setupv>
     41c:	3ff020ef          	jal	ra,301a <_Z16EnableInterruptsv>
     420:	6511                	lui	a0,0x4
     422:	13050513          	addi	a0,a0,304 # 4130 <strlen+0xb2>
     426:	054030ef          	jal	ra,347a <riscprintf_>
     42a:	4501                	li	a0,0
     42c:	002dc437          	lui	s0,0x2dc
     430:	3d31                	jal	24c <_Z10core_reseti>
     432:	6a11                	lui	s4,0x4
     434:	6991                	lui	s3,0x4
     436:	6911                	lui	s2,0x4
     438:	6491                	lui	s1,0x4
     43a:	6c040413          	addi	s0,s0,1728 # 2dc6c0 <MEM_SIZE+0x2bc6c0>
     43e:	fb002783          	lw	a5,-80(zero) # ffffffb0 <MEM_SIZE+0xfffdffb0>
     442:	e3bd                	bnez	a5,4a8 <_Z8mainloopv+0xde>
     444:	3d65                	jal	2fc <_Z12core_poll_iov>
     446:	2d1010ef          	jal	ra,1f16 <_Z16input_reg_updatev>
     44a:	3f11                	jal	35e <_Z15core_reg_updatev>
     44c:	f0002783          	lw	a5,-256(zero) # ffffff00 <MEM_SIZE+0xfffdff00>
     450:	8b8d                	andi	a5,a5,3
     452:	d7f5                	beqz	a5,43e <_Z8mainloopv+0x74>
     454:	3dd020ef          	jal	ra,3030 <_Z17DisableInterruptsv>
     458:	17090513          	addi	a0,s2,368 # 4170 <strlen+0xf2>
     45c:	01e030ef          	jal	ra,347a <riscprintf_>
     460:	f0002503          	lw	a0,-256(zero) # ffffff00 <MEM_SIZE+0xfffdff00>
     464:	33e5                	jal	24c <_Z10core_reseti>
     466:	0c800513          	li	a0,200
     46a:	600030ef          	jal	ra,3a6a <_Z10riscusleepi>
     46e:	f0002023          	sw	zero,-256(zero) # ffffff00 <MEM_SIZE+0xfffdff00>
     472:	2ab9                	jal	5d0 <minimig_restart_running_core>
     474:	7d000513          	li	a0,2000
     478:	5f2030ef          	jal	ra,3a6a <_Z10riscusleepi>
     47c:	4501                	li	a0,0
     47e:	33f9                	jal	24c <_Z10core_reseti>
     480:	1f400513          	li	a0,500
     484:	5e6030ef          	jal	ra,3a6a <_Z10riscusleepi>
     488:	071020ef          	jal	ra,2cf8 <RemoveDriveStatus>
     48c:	8522                	mv	a0,s0
     48e:	5dc030ef          	jal	ra,3a6a <_Z10riscusleepi>
     492:	778020ef          	jal	ra,2c0a <UpdateDriveStatus_fdd>
     496:	18848513          	addi	a0,s1,392 # 4188 <strlen+0x10a>
     49a:	7e1020ef          	jal	ra,347a <riscprintf_>
     49e:	37d020ef          	jal	ra,301a <_Z16EnableInterruptsv>
     4a2:	fb002783          	lw	a5,-80(zero) # ffffffb0 <MEM_SIZE+0xfffdffb0>
     4a6:	dfd9                	beqz	a5,444 <_Z8mainloopv+0x7a>
     4a8:	389020ef          	jal	ra,3030 <_Z17DisableInterruptsv>
     4ac:	148a0513          	addi	a0,s4,328 # 4148 <strlen+0xca>
     4b0:	7cb020ef          	jal	ra,347a <riscprintf_>
     4b4:	3b7d                	jal	272 <_Z21core_update_dataslotsv>
     4b6:	15c98513          	addi	a0,s3,348 # 415c <strlen+0xde>
     4ba:	7c1020ef          	jal	ra,347a <riscprintf_>
     4be:	35d020ef          	jal	ra,301a <_Z16EnableInterruptsv>
     4c2:	b749                	j	444 <_Z8mainloopv+0x7a>

000004c4 <main>:
     4c4:	1141                	addi	sp,sp,-16
     4c6:	c606                	sw	ra,12(sp)
     4c8:	3dc9                	jal	39a <_Z4initv>
     4ca:	001e8537          	lui	a0,0x1e8
     4ce:	48050513          	addi	a0,a0,1152 # 1e8480 <MEM_SIZE+0x1c8480>
     4d2:	598030ef          	jal	ra,3a6a <_Z10riscusleepi>
     4d6:	3dd5                	jal	3ca <_Z8mainloopv>

000004d8 <_Z12minimig_biosv>:
     4d8:	1141                	addi	sp,sp,-16
     4da:	0d200513          	li	a0,210
     4de:	c606                	sw	ra,12(sp)
     4e0:	27b010ef          	jal	ra,1f5a <_Z13dataslot_sizet>
     4e4:	001007b7          	lui	a5,0x100
     4e8:	02f50163          	beq	a0,a5,50a <_Z12minimig_biosv+0x32>
     4ec:	000807b7          	lui	a5,0x80
     4f0:	04f50263          	beq	a0,a5,534 <_Z12minimig_biosv+0x5c>
     4f4:	000407b7          	lui	a5,0x40
     4f8:	06f50c63          	beq	a0,a5,570 <_Z12minimig_biosv+0x98>
     4fc:	40b2                	lw	ra,12(sp)
     4fe:	6511                	lui	a0,0x4
     500:	1cc50513          	addi	a0,a0,460 # 41cc <strlen+0x14e>
     504:	0141                	addi	sp,sp,16
     506:	7750206f          	j	347a <riscprintf_>
     50a:	6511                	lui	a0,0x4
     50c:	1a050513          	addi	a0,a0,416 # 41a0 <strlen+0x122>
     510:	76b020ef          	jal	ra,347a <riscprintf_>
     514:	001006b7          	lui	a3,0x100
     518:	4601                	li	a2,0
     51a:	90f005b7          	lui	a1,0x90f00
     51e:	0d200513          	li	a0,210
     522:	299010ef          	jal	ra,1fba <_Z13dataslot_readtmmm>
     526:	40b2                	lw	ra,12(sp)
     528:	6511                	lui	a0,0x4
     52a:	1cc50513          	addi	a0,a0,460 # 41cc <strlen+0x14e>
     52e:	0141                	addi	sp,sp,16
     530:	74b0206f          	j	347a <riscprintf_>
     534:	6511                	lui	a0,0x4
     536:	1ac50513          	addi	a0,a0,428 # 41ac <strlen+0x12e>
     53a:	741020ef          	jal	ra,347a <riscprintf_>
     53e:	000806b7          	lui	a3,0x80
     542:	4601                	li	a2,0
     544:	90f005b7          	lui	a1,0x90f00
     548:	0d200513          	li	a0,210
     54c:	26f010ef          	jal	ra,1fba <_Z13dataslot_readtmmm>
     550:	000806b7          	lui	a3,0x80
     554:	4601                	li	a2,0
     556:	90f805b7          	lui	a1,0x90f80
     55a:	0d200513          	li	a0,210
     55e:	25d010ef          	jal	ra,1fba <_Z13dataslot_readtmmm>
     562:	40b2                	lw	ra,12(sp)
     564:	6511                	lui	a0,0x4
     566:	1cc50513          	addi	a0,a0,460 # 41cc <strlen+0x14e>
     56a:	0141                	addi	sp,sp,16
     56c:	70f0206f          	j	347a <riscprintf_>
     570:	6511                	lui	a0,0x4
     572:	1bc50513          	addi	a0,a0,444 # 41bc <strlen+0x13e>
     576:	705020ef          	jal	ra,347a <riscprintf_>
     57a:	000406b7          	lui	a3,0x40
     57e:	4601                	li	a2,0
     580:	90f005b7          	lui	a1,0x90f00
     584:	0d200513          	li	a0,210
     588:	233010ef          	jal	ra,1fba <_Z13dataslot_readtmmm>
     58c:	000406b7          	lui	a3,0x40
     590:	4601                	li	a2,0
     592:	90f405b7          	lui	a1,0x90f40
     596:	0d200513          	li	a0,210
     59a:	221010ef          	jal	ra,1fba <_Z13dataslot_readtmmm>
     59e:	000406b7          	lui	a3,0x40
     5a2:	4601                	li	a2,0
     5a4:	90f805b7          	lui	a1,0x90f80
     5a8:	0d200513          	li	a0,210
     5ac:	20f010ef          	jal	ra,1fba <_Z13dataslot_readtmmm>
     5b0:	000406b7          	lui	a3,0x40
     5b4:	4601                	li	a2,0
     5b6:	90fc05b7          	lui	a1,0x90fc0
     5ba:	0d200513          	li	a0,210
     5be:	1fd010ef          	jal	ra,1fba <_Z13dataslot_readtmmm>
     5c2:	40b2                	lw	ra,12(sp)
     5c4:	6511                	lui	a0,0x4
     5c6:	1cc50513          	addi	a0,a0,460 # 41cc <strlen+0x14e>
     5ca:	0141                	addi	sp,sp,16
     5cc:	6af0206f          	j	347a <riscprintf_>

000005d0 <minimig_restart_running_core>:
     5d0:	f0402583          	lw	a1,-252(zero) # ffffff04 <MEM_SIZE+0xfffdff04>
     5d4:	1141                	addi	sp,sp,-16
     5d6:	0f600513          	li	a0,246
     5da:	0ff5f593          	zext.b	a1,a1
     5de:	c606                	sw	ra,12(sp)
     5e0:	0ff020ef          	jal	ra,2ede <_Z16HPS_spi_uio_cmd8hh>
     5e4:	f0802583          	lw	a1,-248(zero) # ffffff08 <MEM_SIZE+0xfffdff08>
     5e8:	0f200513          	li	a0,242
     5ec:	0ff5f593          	zext.b	a1,a1
     5f0:	0ef020ef          	jal	ra,2ede <_Z16HPS_spi_uio_cmd8hh>
     5f4:	f0c02583          	lw	a1,-244(zero) # ffffff0c <MEM_SIZE+0xfffdff0c>
     5f8:	0f300513          	li	a0,243
     5fc:	0ff5f593          	zext.b	a1,a1
     600:	0df020ef          	jal	ra,2ede <_Z16HPS_spi_uio_cmd8hh>
     604:	f1002583          	lw	a1,-240(zero) # ffffff10 <MEM_SIZE+0xfffdff10>
     608:	0f400513          	li	a0,244
     60c:	0ff5f593          	zext.b	a1,a1
     610:	0cf020ef          	jal	ra,2ede <_Z16HPS_spi_uio_cmd8hh>
     614:	f1402583          	lw	a1,-236(zero) # ffffff14 <MEM_SIZE+0xfffdff14>
     618:	0f800513          	li	a0,248
     61c:	0ff5f593          	zext.b	a1,a1
     620:	0bf020ef          	jal	ra,2ede <_Z16HPS_spi_uio_cmd8hh>
     624:	40b2                	lw	ra,12(sp)
     626:	6511                	lui	a0,0x4
     628:	1e050513          	addi	a0,a0,480 # 41e0 <strlen+0x162>
     62c:	0141                	addi	sp,sp,16
     62e:	64d0206f          	j	347a <riscprintf_>

00000632 <minimig_fdd_update>:
     632:	1101                	addi	sp,sp,-32
     634:	ca26                	sw	s1,20(sp)
     636:	c452                	sw	s4,8(sp)
     638:	64b1                	lui	s1,0xc
     63a:	00092a37          	lui	s4,0x92
     63e:	cc22                	sw	s0,24(sp)
     640:	c64e                	sw	s3,12(sp)
     642:	ce06                	sw	ra,28(sp)
     644:	c84a                	sw	s2,16(sp)
     646:	6c848493          	addi	s1,s1,1736 # c6c8 <df>
     64a:	14000413          	li	s0,320
     64e:	7c0a0a13          	addi	s4,s4,1984 # 927c0 <MEM_SIZE+0x727c0>
     652:	14400993          	li	s3,324
     656:	01041913          	slli	s2,s0,0x10
     65a:	01095913          	srli	s2,s2,0x10
     65e:	854a                	mv	a0,s2
     660:	0fb010ef          	jal	ra,1f5a <_Z13dataslot_sizet>
     664:	ed11                	bnez	a0,680 <minimig_fdd_update+0x4e>
     666:	0405                	addi	s0,s0,1
     668:	04d1                	addi	s1,s1,20
     66a:	ff3416e3          	bne	s0,s3,656 <minimig_fdd_update+0x24>
     66e:	4462                	lw	s0,24(sp)
     670:	40f2                	lw	ra,28(sp)
     672:	44d2                	lw	s1,20(sp)
     674:	4942                	lw	s2,16(sp)
     676:	49b2                	lw	s3,12(sp)
     678:	4a22                	lw	s4,8(sp)
     67a:	6105                	addi	sp,sp,32
     67c:	58e0206f          	j	2c0a <UpdateDriveStatus_fdd>
     680:	8526                	mv	a0,s1
     682:	642020ef          	jal	ra,2cc4 <UnsertFloppy>
     686:	8552                	mv	a0,s4
     688:	3e2030ef          	jal	ra,3a6a <_Z10riscusleepi>
     68c:	854a                	mv	a0,s2
     68e:	0cd010ef          	jal	ra,1f5a <_Z13dataslot_sizet>
     692:	85aa                	mv	a1,a0
     694:	8622                	mv	a2,s0
     696:	8526                	mv	a0,s1
     698:	6da020ef          	jal	ra,2d72 <InsertFloppy>
     69c:	b7e9                	j	666 <minimig_fdd_update+0x34>

0000069e <minimig_hdd_update>:
     69e:	6511                	lui	a0,0x4
     6a0:	1141                	addi	sp,sp,-16
     6a2:	1f450513          	addi	a0,a0,500 # 41f4 <strlen+0x176>
     6a6:	c606                	sw	ra,12(sp)
     6a8:	c422                	sw	s0,8(sp)
     6aa:	5d1020ef          	jal	ra,347a <riscprintf_>
     6ae:	13600513          	li	a0,310
     6b2:	0a9010ef          	jal	ra,1f5a <_Z13dataslot_sizet>
     6b6:	4401                	li	s0,0
     6b8:	e121                	bnez	a0,6f8 <minimig_hdd_update+0x5a>
     6ba:	13700513          	li	a0,311
     6be:	09d010ef          	jal	ra,1f5a <_Z13dataslot_sizet>
     6c2:	e531                	bnez	a0,70e <minimig_hdd_update+0x70>
     6c4:	13800513          	li	a0,312
     6c8:	093010ef          	jal	ra,1f5a <_Z13dataslot_sizet>
     6cc:	ed21                	bnez	a0,724 <minimig_hdd_update+0x86>
     6ce:	13900513          	li	a0,313
     6d2:	089010ef          	jal	ra,1f5a <_Z13dataslot_sizet>
     6d6:	e13d                	bnez	a0,73c <minimig_hdd_update+0x9e>
     6d8:	0ff47593          	zext.b	a1,s0
     6dc:	0f700513          	li	a0,247
     6e0:	7fe020ef          	jal	ra,2ede <_Z16HPS_spi_uio_cmd8hh>
     6e4:	2421                	jal	8ec <_Z9ide_checkv>
     6e6:	85a2                	mv	a1,s0
     6e8:	4422                	lw	s0,8(sp)
     6ea:	40b2                	lw	ra,12(sp)
     6ec:	6511                	lui	a0,0x4
     6ee:	21c50513          	addi	a0,a0,540 # 421c <strlen+0x19e>
     6f2:	0141                	addi	sp,sp,16
     6f4:	5870206f          	j	347a <riscprintf_>
     6f8:	13600593          	li	a1,310
     6fc:	4501                	li	a0,0
     6fe:	19e010ef          	jal	ra,189c <_Z8ide_openht>
     702:	13700513          	li	a0,311
     706:	440d                	li	s0,3
     708:	053010ef          	jal	ra,1f5a <_Z13dataslot_sizet>
     70c:	dd45                	beqz	a0,6c4 <minimig_hdd_update+0x26>
     70e:	13700593          	li	a1,311
     712:	4505                	li	a0,1
     714:	188010ef          	jal	ra,189c <_Z8ide_openht>
     718:	13800513          	li	a0,312
     71c:	441d                	li	s0,7
     71e:	03d010ef          	jal	ra,1f5a <_Z13dataslot_sizet>
     722:	d555                	beqz	a0,6ce <minimig_hdd_update+0x30>
     724:	13800593          	li	a1,312
     728:	4509                	li	a0,2
     72a:	172010ef          	jal	ra,189c <_Z8ide_openht>
     72e:	13900513          	li	a0,313
     732:	02f00413          	li	s0,47
     736:	025010ef          	jal	ra,1f5a <_Z13dataslot_sizet>
     73a:	dd59                	beqz	a0,6d8 <minimig_hdd_update+0x3a>
     73c:	13900593          	li	a1,313
     740:	450d                	li	a0,3
     742:	15a010ef          	jal	ra,189c <_Z8ide_openht>
     746:	04046413          	ori	s0,s0,64
     74a:	b779                	j	6d8 <minimig_hdd_update+0x3a>

0000074c <minimig_restart_first>:
     74c:	1141                	addi	sp,sp,-16
     74e:	c606                	sw	ra,12(sp)
     750:	3361                	jal	4d8 <_Z12minimig_biosv>
     752:	f0402583          	lw	a1,-252(zero) # ffffff04 <MEM_SIZE+0xfffdff04>
     756:	0f600513          	li	a0,246
     75a:	0ff5f593          	zext.b	a1,a1
     75e:	780020ef          	jal	ra,2ede <_Z16HPS_spi_uio_cmd8hh>
     762:	f0802583          	lw	a1,-248(zero) # ffffff08 <MEM_SIZE+0xfffdff08>
     766:	0f200513          	li	a0,242
     76a:	0ff5f593          	zext.b	a1,a1
     76e:	770020ef          	jal	ra,2ede <_Z16HPS_spi_uio_cmd8hh>
     772:	f0c02583          	lw	a1,-244(zero) # ffffff0c <MEM_SIZE+0xfffdff0c>
     776:	0f300513          	li	a0,243
     77a:	0ff5f593          	zext.b	a1,a1
     77e:	760020ef          	jal	ra,2ede <_Z16HPS_spi_uio_cmd8hh>
     782:	f1002583          	lw	a1,-240(zero) # ffffff10 <MEM_SIZE+0xfffdff10>
     786:	0f400513          	li	a0,244
     78a:	0ff5f593          	zext.b	a1,a1
     78e:	750020ef          	jal	ra,2ede <_Z16HPS_spi_uio_cmd8hh>
     792:	f1402583          	lw	a1,-236(zero) # ffffff14 <MEM_SIZE+0xfffdff14>
     796:	0f800513          	li	a0,248
     79a:	0ff5f593          	zext.b	a1,a1
     79e:	740020ef          	jal	ra,2ede <_Z16HPS_spi_uio_cmd8hh>
     7a2:	3d41                	jal	632 <minimig_fdd_update>
     7a4:	3ded                	jal	69e <minimig_hdd_update>
     7a6:	40b2                	lw	ra,12(sp)
     7a8:	6511                	lui	a0,0x4
     7aa:	1e050513          	addi	a0,a0,480 # 41e0 <strlen+0x162>
     7ae:	0141                	addi	sp,sp,16
     7b0:	4cb0206f          	j	347a <riscprintf_>

000007b4 <_ZL7put_lbaP10ide_configm>:
     7b4:	02054783          	lbu	a5,32(a0)
     7b8:	15fd                	addi	a1,a1,-1 # 90fbffff <MEM_SIZE+0x90f9ffff>
     7ba:	cf89                	beqz	a5,7d4 <_ZL7put_lbaP10ide_configm+0x20>
     7bc:	0185d793          	srli	a5,a1,0x18
     7c0:	0085d713          	srli	a4,a1,0x8
     7c4:	8bbd                	andi	a5,a5,15
     7c6:	00b50da3          	sb	a1,27(a0)
     7ca:	00e51e23          	sh	a4,28(a0)
     7ce:	00f50f23          	sb	a5,30(a0)
     7d2:	8082                	ret
     7d4:	01f54783          	lbu	a5,31(a0)
     7d8:	7bc00713          	li	a4,1980
     7dc:	02e787b3          	mul	a5,a5,a4
     7e0:	97aa                	add	a5,a5,a0
     7e2:	0407d683          	lhu	a3,64(a5) # 40040 <MEM_SIZE+0x20040>
     7e6:	03e7d703          	lhu	a4,62(a5)
     7ea:	02d70733          	mul	a4,a4,a3
     7ee:	02e5f7b3          	remu	a5,a1,a4
     7f2:	02d7f633          	remu	a2,a5,a3
     7f6:	02e5d5b3          	divu	a1,a1,a4
     7fa:	00160713          	addi	a4,a2,1
     7fe:	00e50da3          	sb	a4,27(a0)
     802:	02d7d7b3          	divu	a5,a5,a3
     806:	00b51e23          	sh	a1,28(a0)
     80a:	00f50f23          	sb	a5,30(a0)
     80e:	8082                	ret

00000810 <_ZL16ide_set_geometryP7drive_ttt>:
     810:	00a55783          	lhu	a5,10(a0)
     814:	1141                	addi	sp,sp,-16
     816:	c422                	sw	s0,8(sp)
     818:	c226                	sw	s1,4(sp)
     81a:	c04a                	sw	s2,0(sp)
     81c:	c606                	sw	ra,12(sp)
     81e:	842a                	mv	s0,a0
     820:	84b2                	mv	s1,a2
     822:	892e                	mv	s2,a1
     824:	00c79663          	bne	a5,a2,830 <_ZL16ide_set_geometryP7drive_ttt+0x20>
     828:	00c55783          	lhu	a5,12(a0)
     82c:	00b78963          	beq	a5,a1,83e <_ZL16ide_set_geometryP7drive_ttt+0x2e>
     830:	6511                	lui	a0,0x4
     832:	8626                	mv	a2,s1
     834:	85ca                	mv	a1,s2
     836:	23850513          	addi	a0,a0,568 # 4238 <strlen+0x1ba>
     83a:	441020ef          	jal	ra,347a <riscprintf_>
     83e:	8626                	mv	a2,s1
     840:	e099                	bnez	s1,846 <_ZL16ide_set_geometryP7drive_ttt+0x36>
     842:	4641                	li	a2,16
     844:	44c1                	li	s1,16
     846:	00941523          	sh	s1,10(s0)
     84a:	85ca                	mv	a1,s2
     84c:	00091663          	bnez	s2,858 <_ZL16ide_set_geometryP7drive_ttt+0x48>
     850:	10000593          	li	a1,256
     854:	10000913          	li	s2,256
     858:	02b607b3          	mul	a5,a2,a1
     85c:	4054                	lw	a3,4(s0)
     85e:	4c18                	lw	a4,24(s0)
     860:	01241623          	sh	s2,12(s0)
     864:	00979513          	slli	a0,a5,0x9
     868:	02a6d6b3          	divu	a3,a3,a0
     86c:	c319                	beqz	a4,872 <_ZL16ide_set_geometryP7drive_ttt+0x62>
     86e:	0685                	addi	a3,a3,1 # 40001 <MEM_SIZE+0x20001>
     870:	cc1c                	sw	a5,24(s0)
     872:	67c1                	lui	a5,0x10
     874:	00f6e463          	bltu	a3,a5,87c <_ZL16ide_set_geometryP7drive_ttt+0x6c>
     878:	fff78693          	addi	a3,a5,-1 # ffff <_end+0x34c7>
     87c:	00d41423          	sh	a3,8(s0)
     880:	4422                	lw	s0,8(sp)
     882:	40b2                	lw	ra,12(sp)
     884:	4492                	lw	s1,4(sp)
     886:	4902                	lw	s2,0(sp)
     888:	6511                	lui	a0,0x4
     88a:	24c50513          	addi	a0,a0,588 # 424c <strlen+0x1ce>
     88e:	0141                	addi	sp,sp,16
     890:	3eb0206f          	j	347a <riscprintf_>

00000894 <_ZL7get_lbaP10ide_config>:
     894:	02054783          	lbu	a5,32(a0)
     898:	c385                	beqz	a5,8b8 <_ZL7get_lbaP10ide_config+0x24>
     89a:	01c54703          	lbu	a4,28(a0)
     89e:	01b54683          	lbu	a3,27(a0)
     8a2:	01d54783          	lbu	a5,29(a0)
     8a6:	01e54503          	lbu	a0,30(a0)
     8aa:	0722                	slli	a4,a4,0x8
     8ac:	8f55                	or	a4,a4,a3
     8ae:	07c2                	slli	a5,a5,0x10
     8b0:	8fd9                	or	a5,a5,a4
     8b2:	0562                	slli	a0,a0,0x18
     8b4:	8d5d                	or	a0,a0,a5
     8b6:	8082                	ret
     8b8:	01f54703          	lbu	a4,31(a0)
     8bc:	7bc00793          	li	a5,1980
     8c0:	01c55583          	lhu	a1,28(a0)
     8c4:	02f70733          	mul	a4,a4,a5
     8c8:	01e54683          	lbu	a3,30(a0)
     8cc:	01b54783          	lbu	a5,27(a0)
     8d0:	17fd                	addi	a5,a5,-1
     8d2:	953a                	add	a0,a0,a4
     8d4:	03e55603          	lhu	a2,62(a0)
     8d8:	04055703          	lhu	a4,64(a0)
     8dc:	02b60633          	mul	a2,a2,a1
     8e0:	96b2                	add	a3,a3,a2
     8e2:	02d70733          	mul	a4,a4,a3
     8e6:	00e78533          	add	a0,a5,a4
     8ea:	8082                	ret

000008ec <_Z9ide_checkv>:
     8ec:	1141                	addi	sp,sp,-16
     8ee:	c606                	sw	ra,12(sp)
     8f0:	c422                	sw	s0,8(sp)
     8f2:	53e020ef          	jal	ra,2e30 <_Z12HPS_EnableIOv>
     8f6:	06300513          	li	a0,99
     8fa:	570020ef          	jal	ra,2e6a <_Z12HPS_fpga_spit>
     8fe:	842a                	mv	s0,a0
     900:	c901                	beqz	a0,910 <_Z9ide_checkv+0x24>
     902:	54c020ef          	jal	ra,2e4e <_Z13HPS_DisableIOv>
     906:	40b2                	lw	ra,12(sp)
     908:	8522                	mv	a0,s0
     90a:	4422                	lw	s0,8(sp)
     90c:	0141                	addi	sp,sp,16
     90e:	8082                	ret
     910:	55a020ef          	jal	ra,2e6a <_Z12HPS_fpga_spit>
     914:	0ff57413          	zext.b	s0,a0
     918:	536020ef          	jal	ra,2e4e <_Z13HPS_DisableIOv>
     91c:	40b2                	lw	ra,12(sp)
     91e:	8522                	mv	a0,s0
     920:	4422                	lw	s0,8(sp)
     922:	0141                	addi	sp,sp,16
     924:	8082                	ret

00000926 <_Z12ide_get_regsP10ide_config>:
     926:	1101                	addi	sp,sp,-32
     928:	ce06                	sw	ra,28(sp)
     92a:	cc22                	sw	s0,24(sp)
     92c:	842a                	mv	s0,a0
     92e:	502020ef          	jal	ra,2e30 <_Z12HPS_EnableIOv>
     932:	06200513          	li	a0,98
     936:	612020ef          	jal	ra,2f48 <_Z17HPS_fpga_spi_fastt>
     93a:	00045503          	lhu	a0,0(s0)
     93e:	60a020ef          	jal	ra,2f48 <_Z17HPS_fpga_spi_fastt>
     942:	4501                	li	a0,0
     944:	604020ef          	jal	ra,2f48 <_Z17HPS_fpga_spi_fastt>
     948:	0048                	addi	a0,sp,4
     94a:	4601                	li	a2,0
     94c:	4599                	li	a1,6
     94e:	65c020ef          	jal	ra,2faa <_Z28HPS_fpga_spi_fast_block_readPtmb>
     952:	4fc020ef          	jal	ra,2e4e <_Z13HPS_DisableIOv>
     956:	4792                	lw	a5,4(sp)
     958:	4732                	lw	a4,12(sp)
     95a:	020408a3          	sb	zero,49(s0)
     95e:	0027f313          	andi	t1,a5,2
     962:	0107d693          	srli	a3,a5,0x10
     966:	0187d893          	srli	a7,a5,0x18
     96a:	0017f813          	andi	a6,a5,1
     96e:	83a1                	srli	a5,a5,0x8
     970:	00f40b23          	sb	a5,22(s0)
     974:	01075513          	srli	a0,a4,0x10
     978:	47a2                	lw	a5,8(sp)
     97a:	01475593          	srli	a1,a4,0x14
     97e:	01675613          	srli	a2,a4,0x16
     982:	0322                	slli	t1,t1,0x8
     984:	08a2                	slli	a7,a7,0x8
     986:	0ff6f693          	zext.b	a3,a3
     98a:	00686833          	or	a6,a6,t1
     98e:	0116e6b3          	or	a3,a3,a7
     992:	893d                	andi	a0,a0,15
     994:	8985                	andi	a1,a1,1
     996:	8a05                	andi	a2,a2,1
     998:	8361                	srli	a4,a4,0x18
     99a:	01041a23          	sh	a6,20(s0)
     99e:	00d41d23          	sh	a3,26(s0)
     9a2:	00a40f23          	sb	a0,30(s0)
     9a6:	00b40fa3          	sb	a1,31(s0)
     9aa:	02c40023          	sb	a2,32(s0)
     9ae:	02e400a3          	sb	a4,33(s0)
     9b2:	02040923          	sb	zero,50(s0)
     9b6:	40f2                	lw	ra,28(sp)
     9b8:	00f41e23          	sh	a5,28(s0)
     9bc:	4462                	lw	s0,24(sp)
     9be:	6105                	addi	sp,sp,32
     9c0:	8082                	ret

000009c2 <_Z12ide_set_regsP10ide_config>:
     9c2:	1101                	addi	sp,sp,-32
     9c4:	cc22                	sw	s0,24(sp)
     9c6:	ce06                	sw	ra,28(sp)
     9c8:	03254683          	lbu	a3,50(a0)
     9cc:	842a                	mv	s0,a0
     9ce:	0816f793          	andi	a5,a3,129
     9d2:	e789                	bnez	a5,9dc <_Z12ide_set_regsP10ide_config+0x1a>
     9d4:	0106e693          	ori	a3,a3,16
     9d8:	02d50923          	sb	a3,50(a0)
     9dc:	01f44703          	lbu	a4,31(s0)
     9e0:	7bc00793          	li	a5,1980
     9e4:	01a44583          	lbu	a1,26(s0)
     9e8:	02f707b3          	mul	a5,a4,a5
     9ec:	03144503          	lbu	a0,49(s0)
     9f0:	01b44603          	lbu	a2,27(s0)
     9f4:	01c45803          	lhu	a6,28(s0)
     9f8:	97a2                	add	a5,a5,s0
     9fa:	0567c783          	lbu	a5,86(a5)
     9fe:	efb5                	bnez	a5,a7a <_Z12ide_set_regsP10ide_config+0xb8>
     a00:	03044783          	lbu	a5,48(s0)
     a04:	0522                	slli	a0,a0,0x8
     a06:	05c2                	slli	a1,a1,0x10
     a08:	8fc9                	or	a5,a5,a0
     a0a:	0662                	slli	a2,a2,0x18
     a0c:	8fcd                	or	a5,a5,a1
     a0e:	8fd1                	or	a5,a5,a2
     a10:	c23e                	sw	a5,4(sp)
     a12:	01011423          	sh	a6,8(sp)
     a16:	00011523          	sh	zero,10(sp)
     a1a:	4881                	li	a7,0
     a1c:	02044783          	lbu	a5,32(s0)
     a20:	01e44603          	lbu	a2,30(s0)
     a24:	00e03733          	snez	a4,a4
     a28:	0017b793          	seqz	a5,a5
     a2c:	40f007b3          	neg	a5,a5
     a30:	fc07f793          	andi	a5,a5,-64
     a34:	0712                	slli	a4,a4,0x4
     a36:	1781                	addi	a5,a5,-32
     a38:	8fd9                	or	a5,a5,a4
     a3a:	8fd1                	or	a5,a5,a2
     a3c:	06a2                	slli	a3,a3,0x8
     a3e:	0ff7f793          	zext.b	a5,a5
     a42:	8fd5                	or	a5,a5,a3
     a44:	01111623          	sh	a7,12(sp)
     a48:	00f11723          	sh	a5,14(sp)
     a4c:	3e4020ef          	jal	ra,2e30 <_Z12HPS_EnableIOv>
     a50:	06100513          	li	a0,97
     a54:	4f4020ef          	jal	ra,2f48 <_Z17HPS_fpga_spi_fastt>
     a58:	00045503          	lhu	a0,0(s0)
     a5c:	4ec020ef          	jal	ra,2f48 <_Z17HPS_fpga_spi_fastt>
     a60:	4501                	li	a0,0
     a62:	4e6020ef          	jal	ra,2f48 <_Z17HPS_fpga_spi_fastt>
     a66:	0048                	addi	a0,sp,4
     a68:	4599                	li	a1,6
     a6a:	502020ef          	jal	ra,2f6c <_Z29HPS_fpga_spi_fast_block_writePKtm>
     a6e:	3e0020ef          	jal	ra,2e4e <_Z13HPS_DisableIOv>
     a72:	40f2                	lw	ra,28(sp)
     a74:	4462                	lw	s0,24(sp)
     a76:	6105                	addi	sp,sp,32
     a78:	8082                	ret
     a7a:	f8000793          	li	a5,-128
     a7e:	02445883          	lhu	a7,36(s0)
     a82:	00f10223          	sb	a5,4(sp)
     a86:	00a102a3          	sb	a0,5(sp)
     a8a:	00b10323          	sb	a1,6(sp)
     a8e:	00c103a3          	sb	a2,7(sp)
     a92:	01011423          	sh	a6,8(sp)
     a96:	00011523          	sh	zero,10(sp)
     a9a:	b749                	j	a1c <_Z12ide_set_regsP10ide_config+0x5a>

00000a9c <_ZL12process_readP10ide_configi>:
     a9c:	7179                	addi	sp,sp,-48
     a9e:	d606                	sw	ra,44(sp)
     aa0:	d226                	sw	s1,36(sp)
     aa2:	ce4e                	sw	s3,28(sp)
     aa4:	84aa                	mv	s1,a0
     aa6:	c85a                	sw	s6,16(sp)
     aa8:	d422                	sw	s0,40(sp)
     aaa:	8b2e                	mv	s6,a1
     aac:	d04a                	sw	s2,32(sp)
     aae:	cc52                	sw	s4,24(sp)
     ab0:	ca56                	sw	s5,20(sp)
     ab2:	c65e                	sw	s7,12(sp)
     ab4:	c462                	sw	s8,8(sp)
     ab6:	c266                	sw	s9,4(sp)
     ab8:	3bf1                	jal	894 <_ZL7get_lbaP10ide_config>
     aba:	01a4c583          	lbu	a1,26(s1)
     abe:	89aa                	mv	s3,a0
     ac0:	6511                	lui	a0,0x4
     ac2:	27450513          	addi	a0,a0,628 # 4274 <strlen+0x1f6>
     ac6:	1b5020ef          	jal	ra,347a <riscprintf_>
     aca:	01f4c783          	lbu	a5,31(s1)
     ace:	1c0b1563          	bnez	s6,c98 <_ZL12process_readP10ide_configi+0x1fc>
     ad2:	7bc00713          	li	a4,1980
     ad6:	02e787b3          	mul	a5,a5,a4
     ada:	4685                	li	a3,1
     adc:	4905                	li	s2,1
     ade:	6a1d                	lui	s4,0x7
     ae0:	03478793          	addi	a5,a5,52
     ae4:	97a6                	add	a5,a5,s1
     ae6:	4f98                	lw	a4,24(a5)
     ae8:	0007d503          	lhu	a0,0(a5)
     aec:	1ee9e263          	bltu	s3,a4,cd0 <_ZL12process_readP10ide_configi+0x234>
     af0:	06a6                	slli	a3,a3,0x9
     af2:	00999613          	slli	a2,s3,0x9
     af6:	df8a0593          	addi	a1,s4,-520 # 6df8 <sector_buffer>
     afa:	4c0010ef          	jal	ra,1fba <_Z13dataslot_readtmmm>
     afe:	c4c8                	sw	a0,12(s1)
     b00:	1e051063          	bnez	a0,ce0 <_ZL12process_readP10ide_configi+0x244>
     b04:	4c05                	li	s8,1
     b06:	7bc00a93          	li	s5,1980
     b0a:	4b95                	li	s7,5
     b0c:	01a4c403          	lbu	s0,26(s1)
     b10:	0ff97c93          	zext.b	s9,s2
     b14:	99ca                	add	s3,s3,s2
     b16:	41940433          	sub	s0,s0,s9
     b1a:	0ff47413          	zext.b	s0,s0
     b1e:	00848d23          	sb	s0,26(s1)
     b22:	85ce                	mv	a1,s3
     b24:	8526                	mv	a0,s1
     b26:	3179                	jal	7b4 <_ZL7put_lbaP10ide_configm>
     b28:	008037b3          	snez	a5,s0
     b2c:	40f007b3          	neg	a5,a5
     b30:	9bf9                	andi	a5,a5,-2
     b32:	0154c703          	lbu	a4,21(s1)
     b36:	06e78793          	addi	a5,a5,110
     b3a:	03948823          	sb	s9,48(s1)
     b3e:	02f48923          	sb	a5,50(s1)
     b42:	0922                	slli	s2,s2,0x8
     b44:	0c070e63          	beqz	a4,c20 <_ZL12process_readP10ide_configi+0x184>
     b48:	8526                	mv	a0,s1
     b4a:	3da5                	jal	9c2 <_Z12ide_set_regsP10ide_config>
     b4c:	2e4020ef          	jal	ra,2e30 <_Z12HPS_EnableIOv>
     b50:	06100513          	li	a0,97
     b54:	3f4020ef          	jal	ra,2f48 <_Z17HPS_fpga_spi_fastt>
     b58:	4088                	lw	a0,0(s1)
     b5a:	0ff50513          	addi	a0,a0,255
     b5e:	0542                	slli	a0,a0,0x10
     b60:	8141                	srli	a0,a0,0x10
     b62:	3e6020ef          	jal	ra,2f48 <_Z17HPS_fpga_spi_fastt>
     b66:	4501                	li	a0,0
     b68:	3e0020ef          	jal	ra,2f48 <_Z17HPS_fpga_spi_fastt>
     b6c:	85ca                	mv	a1,s2
     b6e:	df8a0513          	addi	a0,s4,-520
     b72:	3fa020ef          	jal	ra,2f6c <_Z29HPS_fpga_spi_fast_block_writePKtm>
     b76:	2d8020ef          	jal	ra,2e4e <_Z13HPS_DisableIOv>
     b7a:	01a4c703          	lbu	a4,26(s1)
     b7e:	cf35                	beqz	a4,bfa <_ZL12process_readP10ide_configi+0x15e>
     b80:	01f4c783          	lbu	a5,31(s1)
     b84:	0c0b0e63          	beqz	s6,c60 <_ZL12process_readP10ide_configi+0x1c4>
     b88:	035786b3          	mul	a3,a5,s5
     b8c:	96a6                	add	a3,a3,s1
     b8e:	0486a903          	lw	s2,72(a3)
     b92:	01277363          	bgeu	a4,s2,b98 <_ZL12process_readP10ide_configi+0xfc>
     b96:	893a                	mv	s2,a4
     b98:	035787b3          	mul	a5,a5,s5
     b9c:	86ca                	mv	a3,s2
     b9e:	03478793          	addi	a5,a5,52
     ba2:	97a6                	add	a5,a5,s1
     ba4:	4f98                	lw	a4,24(a5)
     ba6:	0007d503          	lhu	a0,0(a5)
     baa:	0ce9e763          	bltu	s3,a4,c78 <_ZL12process_readP10ide_configi+0x1dc>
     bae:	06a6                	slli	a3,a3,0x9
     bb0:	00999613          	slli	a2,s3,0x9
     bb4:	df8a0593          	addi	a1,s4,-520
     bb8:	402010ef          	jal	ra,1fba <_Z13dataslot_readtmmm>
     bbc:	c4c8                	sw	a0,12(s1)
     bbe:	c909                	beqz	a0,bd0 <_ZL12process_readP10ide_configi+0x134>
     bc0:	a0e1                	j	c88 <_ZL12process_readP10ide_configi+0x1ec>
     bc2:	28c020ef          	jal	ra,2e4e <_Z13HPS_DisableIOv>
     bc6:	40dc                	lw	a5,4(s1)
     bc8:	40f45433          	sra	s0,s0,a5
     bcc:	881d                	andi	s0,s0,7
     bce:	e405                	bnez	s0,bf6 <_ZL12process_readP10ide_configi+0x15a>
     bd0:	260020ef          	jal	ra,2e30 <_Z12HPS_EnableIOv>
     bd4:	06300513          	li	a0,99
     bd8:	292020ef          	jal	ra,2e6a <_Z12HPS_fpga_spit>
     bdc:	842a                	mv	s0,a0
     bde:	f175                	bnez	a0,bc2 <_ZL12process_readP10ide_configi+0x126>
     be0:	28a020ef          	jal	ra,2e6a <_Z12HPS_fpga_spit>
     be4:	0ff57413          	zext.b	s0,a0
     be8:	266020ef          	jal	ra,2e4e <_Z13HPS_DisableIOv>
     bec:	40dc                	lw	a5,4(s1)
     bee:	40f45433          	sra	s0,s0,a5
     bf2:	881d                	andi	s0,s0,7
     bf4:	dc71                	beqz	s0,bd0 <_ZL12process_readP10ide_configi+0x134>
     bf6:	f1740be3          	beq	s0,s7,b0c <_ZL12process_readP10ide_configi+0x70>
     bfa:	5422                	lw	s0,40(sp)
     bfc:	50b2                	lw	ra,44(sp)
     bfe:	5902                	lw	s2,32(sp)
     c00:	49f2                	lw	s3,28(sp)
     c02:	4a62                	lw	s4,24(sp)
     c04:	4ad2                	lw	s5,20(sp)
     c06:	4b42                	lw	s6,16(sp)
     c08:	4bb2                	lw	s7,12(sp)
     c0a:	4c22                	lw	s8,8(sp)
     c0c:	4c92                	lw	s9,4(sp)
     c0e:	0004a423          	sw	zero,8(s1)
     c12:	5492                	lw	s1,36(sp)
     c14:	6511                	lui	a0,0x4
     c16:	28c50513          	addi	a0,a0,652 # 428c <strlen+0x20e>
     c1a:	6145                	addi	sp,sp,48
     c1c:	05f0206f          	j	347a <riscprintf_>
     c20:	210020ef          	jal	ra,2e30 <_Z12HPS_EnableIOv>
     c24:	06100513          	li	a0,97
     c28:	320020ef          	jal	ra,2f48 <_Z17HPS_fpga_spi_fastt>
     c2c:	4088                	lw	a0,0(s1)
     c2e:	0ff50513          	addi	a0,a0,255
     c32:	0542                	slli	a0,a0,0x10
     c34:	8141                	srli	a0,a0,0x10
     c36:	312020ef          	jal	ra,2f48 <_Z17HPS_fpga_spi_fastt>
     c3a:	4501                	li	a0,0
     c3c:	30c020ef          	jal	ra,2f48 <_Z17HPS_fpga_spi_fastt>
     c40:	df8a0513          	addi	a0,s4,-520
     c44:	85ca                	mv	a1,s2
     c46:	326020ef          	jal	ra,2f6c <_Z29HPS_fpga_spi_fast_block_writePKtm>
     c4a:	204020ef          	jal	ra,2e4e <_Z13HPS_DisableIOv>
     c4e:	0324c783          	lbu	a5,50(s1)
     c52:	8526                	mv	a0,s1
     c54:	fdf7f793          	andi	a5,a5,-33
     c58:	02f48923          	sb	a5,50(s1)
     c5c:	339d                	jal	9c2 <_Z12ide_set_regsP10ide_config>
     c5e:	bf31                	j	b7a <_ZL12process_readP10ide_configi+0xde>
     c60:	035787b3          	mul	a5,a5,s5
     c64:	4685                	li	a3,1
     c66:	4905                	li	s2,1
     c68:	03478793          	addi	a5,a5,52
     c6c:	97a6                	add	a5,a5,s1
     c6e:	4f98                	lw	a4,24(a5)
     c70:	0007d503          	lhu	a0,0(a5)
     c74:	f2e9fde3          	bgeu	s3,a4,bae <_ZL12process_readP10ide_configi+0x112>
     c78:	6611                	lui	a2,0x4
     c7a:	4581                	li	a1,0
     c7c:	df8a0513          	addi	a0,s4,-520
     c80:	5f9020ef          	jal	ra,3a78 <memset>
     c84:	0184a623          	sw	s8,12(s1)
     c88:	00991613          	slli	a2,s2,0x9
     c8c:	4581                	li	a1,0
     c8e:	df8a0513          	addi	a0,s4,-520
     c92:	5e7020ef          	jal	ra,3a78 <memset>
     c96:	bf2d                	j	bd0 <_ZL12process_readP10ide_configi+0x134>
     c98:	7bc00713          	li	a4,1980
     c9c:	02e78733          	mul	a4,a5,a4
     ca0:	01a4c903          	lbu	s2,26(s1)
     ca4:	9726                	add	a4,a4,s1
     ca6:	4738                	lw	a4,72(a4)
     ca8:	04091463          	bnez	s2,cf0 <_ZL12process_readP10ide_configi+0x254>
     cac:	01071913          	slli	s2,a4,0x10
     cb0:	01095913          	srli	s2,s2,0x10
     cb4:	7bc00713          	li	a4,1980
     cb8:	02e787b3          	mul	a5,a5,a4
     cbc:	86ca                	mv	a3,s2
     cbe:	6a1d                	lui	s4,0x7
     cc0:	03478793          	addi	a5,a5,52
     cc4:	97a6                	add	a5,a5,s1
     cc6:	4f98                	lw	a4,24(a5)
     cc8:	0007d503          	lhu	a0,0(a5)
     ccc:	e2e9f2e3          	bgeu	s3,a4,af0 <_ZL12process_readP10ide_configi+0x54>
     cd0:	6611                	lui	a2,0x4
     cd2:	4581                	li	a1,0
     cd4:	df8a0513          	addi	a0,s4,-520 # 6df8 <sector_buffer>
     cd8:	5a1020ef          	jal	ra,3a78 <memset>
     cdc:	4785                	li	a5,1
     cde:	c4dc                	sw	a5,12(s1)
     ce0:	00991613          	slli	a2,s2,0x9
     ce4:	4581                	li	a1,0
     ce6:	df8a0513          	addi	a0,s4,-520
     cea:	58f020ef          	jal	ra,3a78 <memset>
     cee:	bd19                	j	b04 <_ZL12process_readP10ide_configi+0x68>
     cf0:	fd2772e3          	bgeu	a4,s2,cb4 <_ZL12process_readP10ide_configi+0x218>
     cf4:	01071913          	slli	s2,a4,0x10
     cf8:	01095913          	srli	s2,s2,0x10
     cfc:	bf65                	j	cb4 <_ZL12process_readP10ide_configi+0x218>

00000cfe <_ZL13process_writeP10ide_configi>:
     cfe:	7179                	addi	sp,sp,-48
     d00:	d226                	sw	s1,36(sp)
     d02:	ce4e                	sw	s3,28(sp)
     d04:	ca56                	sw	s5,20(sp)
     d06:	c85a                	sw	s6,16(sp)
     d08:	c65e                	sw	s7,12(sp)
     d0a:	c462                	sw	s8,8(sp)
     d0c:	c266                	sw	s9,4(sp)
     d0e:	c06a                	sw	s10,0(sp)
     d10:	d606                	sw	ra,44(sp)
     d12:	d422                	sw	s0,40(sp)
     d14:	d04a                	sw	s2,32(sp)
     d16:	cc52                	sw	s4,24(sp)
     d18:	84aa                	mv	s1,a0
     d1a:	8aae                	mv	s5,a1
     d1c:	6d41                	lui	s10,0x10
     d1e:	3e9d                	jal	894 <_ZL7get_lbaP10ide_config>
     d20:	89aa                	mv	s3,a0
     d22:	4781                	li	a5,0
     d24:	7bc00c13          	li	s8,1980
     d28:	1d7d                	addi	s10,s10,-1 # ffff <_end+0x34c7>
     d2a:	4b95                	li	s7,5
     d2c:	6b1d                	lui	s6,0x7
     d2e:	0fa00c93          	li	s9,250
     d32:	0c0a8c63          	beqz	s5,e0a <_ZL13process_writeP10ide_configi+0x10c>
     d36:	01f4c703          	lbu	a4,31(s1)
     d3a:	01a4c903          	lbu	s2,26(s1)
     d3e:	03870733          	mul	a4,a4,s8
     d42:	9726                	add	a4,a4,s1
     d44:	4738                	lw	a4,72(a4)
     d46:	00090563          	beqz	s2,d50 <_ZL13process_writeP10ide_configi+0x52>
     d4a:	8a4a                	mv	s4,s2
     d4c:	01277663          	bgeu	a4,s2,d58 <_ZL13process_writeP10ide_configi+0x5a>
     d50:	01a77a33          	and	s4,a4,s10
     d54:	0ffa7913          	zext.b	s2,s4
     d58:	0487e793          	ori	a5,a5,72
     d5c:	02f48923          	sb	a5,50(s1)
     d60:	03248823          	sb	s2,48(s1)
     d64:	8526                	mv	a0,s1
     d66:	39b1                	jal	9c2 <_Z12ide_set_regsP10ide_config>
     d68:	a801                	j	d78 <_ZL13process_writeP10ide_configi+0x7a>
     d6a:	0e4020ef          	jal	ra,2e4e <_Z13HPS_DisableIOv>
     d6e:	40dc                	lw	a5,4(s1)
     d70:	40f45433          	sra	s0,s0,a5
     d74:	881d                	andi	s0,s0,7
     d76:	e405                	bnez	s0,d9e <_ZL13process_writeP10ide_configi+0xa0>
     d78:	0b8020ef          	jal	ra,2e30 <_Z12HPS_EnableIOv>
     d7c:	06300513          	li	a0,99
     d80:	0ea020ef          	jal	ra,2e6a <_Z12HPS_fpga_spit>
     d84:	842a                	mv	s0,a0
     d86:	f175                	bnez	a0,d6a <_ZL13process_writeP10ide_configi+0x6c>
     d88:	0e2020ef          	jal	ra,2e6a <_Z12HPS_fpga_spit>
     d8c:	0ff57413          	zext.b	s0,a0
     d90:	0be020ef          	jal	ra,2e4e <_Z13HPS_DisableIOv>
     d94:	40dc                	lw	a5,4(s1)
     d96:	40f45433          	sra	s0,s0,a5
     d9a:	881d                	andi	s0,s0,7
     d9c:	dc71                	beqz	s0,d78 <_ZL13process_writeP10ide_configi+0x7a>
     d9e:	0b741c63          	bne	s0,s7,e56 <_ZL13process_writeP10ide_configi+0x158>
     da2:	08e020ef          	jal	ra,2e30 <_Z12HPS_EnableIOv>
     da6:	06200513          	li	a0,98
     daa:	19e020ef          	jal	ra,2f48 <_Z17HPS_fpga_spi_fastt>
     dae:	4088                	lw	a0,0(s1)
     db0:	0ff50513          	addi	a0,a0,255
     db4:	0542                	slli	a0,a0,0x10
     db6:	8141                	srli	a0,a0,0x10
     db8:	190020ef          	jal	ra,2f48 <_Z17HPS_fpga_spi_fastt>
     dbc:	4501                	li	a0,0
     dbe:	18a020ef          	jal	ra,2f48 <_Z17HPS_fpga_spi_fastt>
     dc2:	4605                	li	a2,1
     dc4:	008a1593          	slli	a1,s4,0x8
     dc8:	df8b0513          	addi	a0,s6,-520 # 6df8 <sector_buffer>
     dcc:	1de020ef          	jal	ra,2faa <_Z28HPS_fpga_spi_fast_block_readPtmb>
     dd0:	07e020ef          	jal	ra,2e4e <_Z13HPS_DisableIOv>
     dd4:	0214c783          	lbu	a5,33(s1)
     dd8:	03979c63          	bne	a5,s9,e10 <_ZL13process_writeP10ide_configi+0x112>
     ddc:	00048d23          	sb	zero,26(s1)
     de0:	04400793          	li	a5,68
     de4:	02f48923          	sb	a5,50(s1)
     de8:	5422                	lw	s0,40(sp)
     dea:	50b2                	lw	ra,44(sp)
     dec:	5902                	lw	s2,32(sp)
     dee:	49f2                	lw	s3,28(sp)
     df0:	4a62                	lw	s4,24(sp)
     df2:	4ad2                	lw	s5,20(sp)
     df4:	4b42                	lw	s6,16(sp)
     df6:	4bb2                	lw	s7,12(sp)
     df8:	4c22                	lw	s8,8(sp)
     dfa:	4c92                	lw	s9,4(sp)
     dfc:	4d02                	lw	s10,0(sp)
     dfe:	0004a423          	sw	zero,8(s1)
     e02:	8526                	mv	a0,s1
     e04:	5492                	lw	s1,36(sp)
     e06:	6145                	addi	sp,sp,48
     e08:	be6d                	j	9c2 <_Z12ide_set_regsP10ide_config>
     e0a:	4905                	li	s2,1
     e0c:	4a05                	li	s4,1
     e0e:	b7a9                	j	d58 <_ZL13process_writeP10ide_configi+0x5a>
     e10:	01f4c783          	lbu	a5,31(s1)
     e14:	038787b3          	mul	a5,a5,s8
     e18:	97a6                	add	a5,a5,s1
     e1a:	47f8                	lw	a4,76(a5)
     e1c:	00e9ec63          	bltu	s3,a4,e34 <_ZL13process_writeP10ide_configi+0x136>
     e20:	0347d503          	lhu	a0,52(a5)
     e24:	009a1693          	slli	a3,s4,0x9
     e28:	00999613          	slli	a2,s3,0x9
     e2c:	df8b0593          	addi	a1,s6,-520
     e30:	25a010ef          	jal	ra,208a <_Z14dataslot_writetmmm>
     e34:	01a4c403          	lbu	s0,26(s1)
     e38:	99d2                	add	s3,s3,s4
     e3a:	85ce                	mv	a1,s3
     e3c:	41240433          	sub	s0,s0,s2
     e40:	0ff47413          	zext.b	s0,s0
     e44:	00848d23          	sb	s0,26(s1)
     e48:	8526                	mv	a0,s1
     e4a:	96bff0ef          	jal	ra,7b4 <_ZL7put_lbaP10ide_configm>
     e4e:	4791                	li	a5,4
     e50:	ee0411e3          	bnez	s0,d32 <_ZL13process_writeP10ide_configi+0x34>
     e54:	b771                	j	de0 <_ZL13process_writeP10ide_configi+0xe2>
     e56:	50b2                	lw	ra,44(sp)
     e58:	5422                	lw	s0,40(sp)
     e5a:	0004a423          	sw	zero,8(s1)
     e5e:	5902                	lw	s2,32(sp)
     e60:	5492                	lw	s1,36(sp)
     e62:	49f2                	lw	s3,28(sp)
     e64:	4a62                	lw	s4,24(sp)
     e66:	4ad2                	lw	s5,20(sp)
     e68:	4b42                	lw	s6,16(sp)
     e6a:	4bb2                	lw	s7,12(sp)
     e6c:	4c22                	lw	s8,8(sp)
     e6e:	4c92                	lw	s9,4(sp)
     e70:	4d02                	lw	s10,0(sp)
     e72:	6145                	addi	sp,sp,48
     e74:	8082                	ret

00000e76 <_ZL10handle_hddP10ide_config>:
     e76:	1141                	addi	sp,sp,-16
     e78:	c422                	sw	s0,8(sp)
     e7a:	c606                	sw	ra,12(sp)
     e7c:	c226                	sw	s1,4(sp)
     e7e:	02154783          	lbu	a5,33(a0)
     e82:	09100713          	li	a4,145
     e86:	842a                	mv	s0,a0
     e88:	0ce78663          	beq	a5,a4,f54 <_ZL10handle_hddP10ide_config+0xde>
     e8c:	02f77c63          	bgeu	a4,a5,ec4 <_ZL10handle_hddP10ide_config+0x4e>
     e90:	0c600713          	li	a4,198
     e94:	0ee78863          	beq	a5,a4,f84 <_ZL10handle_hddP10ide_config+0x10e>
     e98:	04f77463          	bgeu	a4,a5,ee0 <_ZL10handle_hddP10ide_config+0x6a>
     e9c:	0ec00713          	li	a4,236
     ea0:	10e78d63          	beq	a5,a4,fba <_ZL10handle_hddP10ide_config+0x144>
     ea4:	0fa00713          	li	a4,250
     ea8:	04e79763          	bne	a5,a4,ef6 <_ZL10handle_hddP10ide_config+0x80>
     eac:	10000793          	li	a5,256
     eb0:	02f51223          	sh	a5,36(a0)
     eb4:	4581                	li	a1,0
     eb6:	35a1                	jal	cfe <_ZL13process_writeP10ide_configi>
     eb8:	4501                	li	a0,0
     eba:	40b2                	lw	ra,12(sp)
     ebc:	4422                	lw	s0,8(sp)
     ebe:	4492                	lw	s1,4(sp)
     ec0:	0141                	addi	sp,sp,16
     ec2:	8082                	ret
     ec4:	17e1                	addi	a5,a5,-8
     ec6:	0ff7f793          	zext.b	a5,a5
     eca:	03800713          	li	a4,56
     ece:	02f76463          	bltu	a4,a5,ef6 <_ZL10handle_hddP10ide_config+0x80>
     ed2:	6711                	lui	a4,0x4
     ed4:	078a                	slli	a5,a5,0x2
     ed6:	34470713          	addi	a4,a4,836 # 4344 <strlen+0x2c6>
     eda:	97ba                	add	a5,a5,a4
     edc:	439c                	lw	a5,0(a5)
     ede:	8782                	jr	a5
     ee0:	0c400713          	li	a4,196
     ee4:	06e78463          	beq	a5,a4,f4c <_ZL10handle_hddP10ide_config+0xd6>
     ee8:	0c500713          	li	a4,197
     eec:	00e79563          	bne	a5,a4,ef6 <_ZL10handle_hddP10ide_config+0x80>
     ef0:	4585                	li	a1,1
     ef2:	3531                	jal	cfe <_ZL13process_writeP10ide_configi>
     ef4:	b7d1                	j	eb8 <_ZL10handle_hddP10ide_config+0x42>
     ef6:	400c                	lw	a1,0(s0)
     ef8:	6511                	lui	a0,0x4
     efa:	32050513          	addi	a0,a0,800 # 4320 <strlen+0x2a2>
     efe:	57c020ef          	jal	ra,347a <riscprintf_>
     f02:	4505                	li	a0,1
     f04:	bf5d                	j	eba <_ZL10handle_hddP10ide_config+0x44>
     f06:	04400793          	li	a5,68
     f0a:	02f50923          	sb	a5,50(a0)
     f0e:	00051e23          	sh	zero,28(a0)
     f12:	ab1ff0ef          	jal	ra,9c2 <_Z12ide_set_regsP10ide_config>
     f16:	b74d                	j	eb8 <_ZL10handle_hddP10ide_config+0x42>
     f18:	4581                	li	a1,0
     f1a:	33d5                	jal	cfe <_ZL13process_writeP10ide_configi>
     f1c:	bf71                	j	eb8 <_ZL10handle_hddP10ide_config+0x42>
     f1e:	4581                	li	a1,0
     f20:	3eb5                	jal	a9c <_ZL12process_readP10ide_configi>
     f22:	bf59                	j	eb8 <_ZL10handle_hddP10ide_config+0x42>
     f24:	6511                	lui	a0,0x4
     f26:	2dc50513          	addi	a0,a0,732 # 42dc <strlen+0x25e>
     f2a:	550020ef          	jal	ra,347a <riscprintf_>
     f2e:	04400793          	li	a5,68
     f32:	02f40923          	sb	a5,50(s0)
     f36:	8522                	mv	a0,s0
     f38:	a8bff0ef          	jal	ra,9c2 <_Z12ide_set_regsP10ide_config>
     f3c:	bfb5                	j	eb8 <_ZL10handle_hddP10ide_config+0x42>
     f3e:	6511                	lui	a0,0x4
     f40:	2b050513          	addi	a0,a0,688 # 42b0 <strlen+0x232>
     f44:	536020ef          	jal	ra,347a <riscprintf_>
     f48:	4505                	li	a0,1
     f4a:	bf85                	j	eba <_ZL10handle_hddP10ide_config+0x44>
     f4c:	4585                	li	a1,1
     f4e:	b4fff0ef          	jal	ra,a9c <_ZL12process_readP10ide_configi>
     f52:	b79d                	j	eb8 <_ZL10handle_hddP10ide_config+0x42>
     f54:	01f54503          	lbu	a0,31(a0)
     f58:	7bc00793          	li	a5,1980
     f5c:	01e44603          	lbu	a2,30(s0)
     f60:	02f50533          	mul	a0,a0,a5
     f64:	01a44583          	lbu	a1,26(s0)
     f68:	0605                	addi	a2,a2,1 # 4001 <vbuf_printf+0x35d>
     f6a:	03450513          	addi	a0,a0,52
     f6e:	9522                	add	a0,a0,s0
     f70:	8a1ff0ef          	jal	ra,810 <_ZL16ide_set_geometryP7drive_ttt>
     f74:	04400793          	li	a5,68
     f78:	02f40923          	sb	a5,50(s0)
     f7c:	8522                	mv	a0,s0
     f7e:	a45ff0ef          	jal	ra,9c2 <_Z12ide_set_regsP10ide_config>
     f82:	bf1d                	j	eb8 <_ZL10handle_hddP10ide_config+0x42>
     f84:	01a54583          	lbu	a1,26(a0)
     f88:	02000793          	li	a5,32
     f8c:	f6b7ebe3          	bltu	a5,a1,f02 <_ZL10handle_hddP10ide_config+0x8c>
     f90:	01f54783          	lbu	a5,31(a0)
     f94:	7bc00713          	li	a4,1980
     f98:	6511                	lui	a0,0x4
     f9a:	02e787b3          	mul	a5,a5,a4
     f9e:	29850513          	addi	a0,a0,664 # 4298 <strlen+0x21a>
     fa2:	97a2                	add	a5,a5,s0
     fa4:	c7ac                	sw	a1,72(a5)
     fa6:	4d4020ef          	jal	ra,347a <riscprintf_>
     faa:	04400793          	li	a5,68
     fae:	02f40923          	sb	a5,50(s0)
     fb2:	8522                	mv	a0,s0
     fb4:	a0fff0ef          	jal	ra,9c2 <_Z12ide_set_regsP10ide_config>
     fb8:	b701                	j	eb8 <_ZL10handle_hddP10ide_config+0x42>
     fba:	01f54783          	lbu	a5,31(a0)
     fbe:	7bc00493          	li	s1,1980
     fc2:	00052e23          	sw	zero,28(a0)
     fc6:	029784b3          	mul	s1,a5,s1
     fca:	02052823          	sw	zero,48(a0)
     fce:	00f50fa3          	sb	a5,31(a0)
     fd2:	4785                	li	a5,1
     fd4:	02f50823          	sb	a5,48(a0)
     fd8:	04e00793          	li	a5,78
     fdc:	02f50923          	sb	a5,50(a0)
     fe0:	00052a23          	sw	zero,20(a0)
     fe4:	00052c23          	sw	zero,24(a0)
     fe8:	02052023          	sw	zero,32(a0)
     fec:	02052223          	sw	zero,36(a0)
     ff0:	02052423          	sw	zero,40(a0)
     ff4:	02052623          	sw	zero,44(a0)
     ff8:	5f048493          	addi	s1,s1,1520
     ffc:	94aa                	add	s1,s1,a0
     ffe:	633010ef          	jal	ra,2e30 <_Z12HPS_EnableIOv>
    1002:	06100513          	li	a0,97
    1006:	743010ef          	jal	ra,2f48 <_Z17HPS_fpga_spi_fastt>
    100a:	4008                	lw	a0,0(s0)
    100c:	0ff50513          	addi	a0,a0,255
    1010:	0542                	slli	a0,a0,0x10
    1012:	8141                	srli	a0,a0,0x10
    1014:	735010ef          	jal	ra,2f48 <_Z17HPS_fpga_spi_fastt>
    1018:	4501                	li	a0,0
    101a:	72f010ef          	jal	ra,2f48 <_Z17HPS_fpga_spi_fastt>
    101e:	8526                	mv	a0,s1
    1020:	10000593          	li	a1,256
    1024:	749010ef          	jal	ra,2f6c <_Z29HPS_fpga_spi_fast_block_writePKtm>
    1028:	627010ef          	jal	ra,2e4e <_Z13HPS_DisableIOv>
    102c:	8522                	mv	a0,s0
    102e:	995ff0ef          	jal	ra,9c2 <_Z12ide_set_regsP10ide_config>
    1032:	b559                	j	eb8 <_ZL10handle_hddP10ide_config+0x42>

00001034 <_Z13calc_geometryP7hdfTYPE>:
    1034:	00c52803          	lw	a6,12(a0)
    1038:	1141                	addi	sp,sp,-16
    103a:	07f00793          	li	a5,127
    103e:	c23e                	sw	a5,4(sp)
    1040:	200005b7          	lui	a1,0x20000
    1044:	0ff00793          	li	a5,255
    1048:	c43e                	sw	a5,8(sp)
    104a:	c602                	sw	zero,12(sp)
    104c:	00985893          	srli	a7,a6,0x9
    1050:	8e0a                	mv	t3,sp
    1052:	03f00613          	li	a2,63
    1056:	1ff58593          	addi	a1,a1,511 # 200001ff <MEM_SIZE+0x1ffe01ff>
    105a:	6f41                	lui	t5,0x10
    105c:	3ff00e93          	li	t4,1023
    1060:	4345                	li	t1,17
    1062:	00261713          	slli	a4,a2,0x2
    1066:	4791                	li	a5,4
    1068:	02e8d6b3          	divu	a3,a7,a4
    106c:	0105ee63          	bltu	a1,a6,1088 <_Z13calc_geometryP7hdfTYPE+0x54>
    1070:	00defe63          	bgeu	t4,a3,108c <_Z13calc_geometryP7hdfTYPE+0x58>
    1074:	0785                	addi	a5,a5,1
    1076:	9732                	add	a4,a4,a2
    1078:	fe6798e3          	bne	a5,t1,1068 <_Z13calc_geometryP7hdfTYPE+0x34>
    107c:	004e2783          	lw	a5,4(t3)
    1080:	0e11                	addi	t3,t3,4
    1082:	cf89                	beqz	a5,109c <_Z13calc_geometryP7hdfTYPE+0x68>
    1084:	863e                	mv	a2,a5
    1086:	bff1                	j	1062 <_Z13calc_geometryP7hdfTYPE+0x2e>
    1088:	fedf66e3          	bltu	t5,a3,1074 <_Z13calc_geometryP7hdfTYPE+0x40>
    108c:	07c2                	slli	a5,a5,0x10
    108e:	83c1                	srli	a5,a5,0x10
    1090:	0642                	slli	a2,a2,0x10
    1092:	8fd1                	or	a5,a5,a2
    1094:	c914                	sw	a3,16(a0)
    1096:	c95c                	sw	a5,20(a0)
    1098:	0141                	addi	sp,sp,16
    109a:	8082                	ret
    109c:	47c5                	li	a5,17
    109e:	0642                	slli	a2,a2,0x10
    10a0:	8fd1                	or	a5,a5,a2
    10a2:	c914                	sw	a3,16(a0)
    10a4:	c95c                	sw	a5,20(a0)
    10a6:	0141                	addi	sp,sp,16
    10a8:	8082                	ret

000010aa <_Z16get_rdb_geometryP7hdfTYPE>:
    10aa:	679d                	lui	a5,0x7
    10ac:	df878793          	addi	a5,a5,-520 # 6df8 <sector_buffer>
    10b0:	47b0                	lw	a2,72(a5)
    10b2:	0447a803          	lw	a6,68(a5)
    10b6:	43b8                	lw	a4,64(a5)
    10b8:	00865693          	srli	a3,a2,0x8
    10bc:	00885793          	srli	a5,a6,0x8
    10c0:	01865593          	srli	a1,a2,0x18
    10c4:	01885813          	srli	a6,a6,0x18
    10c8:	f006f693          	andi	a3,a3,-256
    10cc:	f007f793          	andi	a5,a5,-256
    10d0:	0107e7b3          	or	a5,a5,a6
    10d4:	01871613          	slli	a2,a4,0x18
    10d8:	01875313          	srli	t1,a4,0x18
    10dc:	00871893          	slli	a7,a4,0x8
    10e0:	8ecd                	or	a3,a3,a1
    10e2:	6841                	lui	a6,0x10
    10e4:	00ff05b7          	lui	a1,0xff0
    10e8:	00b8f8b3          	and	a7,a7,a1
    10ec:	00666633          	or	a2,a2,t1
    10f0:	8321                	srli	a4,a4,0x8
    10f2:	06c2                	slli	a3,a3,0x10
    10f4:	f0080813          	addi	a6,a6,-256 # ff00 <_end+0x33c8>
    10f8:	1141                	addi	sp,sp,-16
    10fa:	01079593          	slli	a1,a5,0x10
    10fe:	01077733          	and	a4,a4,a6
    1102:	82c1                	srli	a3,a3,0x10
    1104:	01166633          	or	a2,a2,a7
    1108:	c422                	sw	s0,8(sp)
    110a:	c606                	sw	ra,12(sp)
    110c:	8e59                	or	a2,a2,a4
    110e:	8dd5                	or	a1,a1,a3
    1110:	07c2                	slli	a5,a5,0x10
    1112:	83c1                	srli	a5,a5,0x10
    1114:	c94c                	sw	a1,20(a0)
    1116:	c910                	sw	a2,16(a0)
    1118:	0ff00713          	li	a4,255
    111c:	842a                	mv	s0,a0
    111e:	00f76563          	bltu	a4,a5,1128 <_Z16get_rdb_geometryP7hdfTYPE+0x7e>
    1122:	47c1                	li	a5,16
    1124:	06d7f363          	bgeu	a5,a3,118a <_Z16get_rdb_geometryP7hdfTYPE+0xe0>
    1128:	6511                	lui	a0,0x4
    112a:	42850513          	addi	a0,a0,1064 # 4428 <strlen+0x3aa>
    112e:	34c020ef          	jal	ra,347a <riscprintf_>
    1132:	01645583          	lhu	a1,22(s0)
    1136:	0015f793          	andi	a5,a1,1
    113a:	eb91                	bnez	a5,114e <_Z16get_rdb_geometryP7hdfTYPE+0xa4>
    113c:	1ff00793          	li	a5,511
    1140:	00b7e763          	bltu	a5,a1,114e <_Z16get_rdb_geometryP7hdfTYPE+0xa4>
    1144:	01445683          	lhu	a3,20(s0)
    1148:	47a1                	li	a5,8
    114a:	00d7fc63          	bgeu	a5,a3,1162 <_Z16get_rdb_geometryP7hdfTYPE+0xb8>
    114e:	6511                	lui	a0,0x4
    1150:	47450513          	addi	a0,a0,1140 # 4474 <strlen+0x3f6>
    1154:	326020ef          	jal	ra,347a <riscprintf_>
    1158:	8522                	mv	a0,s0
    115a:	4422                	lw	s0,8(sp)
    115c:	40b2                	lw	ra,12(sp)
    115e:	0141                	addi	sp,sp,16
    1160:	bdd1                	j	1034 <_Z13calc_geometryP7hdfTYPE>
    1162:	6511                	lui	a0,0x4
    1164:	00169713          	slli	a4,a3,0x1
    1168:	0015d613          	srli	a2,a1,0x1
    116c:	44850513          	addi	a0,a0,1096 # 4448 <strlen+0x3ca>
    1170:	30a020ef          	jal	ra,347a <riscprintf_>
    1174:	01445783          	lhu	a5,20(s0)
    1178:	01645703          	lhu	a4,22(s0)
    117c:	0786                	slli	a5,a5,0x1
    117e:	8305                	srli	a4,a4,0x1
    1180:	07c2                	slli	a5,a5,0x10
    1182:	83c1                	srli	a5,a5,0x10
    1184:	0742                	slli	a4,a4,0x10
    1186:	8fd9                	or	a5,a5,a4
    1188:	c85c                	sw	a5,20(s0)
    118a:	40b2                	lw	ra,12(sp)
    118c:	4422                	lw	s0,8(sp)
    118e:	0141                	addi	sp,sp,16
    1190:	8082                	ret

00001192 <_Z14guess_geometryP7hdfTYPE>:
    1192:	7179                	addi	sp,sp,-48
    1194:	d226                	sw	s1,36(sp)
    1196:	d04a                	sw	s2,32(sp)
    1198:	ce4e                	sw	s3,28(sp)
    119a:	cc52                	sw	s4,24(sp)
    119c:	ca56                	sw	s5,20(sp)
    119e:	c85a                	sw	s6,16(sp)
    11a0:	c65e                	sw	s7,12(sp)
    11a2:	c462                	sw	s8,8(sp)
    11a4:	d606                	sw	ra,44(sp)
    11a6:	d422                	sw	s0,40(sp)
    11a8:	6a9d                	lui	s5,0x7
    11aa:	691d                	lui	s2,0x7
    11ac:	4b534bb7          	lui	s7,0x4b534
    11b0:	8b2a                	mv	s6,a0
    11b2:	00052e23          	sw	zero,28(a0)
    11b6:	df8a8a93          	addi	s5,s5,-520 # 6df8 <sector_buffer>
    11ba:	4a01                	li	s4,0
    11bc:	4481                	li	s1,0
    11be:	ff890913          	addi	s2,s2,-8 # 6ff8 <sector_buffer+0x200>
    11c2:	6991                	lui	s3,0x4
    11c4:	452b8b93          	addi	s7,s7,1106 # 4b534452 <MEM_SIZE+0x4b514452>
    11c8:	6c09                	lui	s8,0x2
    11ca:	008b5503          	lhu	a0,8(s6)
    11ce:	20000693          	li	a3,512
    11d2:	8652                	mv	a2,s4
    11d4:	85d6                	mv	a1,s5
    11d6:	5e5000ef          	jal	ra,1fba <_Z13dataslot_readtmmm>
    11da:	8456                	mv	s0,s5
    11dc:	00044583          	lbu	a1,0(s0)
    11e0:	4c098513          	addi	a0,s3,1216 # 44c0 <strlen+0x442>
    11e4:	0405                	addi	s0,s0,1
    11e6:	8ccd                	or	s1,s1,a1
    11e8:	292020ef          	jal	ra,347a <riscprintf_>
    11ec:	fe8918e3          	bne	s2,s0,11dc <_Z14guess_geometryP7hdfTYPE+0x4a>
    11f0:	000aa783          	lw	a5,0(s5)
    11f4:	07778f63          	beq	a5,s7,1272 <_Z14guess_geometryP7hdfTYPE+0xe0>
    11f8:	200a0a13          	addi	s4,s4,512
    11fc:	fd8a17e3          	bne	s4,s8,11ca <_Z14guess_geometryP7hdfTYPE+0x38>
    1200:	ccd1                	beqz	s1,129c <_Z14guess_geometryP7hdfTYPE+0x10a>
    1202:	00cb2603          	lw	a2,12(s6)
    1206:	008007b7          	lui	a5,0x800
    120a:	07c1                	addi	a5,a5,16 # 800010 <MEM_SIZE+0x7e0010>
    120c:	00e65693          	srli	a3,a2,0xe
    1210:	00fb2a23          	sw	a5,20(s6)
    1214:	0685                	addi	a3,a3,1
    1216:	67c1                	lui	a5,0x10
    1218:	0cf6e463          	bltu	a3,a5,12e0 <_Z14guess_geometryP7hdfTYPE+0x14e>
    121c:	471d                	li	a4,7
    121e:	02000793          	li	a5,32
    1222:	65c1                	lui	a1,0x10
    1224:	a031                	j	1230 <_Z14guess_geometryP7hdfTYPE+0x9e>
    1226:	02d656b3          	divu	a3,a2,a3
    122a:	0685                	addi	a3,a3,1
    122c:	06b6ee63          	bltu	a3,a1,12a8 <_Z14guess_geometryP7hdfTYPE+0x116>
    1230:	0786                	slli	a5,a5,0x1
    1232:	177d                	addi	a4,a4,-1
    1234:	00979693          	slli	a3,a5,0x9
    1238:	f77d                	bnez	a4,1226 <_Z14guess_geometryP7hdfTYPE+0x94>
    123a:	8251                	srli	a2,a2,0x14
    123c:	00160693          	addi	a3,a2,1
    1240:	80000713          	li	a4,-2048
    1244:	67c1                	lui	a5,0x10
    1246:	04f6f863          	bgeu	a3,a5,1296 <_Z14guess_geometryP7hdfTYPE+0x104>
    124a:	6511                	lui	a0,0x4
    124c:	00db2823          	sw	a3,16(s6)
    1250:	00eb2e23          	sw	a4,28(s6)
    1254:	50050513          	addi	a0,a0,1280 # 4500 <strlen+0x482>
    1258:	5422                	lw	s0,40(sp)
    125a:	50b2                	lw	ra,44(sp)
    125c:	5492                	lw	s1,36(sp)
    125e:	5902                	lw	s2,32(sp)
    1260:	49f2                	lw	s3,28(sp)
    1262:	4a62                	lw	s4,24(sp)
    1264:	4ad2                	lw	s5,20(sp)
    1266:	4b42                	lw	s6,16(sp)
    1268:	4bb2                	lw	s7,12(sp)
    126a:	4c22                	lw	s8,8(sp)
    126c:	6145                	addi	sp,sp,48
    126e:	20c0206f          	j	347a <riscprintf_>
    1272:	6511                	lui	a0,0x4
    1274:	4d450513          	addi	a0,a0,1236 # 44d4 <strlen+0x456>
    1278:	202020ef          	jal	ra,347a <riscprintf_>
    127c:	5422                	lw	s0,40(sp)
    127e:	50b2                	lw	ra,44(sp)
    1280:	5492                	lw	s1,36(sp)
    1282:	5902                	lw	s2,32(sp)
    1284:	49f2                	lw	s3,28(sp)
    1286:	4a62                	lw	s4,24(sp)
    1288:	4ad2                	lw	s5,20(sp)
    128a:	4bb2                	lw	s7,12(sp)
    128c:	4c22                	lw	s8,8(sp)
    128e:	855a                	mv	a0,s6
    1290:	4b42                	lw	s6,16(sp)
    1292:	6145                	addi	sp,sp,48
    1294:	bd19                	j	10aa <_Z16get_rdb_geometryP7hdfTYPE>
    1296:	fff78693          	addi	a3,a5,-1 # ffff <_end+0x34c7>
    129a:	bf45                	j	124a <_Z14guess_geometryP7hdfTYPE+0xb8>
    129c:	855a                	mv	a0,s6
    129e:	3b59                	jal	1034 <_Z13calc_geometryP7hdfTYPE>
    12a0:	6511                	lui	a0,0x4
    12a2:	56450513          	addi	a0,a0,1380 # 4564 <strlen+0x4e6>
    12a6:	bf4d                	j	1258 <_Z14guess_geometryP7hdfTYPE+0xc6>
    12a8:	08000693          	li	a3,128
    12ac:	873e                	mv	a4,a5
    12ae:	02f6c663          	blt	a3,a5,12da <_Z14guess_geometryP7hdfTYPE+0x148>
    12b2:	02e7c7b3          	div	a5,a5,a4
    12b6:	01071693          	slli	a3,a4,0x10
    12ba:	02e78733          	mul	a4,a5,a4
    12be:	07c2                	slli	a5,a5,0x10
    12c0:	83c1                	srli	a5,a5,0x10
    12c2:	8fd5                	or	a5,a5,a3
    12c4:	00fb2a23          	sw	a5,20(s6)
    12c8:	00971693          	slli	a3,a4,0x9
    12cc:	02d65633          	divu	a2,a2,a3
    12d0:	40e00733          	neg	a4,a4
    12d4:	00160693          	addi	a3,a2,1
    12d8:	b7b5                	j	1244 <_Z14guess_geometryP7hdfTYPE+0xb2>
    12da:	08000713          	li	a4,128
    12de:	bfd1                	j	12b2 <_Z14guess_geometryP7hdfTYPE+0x120>
    12e0:	002007b7          	lui	a5,0x200
    12e4:	0785                	addi	a5,a5,1 # 200001 <MEM_SIZE+0x1e0001>
    12e6:	5701                	li	a4,-32
    12e8:	00fb2a23          	sw	a5,20(s6)
    12ec:	bfa1                	j	1244 <_Z14guess_geometryP7hdfTYPE+0xb2>

000012ee <_Z11ide_img_setmtiiii>:
    12ee:	7179                	addi	sp,sp,-48
    12f0:	d04a                	sw	s2,32(sp)
    12f2:	ce4e                	sw	s3,28(sp)
    12f4:	cc52                	sw	s4,24(sp)
    12f6:	ca56                	sw	s5,20(sp)
    12f8:	c85a                	sw	s6,16(sp)
    12fa:	c65e                	sw	s7,12(sp)
    12fc:	c462                	sw	s8,8(sp)
    12fe:	c266                	sw	s9,4(sp)
    1300:	d606                	sw	ra,44(sp)
    1302:	d422                	sw	s0,40(sp)
    1304:	d226                	sw	s1,36(sp)
    1306:	c06a                	sw	s10,0(sp)
    1308:	00155913          	srli	s2,a0,0x1
    130c:	8b36                	mv	s6,a3
    130e:	89aa                	mv	s3,a0
    1310:	8cae                	mv	s9,a1
    1312:	8c32                	mv	s8,a2
    1314:	8bba                	mv	s7,a4
    1316:	8abe                	mv	s5,a5
    1318:	00157a13          	andi	s4,a0,1
    131c:	66bd                	lui	a3,0xf
    131e:	00090463          	beqz	s2,1326 <_Z11ide_img_setmtiiii+0x38>
    1322:	10068693          	addi	a3,a3,256 # f100 <_end+0x25c8>
    1326:	6705                	lui	a4,0x1
    1328:	fac70713          	addi	a4,a4,-84 # fac <_ZL10handle_hddP10ide_config+0x136>
    132c:	7bc00793          	li	a5,1980
    1330:	02e90733          	mul	a4,s2,a4
    1334:	6495                	lui	s1,0x5
    1336:	ea048493          	addi	s1,s1,-352 # 4ea0 <ide_inst>
    133a:	8566                	mv	a0,s9
    133c:	02fa07b3          	mul	a5,s4,a5
    1340:	00e48d33          	add	s10,s1,a4
    1344:	00dd2023          	sw	a3,0(s10)
    1348:	97ba                	add	a5,a5,a4
    134a:	6715                	lui	a4,0x5
    134c:	00f48433          	add	s0,s1,a5
    1350:	eac70713          	addi	a4,a4,-340 # 4eac <ide_inst+0xc>
    1354:	97ba                	add	a5,a5,a4
    1356:	03340ba3          	sb	s3,55(s0)
    135a:	0207a823          	sw	zero,48(a5)
    135e:	47c1                	li	a5,16
    1360:	c43c                	sw	a5,72(s0)
    1362:	04041023          	sh	zero,64(s0)
    1366:	04042623          	sw	zero,76(s0)
    136a:	04042823          	sw	zero,80(s0)
    136e:	03941a23          	sh	s9,52(s0)
    1372:	3e9000ef          	jal	ra,1f5a <_Z13dataslot_sizet>
    1376:	00a03733          	snez	a4,a0
    137a:	00191793          	slli	a5,s2,0x1
    137e:	97ca                	add	a5,a5,s2
    1380:	02e40b23          	sb	a4,54(s0)
    1384:	4705                	li	a4,1
    1386:	00ed2423          	sw	a4,8(s10)
    138a:	00fd2223          	sw	a5,4(s10)
    138e:	4701                	li	a4,0
    1390:	c119                	beqz	a0,1396 <_Z11ide_img_setmtiiii+0xa8>
    1392:	01803733          	snez	a4,s8
    1396:	6785                	lui	a5,0x1
    1398:	7bc00413          	li	s0,1980
    139c:	fac78793          	addi	a5,a5,-84 # fac <_ZL10handle_hddP10ide_config+0x136>
    13a0:	02f907b3          	mul	a5,s2,a5
    13a4:	8566                	mv	a0,s9
    13a6:	028a0433          	mul	s0,s4,s0
    13aa:	943e                	add	s0,s0,a5
    13ac:	9426                	add	s0,s0,s1
    13ae:	04e40b23          	sb	a4,86(s0)
    13b2:	3a9000ef          	jal	ra,1f5a <_Z13dataslot_sizet>
    13b6:	05544783          	lbu	a5,85(s0)
    13ba:	dc08                	sw	a0,56(s0)
    13bc:	04f40a23          	sb	a5,84(s0)
    13c0:	e7f9                	bnez	a5,148e <_Z11ide_img_setmtiiii+0x1a0>
    13c2:	03644783          	lbu	a5,54(s0)
    13c6:	4c21                	li	s8,8
    13c8:	0c079b63          	bnez	a5,149e <_Z11ide_img_setmtiiii+0x1b0>
    13cc:	6405                	lui	s0,0x1
    13ce:	fac40413          	addi	s0,s0,-84 # fac <_ZL10handle_hddP10ide_config+0x136>
    13d2:	02890433          	mul	s0,s2,s0
    13d6:	25b010ef          	jal	ra,2e30 <_Z12HPS_EnableIOv>
    13da:	06100513          	li	a0,97
    13de:	28d010ef          	jal	ra,2e6a <_Z12HPS_fpga_spit>
    13e2:	00848cb3          	add	s9,s1,s0
    13e6:	000ca503          	lw	a0,0(s9)
    13ea:	0519                	addi	a0,a0,6
    13ec:	2cb010ef          	jal	ra,2eb6 <_Z7spi32_wm>
    13f0:	002a1513          	slli	a0,s4,0x2
    13f4:	00ac1533          	sll	a0,s8,a0
    13f8:	0542                	slli	a0,a0,0x10
    13fa:	8141                	srli	a0,a0,0x10
    13fc:	26f010ef          	jal	ra,2e6a <_Z12HPS_fpga_spit>
    1400:	24f010ef          	jal	ra,2e4e <_Z13HPS_DisableIOv>
    1404:	22d010ef          	jal	ra,2e30 <_Z12HPS_EnableIOv>
    1408:	06100513          	li	a0,97
    140c:	25f010ef          	jal	ra,2e6a <_Z12HPS_fpga_spit>
    1410:	000ca503          	lw	a0,0(s9)
    1414:	0519                	addi	a0,a0,6
    1416:	2a1010ef          	jal	ra,2eb6 <_Z7spi32_wm>
    141a:	20000513          	li	a0,512
    141e:	24d010ef          	jal	ra,2e6a <_Z12HPS_fpga_spit>
    1422:	22d010ef          	jal	ra,2e4e <_Z13HPS_DisableIOv>
    1426:	7bc00513          	li	a0,1980
    142a:	02aa0533          	mul	a0,s4,a0
    142e:	9522                	add	a0,a0,s0
    1430:	00a48433          	add	s0,s1,a0
    1434:	03842803          	lw	a6,56(s0)
    1438:	03644603          	lbu	a2,54(s0)
    143c:	00985813          	srli	a6,a6,0x9
    1440:	05042223          	sw	a6,68(s0)
    1444:	ee3d                	bnez	a2,14c2 <_Z11ide_img_setmtiiii+0x1d4>
    1446:	6785                	lui	a5,0x1
    1448:	7bc00693          	li	a3,1980
    144c:	fac78793          	addi	a5,a5,-84 # fac <_ZL10handle_hddP10ide_config+0x136>
    1450:	02f907b3          	mul	a5,s2,a5
    1454:	5422                	lw	s0,40(sp)
    1456:	50b2                	lw	ra,44(sp)
    1458:	5902                	lw	s2,32(sp)
    145a:	4ad2                	lw	s5,20(sp)
    145c:	4b42                	lw	s6,16(sp)
    145e:	4bb2                	lw	s7,12(sp)
    1460:	4c22                	lw	s8,8(sp)
    1462:	4c92                	lw	s9,4(sp)
    1464:	4d02                	lw	s10,0(sp)
    1466:	02da06b3          	mul	a3,s4,a3
    146a:	85ce                	mv	a1,s3
    146c:	4a62                	lw	s4,24(sp)
    146e:	49f2                	lw	s3,28(sp)
    1470:	6511                	lui	a0,0x4
    1472:	5a050513          	addi	a0,a0,1440 # 45a0 <strlen+0x522>
    1476:	96be                	add	a3,a3,a5
    1478:	96a6                	add	a3,a3,s1
    147a:	0406d783          	lhu	a5,64(a3)
    147e:	03e6d703          	lhu	a4,62(a3)
    1482:	5492                	lw	s1,36(sp)
    1484:	03c6d683          	lhu	a3,60(a3)
    1488:	6145                	addi	sp,sp,48
    148a:	7f10106f          	j	347a <riscprintf_>
    148e:	03644783          	lbu	a5,54(s0)
    1492:	cb81                	beqz	a5,14a2 <_Z11ide_img_setmtiiii+0x1b4>
    1494:	05644783          	lbu	a5,86(s0)
    1498:	e789                	bnez	a5,14a2 <_Z11ide_img_setmtiiii+0x1b4>
    149a:	04040a23          	sb	zero,84(s0)
    149e:	4c25                	li	s8,9
    14a0:	b735                	j	13cc <_Z11ide_img_setmtiiii+0xde>
    14a2:	6705                	lui	a4,0x1
    14a4:	7bc00793          	li	a5,1980
    14a8:	fac70713          	addi	a4,a4,-84 # fac <_ZL10handle_hddP10ide_config+0x136>
    14ac:	02e90733          	mul	a4,s2,a4
    14b0:	4c25                	li	s8,9
    14b2:	02fa07b3          	mul	a5,s4,a5
    14b6:	97ba                	add	a5,a5,a4
    14b8:	97a6                	add	a5,a5,s1
    14ba:	4705                	li	a4,1
    14bc:	04e78b23          	sb	a4,86(a5)
    14c0:	b731                	j	13cc <_Z11ide_img_setmtiiii+0xde>
    14c2:	03450513          	addi	a0,a0,52
    14c6:	010b9613          	slli	a2,s7,0x10
    14ca:	010b1593          	slli	a1,s6,0x10
    14ce:	81c1                	srli	a1,a1,0x10
    14d0:	8241                	srli	a2,a2,0x10
    14d2:	9526                	add	a0,a0,s1
    14d4:	b3cff0ef          	jal	ra,810 <_ZL16ide_set_geometryP7drive_ttt>
    14d8:	03c45583          	lhu	a1,60(s0)
    14dc:	000a8b63          	beqz	s5,14f2 <_Z11ide_img_setmtiiii+0x204>
    14e0:	67c1                	lui	a5,0x10
    14e2:	17fd                	addi	a5,a5,-1 # ffff <_end+0x34c7>
    14e4:	00f58763          	beq	a1,a5,14f2 <_Z11ide_img_setmtiiii+0x204>
    14e8:	0585                	addi	a1,a1,1 # 10001 <_end+0x34c9>
    14ea:	05c2                	slli	a1,a1,0x10
    14ec:	81c1                	srli	a1,a1,0x10
    14ee:	02b41e23          	sh	a1,60(s0)
    14f2:	6705                	lui	a4,0x1
    14f4:	7bc00793          	li	a5,1980
    14f8:	fac70713          	addi	a4,a4,-84 # fac <_ZL10handle_hddP10ide_config+0x136>
    14fc:	02e90733          	mul	a4,s2,a4
    1500:	04000313          	li	t1,64
    1504:	02000837          	lui	a6,0x2000
    1508:	20202637          	lui	a2,0x20202
    150c:	02060613          	addi	a2,a2,32 # 20202020 <MEM_SIZE+0x201e2020>
    1510:	00380e13          	addi	t3,a6,3 # 2000003 <MEM_SIZE+0x1fe0003>
    1514:	0805                	addi	a6,a6,1
    1516:	02fa07b3          	mul	a5,s4,a5
    151a:	97ba                	add	a5,a5,a4
    151c:	00f48733          	add	a4,s1,a5
    1520:	03e75883          	lhu	a7,62(a4)
    1524:	04075503          	lhu	a0,64(a4)
    1528:	5e671823          	sh	t1,1520(a4)
    152c:	5f478693          	addi	a3,a5,1524
    1530:	48444337          	lui	t1,0x48444
    1534:	5eb71923          	sh	a1,1522(a4)
    1538:	5f171b23          	sh	a7,1526(a4)
    153c:	5ea71e23          	sh	a0,1532(a4)
    1540:	05572623          	sw	s5,76(a4)
    1544:	96a6                	add	a3,a3,s1
    1546:	14f30313          	addi	t1,t1,335 # 4844414f <MEM_SIZE+0x4842414f>
    154a:	0066a823          	sw	t1,16(a3)
    154e:	30303337          	lui	t1,0x30303
    1552:	03030313          	addi	t1,t1,48 # 30303030 <MEM_SIZE+0x302e3030>
    1556:	0066aa23          	sw	t1,20(a3)
    155a:	20203337          	lui	t1,0x20203
    155e:	02030313          	addi	t1,t1,32 # 20203020 <MEM_SIZE+0x201e3020>
    1562:	0066ac23          	sw	t1,24(a3)
    1566:	ced0                	sw	a2,28(a3)
    1568:	d290                	sw	a2,32(a3)
    156a:	03c6a223          	sw	t3,36(a3)
    156e:	4311                	li	t1,4
    1570:	60671e23          	sh	t1,1564(a4)
    1574:	6311                	lui	t1,0x4
    1576:	14d30313          	addi	t1,t1,333 # 414d <strlen+0xcf>
    157a:	62671323          	sh	t1,1574(a4)
    157e:	62c72c23          	sw	a2,1592(a4)
    1582:	62c72e23          	sw	a2,1596(a4)
    1586:	64c72023          	sw	a2,1600(a4)
    158a:	64c72223          	sw	a2,1604(a4)
    158e:	64c72423          	sw	a2,1608(a4)
    1592:	41205337          	lui	t1,0x41205
    1596:	80202637          	lui	a2,0x80202
    159a:	94730313          	addi	t1,t1,-1721 # 41204947 <MEM_SIZE+0x411e4947>
    159e:	02060613          	addi	a2,a2,32 # 80202020 <MEM_SIZE+0x801e2020>
    15a2:	62672423          	sw	t1,1576(a4)
    15a6:	64c72623          	sw	a2,1612(a4)
    15aa:	52445337          	lui	t1,0x52445
    15ae:	02004637          	lui	a2,0x2004
    15b2:	84130313          	addi	t1,t1,-1983 # 52444841 <MEM_SIZE+0x52424841>
    15b6:	0605                	addi	a2,a2,1 # 2004001 <MEM_SIZE+0x1fe4001>
    15b8:	62672623          	sw	t1,1580(a4)
    15bc:	64c72a23          	sw	a2,1620(a4)
    15c0:	49564337          	lui	t1,0x49564
    15c4:	00070637          	lui	a2,0x70
    15c8:	45230313          	addi	t1,t1,1106 # 49564452 <MEM_SIZE+0x49544452>
    15cc:	20060613          	addi	a2,a2,512 # 70200 <MEM_SIZE+0x50200>
    15d0:	4374                	lw	a3,68(a4)
    15d2:	62672823          	sw	t1,1584(a4)
    15d6:	64c72c23          	sw	a2,1624(a4)
    15da:	20204337          	lui	t1,0x20204
    15de:	6615                	lui	a2,0x5
    15e0:	65072823          	sw	a6,1616(a4)
    15e4:	52030313          	addi	t1,t1,1312 # 20204520 <MEM_SIZE+0x201e4520>
    15e8:	6841                	lui	a6,0x10
    15ea:	ee060613          	addi	a2,a2,-288 # 4ee0 <ide_inst+0x40>
    15ee:	62672a23          	sw	t1,1588(a4)
    15f2:	187d                	addi	a6,a6,-1 # ffff <_end+0x34c7>
    15f4:	963e                	add	a2,a2,a5
    15f6:	00462e03          	lw	t3,4(a2)
    15fa:	01069313          	slli	t1,a3,0x10
    15fe:	64c78613          	addi	a2,a5,1612
    1602:	08c2                	slli	a7,a7,0x10
    1604:	0105f5b3          	and	a1,a1,a6
    1608:	01057533          	and	a0,a0,a6
    160c:	9626                	add	a2,a2,s1
    160e:	0115e5b3          	or	a1,a1,a7
    1612:	00656533          	or	a0,a0,t1
    1616:	0106d893          	srli	a7,a3,0x10
    161a:	ca0c                	sw	a1,16(a2)
    161c:	ca48                	sw	a0,20(a2)
    161e:	11000593          	li	a1,272
    1622:	67171223          	sh	a7,1636(a4)
    1626:	66b71323          	sh	a1,1638(a4)
    162a:	007805b7          	lui	a1,0x780
    162e:	07858593          	addi	a1,a1,120 # 780078 <MEM_SIZE+0x760078>
    1632:	66b72a23          	sw	a1,1652(a4)
    1636:	07e00593          	li	a1,126
    163a:	68b71823          	sh	a1,1680(a4)
    163e:	07800313          	li	t1,120
    1642:	68478613          	addi	a2,a5,1668
    1646:	700045b7          	lui	a1,0x70004
    164a:	9626                	add	a2,a2,s1
    164c:	67c72423          	sw	t3,1640(a4)
    1650:	66671923          	sh	t1,1650(a4)
    1654:	66671c23          	sh	t1,1656(a4)
    1658:	20058593          	addi	a1,a1,512 # 70004200 <MEM_SIZE+0x6ffe4200>
    165c:	ca0c                	sw	a1,16(a2)
    165e:	420045b7          	lui	a1,0x42004
    1662:	ca4c                	sw	a1,20(a2)
    1664:	400075b7          	lui	a1,0x40007
    1668:	ce0c                	sw	a1,24(a2)
    166a:	6619                	lui	a2,0x6
    166c:	30b60613          	addi	a2,a2,779 # 630b <ide_inst+0x146b>
    1670:	06c2                	slli	a3,a3,0x10
    1672:	6ac71523          	sh	a2,1706(a4)
    1676:	82c1                	srli	a3,a3,0x10
    1678:	6615                	lui	a2,0x5
    167a:	0106f6b3          	and	a3,a3,a6
    167e:	eb060613          	addi	a2,a2,-336 # 4eb0 <ide_inst+0x10>
    1682:	08c2                	slli	a7,a7,0x10
    1684:	97b2                	add	a5,a5,a2
    1686:	0116e6b3          	or	a3,a3,a7
    168a:	6ad7a423          	sw	a3,1704(a5)
    168e:	03674603          	lbu	a2,54(a4)
    1692:	04472803          	lw	a6,68(a4)
    1696:	bb45                	j	1446 <_Z11ide_img_setmtiiii+0x158>

00001698 <_Z6ide_ioii>:
    1698:	1101                	addi	sp,sp,-32
    169a:	cc22                	sw	s0,24(sp)
    169c:	6405                	lui	s0,0x1
    169e:	fac40413          	addi	s0,s0,-84 # fac <_ZL10handle_hddP10ide_config+0x136>
    16a2:	02850433          	mul	s0,a0,s0
    16a6:	ca26                	sw	s1,20(sp)
    16a8:	6495                	lui	s1,0x5
    16aa:	c64e                	sw	s3,12(sp)
    16ac:	ea048493          	addi	s1,s1,-352 # 4ea0 <ide_inst>
    16b0:	ce06                	sw	ra,28(sp)
    16b2:	c84a                	sw	s2,16(sp)
    16b4:	c452                	sw	s4,8(sp)
    16b6:	008489b3          	add	s3,s1,s0
    16ba:	ed91                	bnez	a1,16d6 <_Z6ide_ioii+0x3e>
    16bc:	0089a703          	lw	a4,8(s3)
    16c0:	4785                	li	a5,1
    16c2:	0ef70e63          	beq	a4,a5,17be <_Z6ide_ioii+0x126>
    16c6:	40f2                	lw	ra,28(sp)
    16c8:	4462                	lw	s0,24(sp)
    16ca:	44d2                	lw	s1,20(sp)
    16cc:	4942                	lw	s2,16(sp)
    16ce:	49b2                	lw	s3,12(sp)
    16d0:	4a22                	lw	s4,8(sp)
    16d2:	6105                	addi	sp,sp,32
    16d4:	8082                	ret
    16d6:	4a11                	li	s4,4
    16d8:	892a                	mv	s2,a0
    16da:	11458963          	beq	a1,s4,17ec <_Z6ide_ioii+0x154>
    16de:	4795                	li	a5,5
    16e0:	16f58c63          	beq	a1,a5,1858 <_Z6ide_ioii+0x1c0>
    16e4:	4799                	li	a5,6
    16e6:	fef590e3          	bne	a1,a5,16c6 <_Z6ide_ioii+0x2e>
    16ea:	0089a703          	lw	a4,8(s3)
    16ee:	4785                	li	a5,1
    16f0:	00f70963          	beq	a4,a5,1702 <_Z6ide_ioii+0x6a>
    16f4:	0009a583          	lw	a1,0(s3)
    16f8:	6511                	lui	a0,0x4
    16fa:	66050513          	addi	a0,a0,1632 # 4660 <strlen+0x5e2>
    16fe:	57d010ef          	jal	ra,347a <riscprintf_>
    1702:	6785                	lui	a5,0x1
    1704:	fac78413          	addi	s0,a5,-84 # fac <_ZL10handle_hddP10ide_config+0x136>
    1708:	02890433          	mul	s0,s2,s0
    170c:	6715                	lui	a4,0x5
    170e:	ea470713          	addi	a4,a4,-348 # 4ea4 <ide_inst+0x4>
    1712:	d8c78793          	addi	a5,a5,-628
    1716:	854e                	mv	a0,s3
    1718:	008706b3          	add	a3,a4,s0
    171c:	97a2                	add	a5,a5,s0
    171e:	97ba                	add	a5,a5,a4
    1720:	5c069823          	sh	zero,1488(a3)
    1724:	00079023          	sh	zero,0(a5)
    1728:	9feff0ef          	jal	ra,926 <_Z12ide_get_regsP10ide_config>
    172c:	6795                	lui	a5,0x5
    172e:	00848733          	add	a4,s1,s0
    1732:	eaa78793          	addi	a5,a5,-342 # 4eaa <ide_inst+0xa>
    1736:	00070f23          	sb	zero,30(a4)
    173a:	020708a3          	sb	zero,49(a4)
    173e:	97a2                	add	a5,a5,s0
    1740:	10100693          	li	a3,257
    1744:	00d79823          	sh	a3,16(a5)
    1748:	01f74783          	lbu	a5,31(a4)
    174c:	7bc00713          	li	a4,1980
    1750:	02e78733          	mul	a4,a5,a4
    1754:	9722                	add	a4,a4,s0
    1756:	9726                	add	a4,a4,s1
    1758:	03674683          	lbu	a3,54(a4)
    175c:	12068463          	beqz	a3,1884 <_Z6ide_ioii+0x1ec>
    1760:	05674703          	lbu	a4,86(a4)
    1764:	4681                	li	a3,0
    1766:	12071263          	bnez	a4,188a <_Z6ide_ioii+0x1f2>
    176a:	7bc00713          	li	a4,1980
    176e:	02e787b3          	mul	a5,a5,a4
    1772:	6705                	lui	a4,0x1
    1774:	fac70713          	addi	a4,a4,-84 # fac <_ZL10handle_hddP10ide_config+0x136>
    1778:	02e90733          	mul	a4,s2,a4
    177c:	97ba                	add	a5,a5,a4
    177e:	97a6                	add	a5,a5,s1
    1780:	0547c783          	lbu	a5,84(a5)
    1784:	c781                	beqz	a5,178c <_Z6ide_ioii+0xf4>
    1786:	66bd                	lui	a3,0xf
    1788:	b1468693          	addi	a3,a3,-1260 # eb14 <_end+0x1fdc>
    178c:	6785                	lui	a5,0x1
    178e:	fac78793          	addi	a5,a5,-84 # fac <_ZL10handle_hddP10ide_config+0x136>
    1792:	02f907b3          	mul	a5,s2,a5
    1796:	854e                	mv	a0,s3
    1798:	94be                	add	s1,s1,a5
    179a:	f8000793          	li	a5,-128
    179e:	02f48923          	sb	a5,50(s1)
    17a2:	00d49e23          	sh	a3,28(s1)
    17a6:	a1cff0ef          	jal	ra,9c2 <_Z12ide_set_regsP10ide_config>
    17aa:	40f2                	lw	ra,28(sp)
    17ac:	4462                	lw	s0,24(sp)
    17ae:	4785                	li	a5,1
    17b0:	c49c                	sw	a5,8(s1)
    17b2:	4942                	lw	s2,16(sp)
    17b4:	44d2                	lw	s1,20(sp)
    17b6:	49b2                	lw	s3,12(sp)
    17b8:	4a22                	lw	s4,8(sp)
    17ba:	6105                	addi	sp,sp,32
    17bc:	8082                	ret
    17be:	854e                	mv	a0,s3
    17c0:	04000793          	li	a5,64
    17c4:	0009a423          	sw	zero,8(s3)
    17c8:	02f98923          	sb	a5,50(s3)
    17cc:	9f6ff0ef          	jal	ra,9c2 <_Z12ide_set_regsP10ide_config>
    17d0:	4462                	lw	s0,24(sp)
    17d2:	0009a583          	lw	a1,0(s3)
    17d6:	40f2                	lw	ra,28(sp)
    17d8:	44d2                	lw	s1,20(sp)
    17da:	4942                	lw	s2,16(sp)
    17dc:	49b2                	lw	s3,12(sp)
    17de:	4a22                	lw	s4,8(sp)
    17e0:	6511                	lui	a0,0x4
    17e2:	5f450513          	addi	a0,a0,1524 # 45f4 <strlen+0x576>
    17e6:	6105                	addi	sp,sp,32
    17e8:	4930106f          	j	347a <riscprintf_>
    17ec:	854e                	mv	a0,s3
    17ee:	0009a423          	sw	zero,8(s3)
    17f2:	934ff0ef          	jal	ra,926 <_Z12ide_get_regsP10ide_config>
    17f6:	01f9c603          	lbu	a2,31(s3)
    17fa:	0219c583          	lbu	a1,33(s3)
    17fe:	6511                	lui	a0,0x4
    1800:	60c50513          	addi	a0,a0,1548 # 460c <strlen+0x58e>
    1804:	477010ef          	jal	ra,347a <riscprintf_>
    1808:	0219c703          	lbu	a4,33(s3)
    180c:	0fa00793          	li	a5,250
    1810:	08f70163          	beq	a4,a5,1892 <_Z6ide_ioii+0x1fa>
    1814:	01f9c783          	lbu	a5,31(s3)
    1818:	7bc00713          	li	a4,1980
    181c:	02e787b3          	mul	a5,a5,a4
    1820:	97a2                	add	a5,a5,s0
    1822:	97a6                	add	a5,a5,s1
    1824:	0367c783          	lbu	a5,54(a5)
    1828:	e7ad                	bnez	a5,1892 <_Z6ide_ioii+0x1fa>
    182a:	6785                	lui	a5,0x1
    182c:	fac78793          	addi	a5,a5,-84 # fac <_ZL10handle_hddP10ide_config+0x136>
    1830:	02f907b3          	mul	a5,s2,a5
    1834:	04500713          	li	a4,69
    1838:	854e                	mv	a0,s3
    183a:	97a6                	add	a5,a5,s1
    183c:	02e78923          	sb	a4,50(a5)
    1840:	4711                	li	a4,4
    1842:	02e788a3          	sb	a4,49(a5)
    1846:	4462                	lw	s0,24(sp)
    1848:	40f2                	lw	ra,28(sp)
    184a:	44d2                	lw	s1,20(sp)
    184c:	4942                	lw	s2,16(sp)
    184e:	49b2                	lw	s3,12(sp)
    1850:	4a22                	lw	s4,8(sp)
    1852:	6105                	addi	sp,sp,32
    1854:	96eff06f          	j	9c2 <_Z12ide_set_regsP10ide_config>
    1858:	01f9c583          	lbu	a1,31(s3)
    185c:	6511                	lui	a0,0x4
    185e:	62850513          	addi	a0,a0,1576 # 4628 <strlen+0x5aa>
    1862:	419010ef          	jal	ra,347a <riscprintf_>
    1866:	6511                	lui	a0,0x4
    1868:	64450513          	addi	a0,a0,1604 # 4644 <strlen+0x5c6>
    186c:	40f010ef          	jal	ra,347a <riscprintf_>
    1870:	04500793          	li	a5,69
    1874:	854e                	mv	a0,s3
    1876:	0009a423          	sw	zero,8(s3)
    187a:	02f98923          	sb	a5,50(s3)
    187e:	034988a3          	sb	s4,49(s3)
    1882:	b7d1                	j	1846 <_Z6ide_ioii+0x1ae>
    1884:	66c1                	lui	a3,0x10
    1886:	16fd                	addi	a3,a3,-1 # ffff <_end+0x34c7>
    1888:	b5cd                	j	176a <_Z6ide_ioii+0xd2>
    188a:	66bd                	lui	a3,0xf
    188c:	b1468693          	addi	a3,a3,-1260 # eb14 <_end+0x1fdc>
    1890:	bde9                	j	176a <_Z6ide_ioii+0xd2>
    1892:	854e                	mv	a0,s3
    1894:	de2ff0ef          	jal	ra,e76 <_ZL10handle_hddP10ide_config>
    1898:	f949                	bnez	a0,182a <_Z6ide_ioii+0x192>
    189a:	b535                	j	16c6 <_Z6ide_ioii+0x2e>

0000189c <_Z8ide_openht>:
    189c:	1101                	addi	sp,sp,-32
    189e:	c452                	sw	s4,8(sp)
    18a0:	03400a13          	li	s4,52
    18a4:	cc22                	sw	s0,24(sp)
    18a6:	03450433          	mul	s0,a0,s4
    18aa:	c64e                	sw	s3,12(sp)
    18ac:	69ad                	lui	s3,0xb
    18ae:	df898993          	addi	s3,s3,-520 # adf8 <_ZL3HDF>
    18b2:	ce06                	sw	ra,28(sp)
    18b4:	ca26                	sw	s1,20(sp)
    18b6:	c84a                	sw	s2,16(sp)
    18b8:	84aa                	mv	s1,a0
    18ba:	4785                	li	a5,1
    18bc:	852e                	mv	a0,a1
    18be:	944e                	add	s0,s0,s3
    18c0:	892e                	mv	s2,a1
    18c2:	c004                	sw	s1,0(s0)
    18c4:	c05c                	sw	a5,4(s0)
    18c6:	00b41423          	sh	a1,8(s0)
    18ca:	2d41                	jal	1f5a <_Z13dataslot_sizet>
    18cc:	87aa                	mv	a5,a0
    18ce:	6511                	lui	a0,0x4
    18d0:	85a6                	mv	a1,s1
    18d2:	67850513          	addi	a0,a0,1656 # 4678 <strlen+0x5fa>
    18d6:	c45c                	sw	a5,12(s0)
    18d8:	3a3010ef          	jal	ra,347a <riscprintf_>
    18dc:	00149513          	slli	a0,s1,0x1
    18e0:	03450533          	mul	a0,a0,s4
    18e4:	954e                	add	a0,a0,s3
    18e6:	8adff0ef          	jal	ra,1192 <_Z14guess_geometryP7hdfTYPE>
    18ea:	444c                	lw	a1,12(s0)
    18ec:	6511                	lui	a0,0x4
    18ee:	68c50513          	addi	a0,a0,1676 # 468c <strlen+0x60e>
    18f2:	0145d613          	srli	a2,a1,0x14
    18f6:	385010ef          	jal	ra,347a <riscprintf_>
    18fa:	480c                	lw	a1,16(s0)
    18fc:	01645683          	lhu	a3,22(s0)
    1900:	01445603          	lhu	a2,20(s0)
    1904:	6511                	lui	a0,0x4
    1906:	6a050513          	addi	a0,a0,1696 # 46a0 <strlen+0x622>
    190a:	371010ef          	jal	ra,347a <riscprintf_>
    190e:	4818                	lw	a4,16(s0)
    1910:	01445683          	lhu	a3,20(s0)
    1914:	01645783          	lhu	a5,22(s0)
    1918:	6511                	lui	a0,0x4
    191a:	02e68633          	mul	a2,a3,a4
    191e:	6b050513          	addi	a0,a0,1712 # 46b0 <strlen+0x632>
    1922:	02e6b6b3          	mulhu	a3,a3,a4
    1926:	02f63733          	mulhu	a4,a2,a5
    192a:	02f686b3          	mul	a3,a3,a5
    192e:	02f60633          	mul	a2,a2,a5
    1932:	96ba                	add	a3,a3,a4
    1934:	01569793          	slli	a5,a3,0x15
    1938:	82ad                	srli	a3,a3,0xb
    193a:	822d                	srli	a2,a2,0xb
    193c:	8e5d                	or	a2,a2,a5
    193e:	33d010ef          	jal	ra,347a <riscprintf_>
    1942:	4c4c                	lw	a1,28(s0)
    1944:	6511                	lui	a0,0x4
    1946:	6bc50513          	addi	a0,a0,1724 # 46bc <strlen+0x63e>
    194a:	331010ef          	jal	ra,347a <riscprintf_>
    194e:	4c5c                	lw	a5,28(s0)
    1950:	01445703          	lhu	a4,20(s0)
    1954:	01645683          	lhu	a3,22(s0)
    1958:	8526                	mv	a0,s1
    195a:	85ca                	mv	a1,s2
    195c:	40f007b3          	neg	a5,a5
    1960:	4601                	li	a2,0
    1962:	98dff0ef          	jal	ra,12ee <_Z11ide_img_setmtiiii>
    1966:	40f2                	lw	ra,28(sp)
    1968:	4462                	lw	s0,24(sp)
    196a:	44d2                	lw	s1,20(sp)
    196c:	4942                	lw	s2,16(sp)
    196e:	49b2                	lw	s3,12(sp)
    1970:	4a22                	lw	s4,8(sp)
    1972:	4501                	li	a0,0
    1974:	6105                	addi	sp,sp,32
    1976:	8082                	ret

00001978 <_Z19update_mouse_inputsv>:
    1978:	f1402703          	lw	a4,-236(zero) # ffffff14 <MEM_SIZE+0xfffdff14>
    197c:	f2c02783          	lw	a5,-212(zero) # ffffff2c <MEM_SIZE+0xfffdff2c>
    1980:	1141                	addi	sp,sp,-16
    1982:	c606                	sw	ra,12(sp)
    1984:	c422                	sw	s0,8(sp)
    1986:	c226                	sw	s1,4(sp)
    1988:	c04a                	sw	s2,0(sp)
    198a:	4695                	li	a3,5
    198c:	83f1                	srli	a5,a5,0x1c
    198e:	02d78a63          	beq	a5,a3,19c2 <_Z19update_mouse_inputsv+0x4a>
    1992:	f2002783          	lw	a5,-224(zero) # ffffff20 <MEM_SIZE+0xfffdff20>
    1996:	468d                	li	a3,3
    1998:	83f1                	srli	a5,a5,0x1c
    199a:	0ed78563          	beq	a5,a3,1a84 <_Z19update_mouse_inputsv+0x10c>
    199e:	f2c02783          	lw	a5,-212(zero) # ffffff2c <MEM_SIZE+0xfffdff2c>
    19a2:	4615                	li	a2,5
    19a4:	83f1                	srli	a5,a5,0x1c
    19a6:	00c78863          	beq	a5,a2,19b6 <_Z19update_mouse_inputsv+0x3e>
    19aa:	f2002783          	lw	a5,-224(zero) # ffffff20 <MEM_SIZE+0xfffdff20>
    19ae:	83a1                	srli	a5,a5,0x8
    19b0:	8b8d                	andi	a5,a5,3
    19b2:	18d78d63          	beq	a5,a3,1b4c <_Z19update_mouse_inputsv+0x1d4>
    19b6:	40b2                	lw	ra,12(sp)
    19b8:	4422                	lw	s0,8(sp)
    19ba:	4492                	lw	s1,4(sp)
    19bc:	4902                	lw	s2,0(sp)
    19be:	0141                	addi	sp,sp,16
    19c0:	8082                	ret
    19c2:	f2c02783          	lw	a5,-212(zero) # ffffff2c <MEM_SIZE+0xfffdff2c>
    19c6:	6431                	lui	s0,0xc
    19c8:	6641                	lui	a2,0x10
    19ca:	72c42583          	lw	a1,1836(s0) # c72c <mouse_counter>
    19ce:	fff60693          	addi	a3,a2,-1 # ffff <_end+0x34c7>
    19d2:	8ff5                	and	a5,a5,a3
    19d4:	fab78fe3          	beq	a5,a1,1992 <_Z19update_mouse_inputsv+0x1a>
    19d8:	f3c02583          	lw	a1,-196(zero) # ffffff3c <MEM_SIZE+0xfffdff3c>
    19dc:	8f75                	and	a4,a4,a3
    19de:	f4c02783          	lw	a5,-180(zero) # ffffff4c <MEM_SIZE+0xfffdff4c>
    19e2:	05c2                	slli	a1,a1,0x10
    19e4:	85c1                	srai	a1,a1,0x10
    19e6:	02e5c5b3          	div	a1,a1,a4
    19ea:	07c2                	slli	a5,a5,0x10
    19ec:	87c1                	srai	a5,a5,0x10
    19ee:	f8100693          	li	a3,-127
    19f2:	02e7c7b3          	div	a5,a5,a4
    19f6:	1cd5c863          	blt	a1,a3,1bc6 <_Z19update_mouse_inputsv+0x24e>
    19fa:	01059693          	slli	a3,a1,0x10
    19fe:	86c1                	srai	a3,a3,0x10
    1a00:	07f00713          	li	a4,127
    1a04:	00d75463          	bge	a4,a3,1a0c <_Z19update_mouse_inputsv+0x94>
    1a08:	07f00593          	li	a1,127
    1a0c:	05c2                	slli	a1,a1,0x10
    1a0e:	81c1                	srli	a1,a1,0x10
    1a10:	6731                	lui	a4,0xc
    1a12:	72875603          	lhu	a2,1832(a4) # c728 <x_count>
    1a16:	f8100693          	li	a3,-127
    1a1a:	95b2                	add	a1,a1,a2
    1a1c:	05c2                	slli	a1,a1,0x10
    1a1e:	81c1                	srli	a1,a1,0x10
    1a20:	72b71423          	sh	a1,1832(a4)
    1a24:	1ad7c463          	blt	a5,a3,1bcc <_Z19update_mouse_inputsv+0x254>
    1a28:	01079693          	slli	a3,a5,0x10
    1a2c:	86c1                	srai	a3,a3,0x10
    1a2e:	07f00713          	li	a4,127
    1a32:	00d75463          	bge	a4,a3,1a3a <_Z19update_mouse_inputsv+0xc2>
    1a36:	07f00793          	li	a5,127
    1a3a:	07c2                	slli	a5,a5,0x10
    1a3c:	83c1                	srli	a5,a5,0x10
    1a3e:	64b1                	lui	s1,0xc
    1a40:	7264d703          	lhu	a4,1830(s1) # c726 <y_count>
    1a44:	0ff5f593          	zext.b	a1,a1
    1a48:	450d                	li	a0,3
    1a4a:	97ba                	add	a5,a5,a4
    1a4c:	72f49323          	sh	a5,1830(s1)
    1a50:	48e010ef          	jal	ra,2ede <_Z16HPS_spi_uio_cmd8hh>
    1a54:	7264c583          	lbu	a1,1830(s1)
    1a58:	4511                	li	a0,4
    1a5a:	484010ef          	jal	ra,2ede <_Z16HPS_spi_uio_cmd8hh>
    1a5e:	f3c02583          	lw	a1,-196(zero) # ffffff3c <MEM_SIZE+0xfffdff3c>
    1a62:	4509                	li	a0,2
    1a64:	81c1                	srli	a1,a1,0x10
    1a66:	899d                	andi	a1,a1,7
    1a68:	476010ef          	jal	ra,2ede <_Z16HPS_spi_uio_cmd8hh>
    1a6c:	f2c02783          	lw	a5,-212(zero) # ffffff2c <MEM_SIZE+0xfffdff2c>
    1a70:	40b2                	lw	ra,12(sp)
    1a72:	4492                	lw	s1,4(sp)
    1a74:	07c2                	slli	a5,a5,0x10
    1a76:	83c1                	srli	a5,a5,0x10
    1a78:	72f42623          	sw	a5,1836(s0)
    1a7c:	4422                	lw	s0,8(sp)
    1a7e:	4902                	lw	s2,0(sp)
    1a80:	0141                	addi	sp,sp,16
    1a82:	8082                	ret
    1a84:	f3002703          	lw	a4,-208(zero) # ffffff30 <MEM_SIZE+0xfffdff30>
    1a88:	f3002783          	lw	a5,-208(zero) # ffffff30 <MEM_SIZE+0xfffdff30>
    1a8c:	03000613          	li	a2,48
    1a90:	0ff77713          	zext.b	a4,a4
    1a94:	f9770693          	addi	a3,a4,-105
    1a98:	06c2                	slli	a3,a3,0x10
    1a9a:	83a1                	srli	a5,a5,0x8
    1a9c:	82c1                	srli	a3,a3,0x10
    1a9e:	0ff7f793          	zext.b	a5,a5
    1aa2:	08d66563          	bltu	a2,a3,1b2c <_Z19update_mouse_inputsv+0x1b4>
    1aa6:	f9778713          	addi	a4,a5,-105
    1aaa:	0742                	slli	a4,a4,0x10
    1aac:	07c2                	slli	a5,a5,0x10
    1aae:	8341                	srli	a4,a4,0x10
    1ab0:	83c1                	srli	a5,a5,0x10
    1ab2:	14e67063          	bgeu	a2,a4,1bf2 <_Z19update_mouse_inputsv+0x27a>
    1ab6:	4581                	li	a1,0
    1ab8:	4401                	li	s0,0
    1aba:	05000913          	li	s2,80
    1abe:	40f90933          	sub	s2,s2,a5
    1ac2:	864a                	mv	a2,s2
    1ac4:	6511                	lui	a0,0x4
    1ac6:	6cc50513          	addi	a0,a0,1740 # 46cc <strlen+0x64e>
    1aca:	576020ef          	jal	ra,4040 <printf>
    1ace:	64b1                	lui	s1,0xc
    1ad0:	10045963          	bgez	s0,1be2 <_Z19update_mouse_inputsv+0x26a>
    1ad4:	7284d583          	lhu	a1,1832(s1) # c728 <x_count>
    1ad8:	95a2                	add	a1,a1,s0
    1ada:	05c2                	slli	a1,a1,0x10
    1adc:	85c1                	srai	a1,a1,0x10
    1ade:	6431                	lui	s0,0xc
    1ae0:	72b49423          	sh	a1,1832(s1)
    1ae4:	72641603          	lh	a2,1830(s0) # c726 <y_count>
    1ae8:	0e095663          	bgez	s2,1bd4 <_Z19update_mouse_inputsv+0x25c>
    1aec:	964a                	add	a2,a2,s2
    1aee:	0642                	slli	a2,a2,0x10
    1af0:	8641                	srai	a2,a2,0x10
    1af2:	6511                	lui	a0,0x4
    1af4:	6f050513          	addi	a0,a0,1776 # 46f0 <strlen+0x672>
    1af8:	72c41323          	sh	a2,1830(s0)
    1afc:	544020ef          	jal	ra,4040 <printf>
    1b00:	7284c583          	lbu	a1,1832(s1)
    1b04:	450d                	li	a0,3
    1b06:	3d8010ef          	jal	ra,2ede <_Z16HPS_spi_uio_cmd8hh>
    1b0a:	72644583          	lbu	a1,1830(s0)
    1b0e:	4511                	li	a0,4
    1b10:	3ce010ef          	jal	ra,2ede <_Z16HPS_spi_uio_cmd8hh>
    1b14:	f3c02583          	lw	a1,-196(zero) # ffffff3c <MEM_SIZE+0xfffdff3c>
    1b18:	4422                	lw	s0,8(sp)
    1b1a:	40b2                	lw	ra,12(sp)
    1b1c:	4492                	lw	s1,4(sp)
    1b1e:	4902                	lw	s2,0(sp)
    1b20:	81a5                	srli	a1,a1,0x9
    1b22:	4509                	li	a0,2
    1b24:	899d                	andi	a1,a1,7
    1b26:	0141                	addi	sp,sp,16
    1b28:	3b60106f          	j	2ede <_Z16HPS_spi_uio_cmd8hh>
    1b2c:	f9778693          	addi	a3,a5,-105
    1b30:	05000413          	li	s0,80
    1b34:	8c19                	sub	s0,s0,a4
    1b36:	01069713          	slli	a4,a3,0x10
    1b3a:	07c2                	slli	a5,a5,0x10
    1b3c:	8341                	srli	a4,a4,0x10
    1b3e:	83c1                	srli	a5,a5,0x10
    1b40:	85a2                	mv	a1,s0
    1b42:	f6e66ce3          	bltu	a2,a4,1aba <_Z19update_mouse_inputsv+0x142>
    1b46:	4601                	li	a2,0
    1b48:	4901                	li	s2,0
    1b4a:	bfad                	j	1ac4 <_Z19update_mouse_inputsv+0x14c>
    1b4c:	f2002783          	lw	a5,-224(zero) # ffffff20 <MEM_SIZE+0xfffdff20>
    1b50:	0742                	slli	a4,a4,0x10
    1b52:	8341                	srli	a4,a4,0x10
    1b54:	0017f693          	andi	a3,a5,1
    1b58:	6431                	lui	s0,0xc
    1b5a:	c691                	beqz	a3,1b66 <_Z19update_mouse_inputsv+0x1ee>
    1b5c:	72645683          	lhu	a3,1830(s0) # c726 <y_count>
    1b60:	8e99                	sub	a3,a3,a4
    1b62:	72d41323          	sh	a3,1830(s0)
    1b66:	0027f693          	andi	a3,a5,2
    1b6a:	c691                	beqz	a3,1b76 <_Z19update_mouse_inputsv+0x1fe>
    1b6c:	72645683          	lhu	a3,1830(s0)
    1b70:	96ba                	add	a3,a3,a4
    1b72:	72d41323          	sh	a3,1830(s0)
    1b76:	64b1                	lui	s1,0xc
    1b78:	0047f693          	andi	a3,a5,4
    1b7c:	72849583          	lh	a1,1832(s1) # c728 <x_count>
    1b80:	c691                	beqz	a3,1b8c <_Z19update_mouse_inputsv+0x214>
    1b82:	8d99                	sub	a1,a1,a4
    1b84:	05c2                	slli	a1,a1,0x10
    1b86:	85c1                	srai	a1,a1,0x10
    1b88:	72b49423          	sh	a1,1832(s1)
    1b8c:	8ba1                	andi	a5,a5,8
    1b8e:	c791                	beqz	a5,1b9a <_Z19update_mouse_inputsv+0x222>
    1b90:	95ba                	add	a1,a1,a4
    1b92:	05c2                	slli	a1,a1,0x10
    1b94:	85c1                	srai	a1,a1,0x10
    1b96:	72b49423          	sh	a1,1832(s1)
    1b9a:	0ff5f593          	zext.b	a1,a1
    1b9e:	450d                	li	a0,3
    1ba0:	33e010ef          	jal	ra,2ede <_Z16HPS_spi_uio_cmd8hh>
    1ba4:	72644583          	lbu	a1,1830(s0)
    1ba8:	4511                	li	a0,4
    1baa:	334010ef          	jal	ra,2ede <_Z16HPS_spi_uio_cmd8hh>
    1bae:	f2002583          	lw	a1,-224(zero) # ffffff20 <MEM_SIZE+0xfffdff20>
    1bb2:	4422                	lw	s0,8(sp)
    1bb4:	40b2                	lw	ra,12(sp)
    1bb6:	4492                	lw	s1,4(sp)
    1bb8:	4902                	lw	s2,0(sp)
    1bba:	8191                	srli	a1,a1,0x4
    1bbc:	4509                	li	a0,2
    1bbe:	899d                	andi	a1,a1,7
    1bc0:	0141                	addi	sp,sp,16
    1bc2:	31c0106f          	j	2ede <_Z16HPS_spi_uio_cmd8hh>
    1bc6:	f8160593          	addi	a1,a2,-127
    1bca:	b599                	j	1a10 <_Z19update_mouse_inputsv+0x98>
    1bcc:	67c1                	lui	a5,0x10
    1bce:	f8178793          	addi	a5,a5,-127 # ff81 <_end+0x3449>
    1bd2:	b5b5                	j	1a3e <_Z19update_mouse_inputsv+0xc6>
    1bd4:	f0090fe3          	beqz	s2,1af2 <_Z19update_mouse_inputsv+0x17a>
    1bd8:	41260633          	sub	a2,a2,s2
    1bdc:	0642                	slli	a2,a2,0x10
    1bde:	8641                	srai	a2,a2,0x10
    1be0:	bf09                	j	1af2 <_Z19update_mouse_inputsv+0x17a>
    1be2:	72849583          	lh	a1,1832(s1)
    1be6:	ee040ce3          	beqz	s0,1ade <_Z19update_mouse_inputsv+0x166>
    1bea:	8d81                	sub	a1,a1,s0
    1bec:	05c2                	slli	a1,a1,0x10
    1bee:	85c1                	srai	a1,a1,0x10
    1bf0:	b5fd                	j	1ade <_Z19update_mouse_inputsv+0x166>
    1bf2:	6511                	lui	a0,0x4
    1bf4:	4601                	li	a2,0
    1bf6:	4581                	li	a1,0
    1bf8:	6cc50513          	addi	a0,a0,1740 # 46cc <strlen+0x64e>
    1bfc:	444020ef          	jal	ra,4040 <printf>
    1c00:	64b1                	lui	s1,0xc
    1c02:	6431                	lui	s0,0xc
    1c04:	72849583          	lh	a1,1832(s1) # c728 <x_count>
    1c08:	72641603          	lh	a2,1830(s0) # c726 <y_count>
    1c0c:	b5dd                	j	1af2 <_Z19update_mouse_inputsv+0x17a>

00001c0e <_Z22update_keyboard_inputsv>:
    1c0e:	7139                	addi	sp,sp,-64
    1c10:	dc22                	sw	s0,56(sp)
    1c12:	d64e                	sw	s3,44(sp)
    1c14:	d05a                	sw	s6,32(sp)
    1c16:	6431                	lui	s0,0xc
    1c18:	6b31                	lui	s6,0xc
    1c1a:	6991                	lui	s3,0x4
    1c1c:	d84a                	sw	s2,48(sp)
    1c1e:	d452                	sw	s4,40(sp)
    1c20:	d256                	sw	s5,36(sp)
    1c22:	ce5e                	sw	s7,28(sp)
    1c24:	de06                	sw	ra,60(sp)
    1c26:	da26                	sw	s1,52(sp)
    1c28:	c002                	sw	zero,0(sp)
    1c2a:	00011223          	sh	zero,4(sp)
    1c2e:	c402                	sw	zero,8(sp)
    1c30:	00810913          	addi	s2,sp,8
    1c34:	00e10b93          	addi	s7,sp,14
    1c38:	8a0a                	mv	s4,sp
    1c3a:	720b0a93          	addi	s5,s6,1824 # c720 <keyboard_buffer>
    1c3e:	72640413          	addi	s0,s0,1830 # c726 <y_count>
    1c42:	71898993          	addi	s3,s3,1816 # 4718 <_ZL13mapHidToAmiga>
    1c46:	00011623          	sh	zero,12(sp)
    1c4a:	f3802783          	lw	a5,-200(zero) # ffffff38 <MEM_SIZE+0xfffdff38>
    1c4e:	720b4703          	lbu	a4,1824(s6)
    1c52:	84d6                	mv	s1,s5
    1c54:	83e1                	srli	a5,a5,0x18
    1c56:	00f10423          	sb	a5,8(sp)
    1c5a:	f3802783          	lw	a5,-200(zero) # ffffff38 <MEM_SIZE+0xfffdff38>
    1c5e:	83c1                	srli	a5,a5,0x10
    1c60:	00f104a3          	sb	a5,9(sp)
    1c64:	f3802783          	lw	a5,-200(zero) # ffffff38 <MEM_SIZE+0xfffdff38>
    1c68:	83a1                	srli	a5,a5,0x8
    1c6a:	00f10523          	sb	a5,10(sp)
    1c6e:	f3802783          	lw	a5,-200(zero) # ffffff38 <MEM_SIZE+0xfffdff38>
    1c72:	00f105a3          	sb	a5,11(sp)
    1c76:	f4802783          	lw	a5,-184(zero) # ffffff48 <MEM_SIZE+0xfffdff48>
    1c7a:	83a1                	srli	a5,a5,0x8
    1c7c:	00f10623          	sb	a5,12(sp)
    1c80:	f4802783          	lw	a5,-184(zero) # ffffff48 <MEM_SIZE+0xfffdff48>
    1c84:	00f106a3          	sb	a5,13(sp)
    1c88:	00094683          	lbu	a3,0(s2)
    1c8c:	00e68c63          	beq	a3,a4,1ca4 <_Z22update_keyboard_inputsv+0x96>
    1c90:	22068e63          	beqz	a3,1ecc <_Z22update_keyboard_inputsv+0x2be>
    1c94:	87d6                	mv	a5,s5
    1c96:	0785                	addi	a5,a5,1
    1c98:	0e878f63          	beq	a5,s0,1d96 <_Z22update_keyboard_inputsv+0x188>
    1c9c:	0007c703          	lbu	a4,0(a5)
    1ca0:	fee69be3          	bne	a3,a4,1c96 <_Z22update_keyboard_inputsv+0x88>
    1ca4:	00ea0023          	sb	a4,0(s4)
    1ca8:	0905                	addi	s2,s2,1
    1caa:	0a05                	addi	s4,s4,1
    1cac:	f9791fe3          	bne	s2,s7,1c4a <_Z22update_keyboard_inputsv+0x3c>
    1cb0:	6991                	lui	s3,0x4
    1cb2:	00610913          	addi	s2,sp,6
    1cb6:	71898993          	addi	s3,s3,1816 # 4718 <_ZL13mapHidToAmiga>
    1cba:	0004c683          	lbu	a3,0(s1)
    1cbe:	00014783          	lbu	a5,0(sp)
    1cc2:	00d78b63          	beq	a5,a3,1cd8 <_Z22update_keyboard_inputsv+0xca>
    1cc6:	ca89                	beqz	a3,1cd8 <_Z22update_keyboard_inputsv+0xca>
    1cc8:	878a                	mv	a5,sp
    1cca:	0785                	addi	a5,a5,1
    1ccc:	0d278f63          	beq	a5,s2,1daa <_Z22update_keyboard_inputsv+0x19c>
    1cd0:	0007c703          	lbu	a4,0(a5)
    1cd4:	fed71be3          	bne	a4,a3,1cca <_Z22update_keyboard_inputsv+0xbc>
    1cd8:	0485                	addi	s1,s1,1
    1cda:	fe8490e3          	bne	s1,s0,1cba <_Z22update_keyboard_inputsv+0xac>
    1cde:	4782                	lw	a5,0(sp)
    1ce0:	00415603          	lhu	a2,4(sp)
    1ce4:	6705                	lui	a4,0x1
    1ce6:	00faa023          	sw	a5,0(s5)
    1cea:	f2802783          	lw	a5,-216(zero) # ffffff28 <MEM_SIZE+0xfffdff28>
    1cee:	f2802a03          	lw	s4,-216(zero) # ffffff28 <MEM_SIZE+0xfffdff28>
    1cf2:	f2802983          	lw	s3,-216(zero) # ffffff28 <MEM_SIZE+0xfffdff28>
    1cf6:	f2802903          	lw	s2,-216(zero) # ffffff28 <MEM_SIZE+0xfffdff28>
    1cfa:	f2802503          	lw	a0,-216(zero) # ffffff28 <MEM_SIZE+0xfffdff28>
    1cfe:	f2802403          	lw	s0,-216(zero) # ffffff28 <MEM_SIZE+0xfffdff28>
    1d02:	f2802483          	lw	s1,-216(zero) # ffffff28 <MEM_SIZE+0xfffdff28>
    1d06:	6811                	lui	a6,0x4
    1d08:	00ca9223          	sh	a2,4(s5)
    1d0c:	80070593          	addi	a1,a4,-2048 # 800 <_ZL7put_lbaP10ide_configm+0x4c>
    1d10:	66b1                	lui	a3,0xc
    1d12:	010a7a33          	and	s4,s4,a6
    1d16:	4007f793          	andi	a5,a5,1024
    1d1a:	6809                	lui	a6,0x2
    1d1c:	71d6c603          	lbu	a2,1821(a3) # c71d <MOD_LALT>
    1d20:	2009f993          	andi	s3,s3,512
    1d24:	01097933          	and	s2,s2,a6
    1d28:	00b57ab3          	and	s5,a0,a1
    1d2c:	10047413          	andi	s0,s0,256
    1d30:	8cf9                	and	s1,s1,a4
    1d32:	0e078c63          	beqz	a5,1e2a <_Z22update_keyboard_inputsv+0x21c>
    1d36:	10060863          	beqz	a2,1e46 <_Z22update_keyboard_inputsv+0x238>
    1d3a:	67b1                	lui	a5,0xc
    1d3c:	71c7c703          	lbu	a4,1820(a5) # c71c <MOD_RALT>
    1d40:	0c0a0c63          	beqz	s4,1e18 <_Z22update_keyboard_inputsv+0x20a>
    1d44:	10070a63          	beqz	a4,1e58 <_Z22update_keyboard_inputsv+0x24a>
    1d48:	67b1                	lui	a5,0xc
    1d4a:	71b7c703          	lbu	a4,1819(a5) # c71b <MOD_LSHIFT>
    1d4e:	0a098c63          	beqz	s3,1e06 <_Z22update_keyboard_inputsv+0x1f8>
    1d52:	10070c63          	beqz	a4,1e6a <_Z22update_keyboard_inputsv+0x25c>
    1d56:	67b1                	lui	a5,0xc
    1d58:	71a7c703          	lbu	a4,1818(a5) # c71a <MOD_RSHIFT>
    1d5c:	08090c63          	beqz	s2,1df4 <_Z22update_keyboard_inputsv+0x1e6>
    1d60:	10070e63          	beqz	a4,1e7c <_Z22update_keyboard_inputsv+0x26e>
    1d64:	67b1                	lui	a5,0xc
    1d66:	7197c703          	lbu	a4,1817(a5) # c719 <MOD_LWIN>
    1d6a:	8c45                	or	s0,s0,s1
    1d6c:	040a8b63          	beqz	s5,1dc2 <_Z22update_keyboard_inputsv+0x1b4>
    1d70:	10070f63          	beqz	a4,1e8e <_Z22update_keyboard_inputsv+0x280>
    1d74:	c411                	beqz	s0,1d80 <_Z22update_keyboard_inputsv+0x172>
    1d76:	67b1                	lui	a5,0xc
    1d78:	7187c703          	lbu	a4,1816(a5) # c718 <MOD_CTRL>
    1d7c:	14070163          	beqz	a4,1ebe <_Z22update_keyboard_inputsv+0x2b0>
    1d80:	50f2                	lw	ra,60(sp)
    1d82:	5462                	lw	s0,56(sp)
    1d84:	54d2                	lw	s1,52(sp)
    1d86:	5942                	lw	s2,48(sp)
    1d88:	59b2                	lw	s3,44(sp)
    1d8a:	5a22                	lw	s4,40(sp)
    1d8c:	5a92                	lw	s5,36(sp)
    1d8e:	5b02                	lw	s6,32(sp)
    1d90:	4bf2                	lw	s7,28(sp)
    1d92:	6121                	addi	sp,sp,64
    1d94:	8082                	ret
    1d96:	00d987b3          	add	a5,s3,a3
    1d9a:	0007c583          	lbu	a1,0(a5)
    1d9e:	00da0023          	sb	a3,0(s4)
    1da2:	4515                	li	a0,5
    1da4:	13a010ef          	jal	ra,2ede <_Z16HPS_spi_uio_cmd8hh>
    1da8:	b701                	j	1ca8 <_Z22update_keyboard_inputsv+0x9a>
    1daa:	96ce                	add	a3,a3,s3
    1dac:	0006c583          	lbu	a1,0(a3)
    1db0:	4515                	li	a0,5
    1db2:	0485                	addi	s1,s1,1
    1db4:	0805e593          	ori	a1,a1,128
    1db8:	126010ef          	jal	ra,2ede <_Z16HPS_spi_uio_cmd8hh>
    1dbc:	ee849fe3          	bne	s1,s0,1cba <_Z22update_keyboard_inputsv+0xac>
    1dc0:	bf39                	j	1cde <_Z22update_keyboard_inputsv+0xd0>
    1dc2:	0e071163          	bnez	a4,1ea4 <_Z22update_keyboard_inputsv+0x296>
    1dc6:	67b1                	lui	a5,0xc
    1dc8:	7187c703          	lbu	a4,1816(a5) # c718 <MOD_CTRL>
    1dcc:	c82d                	beqz	s0,1e3e <_Z22update_keyboard_inputsv+0x230>
    1dce:	0e070863          	beqz	a4,1ebe <_Z22update_keyboard_inputsv+0x2b0>
    1dd2:	0e300593          	li	a1,227
    1dd6:	4515                	li	a0,5
    1dd8:	70078c23          	sb	zero,1816(a5)
    1ddc:	5462                	lw	s0,56(sp)
    1dde:	50f2                	lw	ra,60(sp)
    1de0:	54d2                	lw	s1,52(sp)
    1de2:	5942                	lw	s2,48(sp)
    1de4:	59b2                	lw	s3,44(sp)
    1de6:	5a22                	lw	s4,40(sp)
    1de8:	5a92                	lw	s5,36(sp)
    1dea:	5b02                	lw	s6,32(sp)
    1dec:	4bf2                	lw	s7,28(sp)
    1dee:	6121                	addi	sp,sp,64
    1df0:	0ee0106f          	j	2ede <_Z16HPS_spi_uio_cmd8hh>
    1df4:	db25                	beqz	a4,1d64 <_Z22update_keyboard_inputsv+0x156>
    1df6:	0e100593          	li	a1,225
    1dfa:	4515                	li	a0,5
    1dfc:	70078d23          	sb	zero,1818(a5)
    1e00:	0de010ef          	jal	ra,2ede <_Z16HPS_spi_uio_cmd8hh>
    1e04:	b785                	j	1d64 <_Z22update_keyboard_inputsv+0x156>
    1e06:	db21                	beqz	a4,1d56 <_Z22update_keyboard_inputsv+0x148>
    1e08:	0e000593          	li	a1,224
    1e0c:	4515                	li	a0,5
    1e0e:	70078da3          	sb	zero,1819(a5)
    1e12:	0cc010ef          	jal	ra,2ede <_Z16HPS_spi_uio_cmd8hh>
    1e16:	b781                	j	1d56 <_Z22update_keyboard_inputsv+0x148>
    1e18:	db05                	beqz	a4,1d48 <_Z22update_keyboard_inputsv+0x13a>
    1e1a:	0e100593          	li	a1,225
    1e1e:	4515                	li	a0,5
    1e20:	70078e23          	sb	zero,1820(a5)
    1e24:	0ba010ef          	jal	ra,2ede <_Z16HPS_spi_uio_cmd8hh>
    1e28:	b705                	j	1d48 <_Z22update_keyboard_inputsv+0x13a>
    1e2a:	f00608e3          	beqz	a2,1d3a <_Z22update_keyboard_inputsv+0x12c>
    1e2e:	0e400593          	li	a1,228
    1e32:	4515                	li	a0,5
    1e34:	70068ea3          	sb	zero,1821(a3)
    1e38:	0a6010ef          	jal	ra,2ede <_Z16HPS_spi_uio_cmd8hh>
    1e3c:	bdfd                	j	1d3a <_Z22update_keyboard_inputsv+0x12c>
    1e3e:	7187c703          	lbu	a4,1816(a5)
    1e42:	df1d                	beqz	a4,1d80 <_Z22update_keyboard_inputsv+0x172>
    1e44:	b779                	j	1dd2 <_Z22update_keyboard_inputsv+0x1c4>
    1e46:	4785                	li	a5,1
    1e48:	06400593          	li	a1,100
    1e4c:	4515                	li	a0,5
    1e4e:	70f68ea3          	sb	a5,1821(a3)
    1e52:	08c010ef          	jal	ra,2ede <_Z16HPS_spi_uio_cmd8hh>
    1e56:	b5d5                	j	1d3a <_Z22update_keyboard_inputsv+0x12c>
    1e58:	4705                	li	a4,1
    1e5a:	06100593          	li	a1,97
    1e5e:	4515                	li	a0,5
    1e60:	70e78e23          	sb	a4,1820(a5)
    1e64:	07a010ef          	jal	ra,2ede <_Z16HPS_spi_uio_cmd8hh>
    1e68:	b5c5                	j	1d48 <_Z22update_keyboard_inputsv+0x13a>
    1e6a:	4705                	li	a4,1
    1e6c:	06000593          	li	a1,96
    1e70:	4515                	li	a0,5
    1e72:	70e78da3          	sb	a4,1819(a5)
    1e76:	068010ef          	jal	ra,2ede <_Z16HPS_spi_uio_cmd8hh>
    1e7a:	bdf1                	j	1d56 <_Z22update_keyboard_inputsv+0x148>
    1e7c:	4705                	li	a4,1
    1e7e:	06100593          	li	a1,97
    1e82:	4515                	li	a0,5
    1e84:	70e78d23          	sb	a4,1818(a5)
    1e88:	056010ef          	jal	ra,2ede <_Z16HPS_spi_uio_cmd8hh>
    1e8c:	bde1                	j	1d64 <_Z22update_keyboard_inputsv+0x156>
    1e8e:	4705                	li	a4,1
    1e90:	06600593          	li	a1,102
    1e94:	4515                	li	a0,5
    1e96:	70e78ca3          	sb	a4,1817(a5)
    1e9a:	044010ef          	jal	ra,2ede <_Z16HPS_spi_uio_cmd8hh>
    1e9e:	ec041ce3          	bnez	s0,1d76 <_Z22update_keyboard_inputsv+0x168>
    1ea2:	bdf9                	j	1d80 <_Z22update_keyboard_inputsv+0x172>
    1ea4:	0e600593          	li	a1,230
    1ea8:	4515                	li	a0,5
    1eaa:	70078ca3          	sb	zero,1817(a5)
    1eae:	030010ef          	jal	ra,2ede <_Z16HPS_spi_uio_cmd8hh>
    1eb2:	67b1                	lui	a5,0xc
    1eb4:	d449                	beqz	s0,1e3e <_Z22update_keyboard_inputsv+0x230>
    1eb6:	7187c703          	lbu	a4,1816(a5) # c718 <MOD_CTRL>
    1eba:	f0071ce3          	bnez	a4,1dd2 <_Z22update_keyboard_inputsv+0x1c4>
    1ebe:	4705                	li	a4,1
    1ec0:	06300593          	li	a1,99
    1ec4:	4515                	li	a0,5
    1ec6:	70e78c23          	sb	a4,1816(a5)
    1eca:	bf09                	j	1ddc <_Z22update_keyboard_inputsv+0x1ce>
    1ecc:	4701                	li	a4,0
    1ece:	bbd9                	j	1ca4 <_Z22update_keyboard_inputsv+0x96>

00001ed0 <_Z12input_updatev>:
    1ed0:	1141                	addi	sp,sp,-16
    1ed2:	c606                	sw	ra,12(sp)
    1ed4:	154010ef          	jal	ra,3028 <_Z22timer1Interrupts_resetv>
    1ed8:	f2802783          	lw	a5,-216(zero) # ffffff28 <MEM_SIZE+0xfffdff28>
    1edc:	4711                	li	a4,4
    1ede:	83f1                	srli	a5,a5,0x1c
    1ee0:	02e78563          	beq	a5,a4,1f0a <_Z12input_updatev+0x3a>
    1ee4:	f1402783          	lw	a5,-236(zero) # ffffff14 <MEM_SIZE+0xfffdff14>
    1ee8:	f1402703          	lw	a4,-236(zero) # ffffff14 <MEM_SIZE+0xfffdff14>
    1eec:	83e1                	srli	a5,a5,0x18
    1eee:	f8078793          	addi	a5,a5,-128
    1ef2:	cb81                	beqz	a5,1f02 <_Z12input_updatev+0x32>
    1ef4:	8361                	srli	a4,a4,0x18
    1ef6:	f6070713          	addi	a4,a4,-160
    1efa:	c701                	beqz	a4,1f02 <_Z12input_updatev+0x32>
    1efc:	40b2                	lw	ra,12(sp)
    1efe:	0141                	addi	sp,sp,16
    1f00:	8082                	ret
    1f02:	40b2                	lw	ra,12(sp)
    1f04:	0141                	addi	sp,sp,16
    1f06:	a73ff06f          	j	1978 <_Z19update_mouse_inputsv>
    1f0a:	d05ff0ef          	jal	ra,1c0e <_Z22update_keyboard_inputsv>
    1f0e:	bfd9                	j	1ee4 <_Z12input_updatev+0x14>

00001f10 <_Z11input_setupv>:
    1f10:	4509                	li	a0,2
    1f12:	1100106f          	j	3022 <_Z22timer1Interrupts_setupm>

00001f16 <_Z16input_reg_updatev>:
    1f16:	f1402583          	lw	a1,-236(zero) # ffffff14 <MEM_SIZE+0xfffdff14>
    1f1a:	0f800513          	li	a0,248
    1f1e:	81e1                	srli	a1,a1,0x18
    1f20:	7bf0006f          	j	2ede <_Z16HPS_spi_uio_cmd8hh>

00001f24 <_Z14dataslot_readyv>:
    1f24:	1141                	addi	sp,sp,-16
    1f26:	c422                	sw	s0,8(sp)
    1f28:	f9002403          	lw	s0,-112(zero) # ffffff90 <MEM_SIZE+0xfffdff90>
    1f2c:	c606                	sw	ra,12(sp)
    1f2e:	00747593          	andi	a1,s0,7
    1f32:	e981                	bnez	a1,1f42 <_Z14dataslot_readyv+0x1e>
    1f34:	40b2                	lw	ra,12(sp)
    1f36:	00345513          	srli	a0,s0,0x3
    1f3a:	4422                	lw	s0,8(sp)
    1f3c:	8905                	andi	a0,a0,1
    1f3e:	0141                	addi	sp,sp,16
    1f40:	8082                	ret
    1f42:	6515                	lui	a0,0x5
    1f44:	81850513          	addi	a0,a0,-2024 # 4818 <_ZL13mapHidToAmiga+0x100>
    1f48:	532010ef          	jal	ra,347a <riscprintf_>
    1f4c:	40b2                	lw	ra,12(sp)
    1f4e:	00345513          	srli	a0,s0,0x3
    1f52:	4422                	lw	s0,8(sp)
    1f54:	8905                	andi	a0,a0,1
    1f56:	0141                	addi	sp,sp,16
    1f58:	8082                	ret

00001f5a <_Z13dataslot_sizet>:
    1f5a:	1141                	addi	sp,sp,-16
    1f5c:	85aa                	mv	a1,a0
    1f5e:	c422                	sw	s0,8(sp)
    1f60:	842a                	mv	s0,a0
    1f62:	6515                	lui	a0,0x5
    1f64:	83c50513          	addi	a0,a0,-1988 # 483c <_ZL13mapHidToAmiga+0x124>
    1f68:	c606                	sw	ra,12(sp)
    1f6a:	510010ef          	jal	ra,347a <riscprintf_>
    1f6e:	77c1                	lui	a5,0xffff0
    1f70:	4581                	li	a1,0
    1f72:	10200693          	li	a3,258
    1f76:	a021                	j	1f7e <_Z13dataslot_sizet+0x24>
    1f78:	0589                	addi	a1,a1,2 # 40007002 <MEM_SIZE+0x3ffe7002>
    1f7a:	02d58c63          	beq	a1,a3,1fb2 <_Z13dataslot_sizet+0x58>
    1f7e:	4398                	lw	a4,0(a5)
    1f80:	07a1                	addi	a5,a5,8 # ffff0008 <MEM_SIZE+0xfffd0008>
    1f82:	fe871be3          	bne	a4,s0,1f78 <_Z13dataslot_sizet+0x1e>
    1f86:	00158413          	addi	s0,a1,1
    1f8a:	040a                	slli	s0,s0,0x2
    1f8c:	77c1                	lui	a5,0xffff0
    1f8e:	943e                	add	s0,s0,a5
    1f90:	6515                	lui	a0,0x5
    1f92:	85050513          	addi	a0,a0,-1968 # 4850 <_ZL13mapHidToAmiga+0x138>
    1f96:	4e4010ef          	jal	ra,347a <riscprintf_>
    1f9a:	4000                	lw	s0,0(s0)
    1f9c:	6515                	lui	a0,0x5
    1f9e:	86450513          	addi	a0,a0,-1948 # 4864 <_ZL13mapHidToAmiga+0x14c>
    1fa2:	85a2                	mv	a1,s0
    1fa4:	4d6010ef          	jal	ra,347a <riscprintf_>
    1fa8:	40b2                	lw	ra,12(sp)
    1faa:	8522                	mv	a0,s0
    1fac:	4422                	lw	s0,8(sp)
    1fae:	0141                	addi	sp,sp,16
    1fb0:	8082                	ret
    1fb2:	7441                	lui	s0,0xffff0
    1fb4:	0411                	addi	s0,s0,4 # ffff0004 <MEM_SIZE+0xfffd0004>
    1fb6:	4581                	li	a1,0
    1fb8:	bfe1                	j	1f90 <_Z13dataslot_sizet+0x36>

00001fba <_Z13dataslot_readtmmm>:
    1fba:	1101                	addi	sp,sp,-32
    1fbc:	ca26                	sw	s1,20(sp)
    1fbe:	c84a                	sw	s2,16(sp)
    1fc0:	c64e                	sw	s3,12(sp)
    1fc2:	c452                	sw	s4,8(sp)
    1fc4:	ce06                	sw	ra,28(sp)
    1fc6:	cc22                	sw	s0,24(sp)
    1fc8:	f8a02023          	sw	a0,-128(zero) # ffffff80 <MEM_SIZE+0xfffdff80>
    1fcc:	f8b02223          	sw	a1,-124(zero) # ffffff84 <MEM_SIZE+0xfffdff84>
    1fd0:	f8d02423          	sw	a3,-120(zero) # ffffff88 <MEM_SIZE+0xfffdff88>
    1fd4:	f8c02623          	sw	a2,-116(zero) # ffffff8c <MEM_SIZE+0xfffdff8c>
    1fd8:	4785                	li	a5,1
    1fda:	f8f02823          	sw	a5,-112(zero) # ffffff90 <MEM_SIZE+0xfffdff90>
    1fde:	8a36                	mv	s4,a3
    1fe0:	f8402683          	lw	a3,-124(zero) # ffffff84 <MEM_SIZE+0xfffdff84>
    1fe4:	8732                	mv	a4,a2
    1fe6:	84aa                	mv	s1,a0
    1fe8:	892e                	mv	s2,a1
    1fea:	89b2                	mv	s3,a2
    1fec:	862e                	mv	a2,a1
    1fee:	85aa                	mv	a1,a0
    1ff0:	6515                	lui	a0,0x5
    1ff2:	87d2                	mv	a5,s4
    1ff4:	87850513          	addi	a0,a0,-1928 # 4878 <_ZL13mapHidToAmiga+0x160>
    1ff8:	482010ef          	jal	ra,347a <riscprintf_>
    1ffc:	4881                	li	a7,0
    1ffe:	f9002403          	lw	s0,-112(zero) # ffffff90 <MEM_SIZE+0xfffdff90>
    2002:	0885                	addi	a7,a7,1
    2004:	3e98a313          	slti	t1,a7,1001
    2008:	00445813          	srli	a6,s0,0x4
    200c:	881d                	andi	s0,s0,7
    200e:	00187813          	andi	a6,a6,1
    2012:	e005                	bnez	s0,2032 <_Z13dataslot_readtmmm+0x78>
    2014:	fe0805e3          	beqz	a6,1ffe <_Z13dataslot_readtmmm+0x44>
    2018:	04030163          	beqz	t1,205a <_Z13dataslot_readtmmm+0xa0>
    201c:	f9002403          	lw	s0,-112(zero) # ffffff90 <MEM_SIZE+0xfffdff90>
    2020:	0885                	addi	a7,a7,1
    2022:	3e98a313          	slti	t1,a7,1001
    2026:	00445813          	srli	a6,s0,0x4
    202a:	881d                	andi	s0,s0,7
    202c:	00187813          	andi	a6,a6,1
    2030:	d075                	beqz	s0,2014 <_Z13dataslot_readtmmm+0x5a>
    2032:	6515                	lui	a0,0x5
    2034:	8752                	mv	a4,s4
    2036:	86ce                	mv	a3,s3
    2038:	864a                	mv	a2,s2
    203a:	85a6                	mv	a1,s1
    203c:	8a050513          	addi	a0,a0,-1888 # 48a0 <_ZL13mapHidToAmiga+0x188>
    2040:	43a010ef          	jal	ra,347a <riscprintf_>
    2044:	40f2                	lw	ra,28(sp)
    2046:	8522                	mv	a0,s0
    2048:	4462                	lw	s0,24(sp)
    204a:	44d2                	lw	s1,20(sp)
    204c:	4942                	lw	s2,16(sp)
    204e:	49b2                	lw	s3,12(sp)
    2050:	4a22                	lw	s4,8(sp)
    2052:	6105                	addi	sp,sp,32
    2054:	8082                	ret
    2056:	02081463          	bnez	a6,207e <_Z13dataslot_readtmmm+0xc4>
    205a:	f9002803          	lw	a6,-112(zero) # ffffff90 <MEM_SIZE+0xfffdff90>
    205e:	00787413          	andi	s0,a6,7
    2062:	00887813          	andi	a6,a6,8
    2066:	d865                	beqz	s0,2056 <_Z13dataslot_readtmmm+0x9c>
    2068:	6515                	lui	a0,0x5
    206a:	87a2                	mv	a5,s0
    206c:	8752                	mv	a4,s4
    206e:	86ce                	mv	a3,s3
    2070:	864a                	mv	a2,s2
    2072:	85a6                	mv	a1,s1
    2074:	90450513          	addi	a0,a0,-1788 # 4904 <_ZL13mapHidToAmiga+0x1ec>
    2078:	402010ef          	jal	ra,347a <riscprintf_>
    207c:	b7e1                	j	2044 <_Z13dataslot_readtmmm+0x8a>
    207e:	6515                	lui	a0,0x5
    2080:	97450513          	addi	a0,a0,-1676 # 4974 <_ZL13mapHidToAmiga+0x25c>
    2084:	3f6010ef          	jal	ra,347a <riscprintf_>
    2088:	bf75                	j	2044 <_Z13dataslot_readtmmm+0x8a>

0000208a <_Z14dataslot_writetmmm>:
    208a:	1101                	addi	sp,sp,-32
    208c:	ca26                	sw	s1,20(sp)
    208e:	c84a                	sw	s2,16(sp)
    2090:	c64e                	sw	s3,12(sp)
    2092:	c452                	sw	s4,8(sp)
    2094:	ce06                	sw	ra,28(sp)
    2096:	cc22                	sw	s0,24(sp)
    2098:	f8a02023          	sw	a0,-128(zero) # ffffff80 <MEM_SIZE+0xfffdff80>
    209c:	f8b02223          	sw	a1,-124(zero) # ffffff84 <MEM_SIZE+0xfffdff84>
    20a0:	f8d02423          	sw	a3,-120(zero) # ffffff88 <MEM_SIZE+0xfffdff88>
    20a4:	84aa                	mv	s1,a0
    20a6:	892e                	mv	s2,a1
    20a8:	8a36                	mv	s4,a3
    20aa:	89b2                	mv	s3,a2
    20ac:	f8c02623          	sw	a2,-116(zero) # ffffff8c <MEM_SIZE+0xfffdff8c>
    20b0:	4789                	li	a5,2
    20b2:	8736                	mv	a4,a3
    20b4:	86b2                	mv	a3,a2
    20b6:	862e                	mv	a2,a1
    20b8:	85aa                	mv	a1,a0
    20ba:	6515                	lui	a0,0x5
    20bc:	f8f02823          	sw	a5,-112(zero) # ffffff90 <MEM_SIZE+0xfffdff90>
    20c0:	98850513          	addi	a0,a0,-1656 # 4988 <_ZL13mapHidToAmiga+0x270>
    20c4:	3b6010ef          	jal	ra,347a <riscprintf_>
    20c8:	a011                	j	20cc <_Z14dataslot_writetmmm+0x42>
    20ca:	e385                	bnez	a5,20ea <_Z14dataslot_writetmmm+0x60>
    20cc:	f9002783          	lw	a5,-112(zero) # ffffff90 <MEM_SIZE+0xfffdff90>
    20d0:	0077f413          	andi	s0,a5,7
    20d4:	8ba1                	andi	a5,a5,8
    20d6:	d875                	beqz	s0,20ca <_Z14dataslot_writetmmm+0x40>
    20d8:	6515                	lui	a0,0x5
    20da:	8752                	mv	a4,s4
    20dc:	86ce                	mv	a3,s3
    20de:	864a                	mv	a2,s2
    20e0:	85a6                	mv	a1,s1
    20e2:	9ac50513          	addi	a0,a0,-1620 # 49ac <_ZL13mapHidToAmiga+0x294>
    20e6:	14d010ef          	jal	ra,3a32 <riscprintff_>
    20ea:	40f2                	lw	ra,28(sp)
    20ec:	8522                	mv	a0,s0
    20ee:	4462                	lw	s0,24(sp)
    20f0:	44d2                	lw	s1,20(sp)
    20f2:	4942                	lw	s2,16(sp)
    20f4:	49b2                	lw	s3,12(sp)
    20f6:	4a22                	lw	s4,8(sp)
    20f8:	6105                	addi	sp,sp,32
    20fa:	8082                	ret

000020fc <_Z22dataslot_write_lba_settmm>:
    20fc:	f8a02023          	sw	a0,-128(zero) # ffffff80 <MEM_SIZE+0xfffdff80>
    2100:	f8b02223          	sw	a1,-124(zero) # ffffff84 <MEM_SIZE+0xfffdff84>
    2104:	0626                	slli	a2,a2,0x9
    2106:	f8c02623          	sw	a2,-116(zero) # ffffff8c <MEM_SIZE+0xfffdff8c>
    210a:	4785                	li	a5,1
    210c:	f8f02423          	sw	a5,-120(zero) # ffffff88 <MEM_SIZE+0xfffdff88>
    2110:	4789                	li	a5,2
    2112:	f8f02823          	sw	a5,-112(zero) # ffffff90 <MEM_SIZE+0xfffdff90>
    2116:	a011                	j	211a <_Z22dataslot_write_lba_settmm+0x1e>
    2118:	e799                	bnez	a5,2126 <_Z22dataslot_write_lba_settmm+0x2a>
    211a:	f9002783          	lw	a5,-112(zero) # ffffff90 <MEM_SIZE+0xfffdff90>
    211e:	0077f513          	andi	a0,a5,7
    2122:	8ba1                	andi	a5,a5,8
    2124:	d975                	beqz	a0,2118 <_Z22dataslot_write_lba_settmm+0x1c>
    2126:	8082                	ret

00002128 <_Z18dataslot_write_lbamb>:
    2128:	f8a02423          	sw	a0,-120(zero) # ffffff88 <MEM_SIZE+0xfffdff88>
    212c:	4789                	li	a5,2
    212e:	872a                	mv	a4,a0
    2130:	f8f02823          	sw	a5,-112(zero) # ffffff90 <MEM_SIZE+0xfffdff90>
    2134:	a011                	j	2138 <_Z18dataslot_write_lbamb+0x10>
    2136:	eb81                	bnez	a5,2146 <_Z18dataslot_write_lbamb+0x1e>
    2138:	f9002783          	lw	a5,-112(zero) # ffffff90 <MEM_SIZE+0xfffdff90>
    213c:	0077f513          	andi	a0,a5,7
    2140:	8ba1                	andi	a5,a5,8
    2142:	d975                	beqz	a0,2136 <_Z18dataslot_write_lbamb+0xe>
    2144:	8082                	ret
    2146:	f8c02783          	lw	a5,-116(zero) # ffffff8c <MEM_SIZE+0xfffdff8c>
    214a:	97ba                	add	a5,a5,a4
    214c:	f8f02623          	sw	a5,-116(zero) # ffffff8c <MEM_SIZE+0xfffdff8c>
    2150:	f8402783          	lw	a5,-124(zero) # ffffff84 <MEM_SIZE+0xfffdff84>
    2154:	d9e5                	beqz	a1,2144 <_Z18dataslot_write_lbamb+0x1c>
    2156:	973e                	add	a4,a4,a5
    2158:	f8e02223          	sw	a4,-124(zero) # ffffff84 <MEM_SIZE+0xfffdff84>
    215c:	8082                	ret

0000215e <_Z7GetDatav>:
    215e:	7139                	addi	sp,sp,-64
    2160:	dc22                	sw	s0,56(sp)
    2162:	d256                	sw	s5,36(sp)
    2164:	6411                	lui	s0,0x4
    2166:	6ab1                	lui	s5,0xc
    2168:	da26                	sw	s1,52(sp)
    216a:	de06                	sw	ra,60(sp)
    216c:	d84a                	sw	s2,48(sp)
    216e:	d64e                	sw	s3,44(sp)
    2170:	d452                	sw	s4,40(sp)
    2172:	d05a                	sw	s6,32(sp)
    2174:	ce5e                	sw	s7,28(sp)
    2176:	cc62                	sw	s8,24(sp)
    2178:	ca66                	sw	s9,20(sp)
    217a:	c86a                	sw	s10,16(sp)
    217c:	c66e                	sw	s11,12(sp)
    217e:	720a8823          	sb	zero,1840(s5) # c730 <Error>
    2182:	147d                	addi	s0,s0,-1 # 3fff <vbuf_printf+0x35b>
    2184:	20300493          	li	s1,515
    2188:	a015                	j	21ac <_Z7GetDatav+0x4e>
    218a:	4e1000ef          	jal	ra,2e6a <_Z12HPS_fpga_spit>
    218e:	4501                	li	a0,0
    2190:	4db000ef          	jal	ra,2e6a <_Z12HPS_fpga_spit>
    2194:	008577b3          	and	a5,a0,s0
    2198:	07c2                	slli	a5,a5,0x10
    219a:	0542                	slli	a0,a0,0x10
    219c:	83c1                	srli	a5,a5,0x10
    219e:	8541                	srai	a0,a0,0x10
    21a0:	04f4e263          	bltu	s1,a5,21e4 <_Z7GetDatav+0x86>
    21a4:	18055163          	bgez	a0,2326 <_Z7GetDatav+0x1c8>
    21a8:	46d000ef          	jal	ra,2e14 <_Z15HPS_DisableFpgav>
    21ac:	44b000ef          	jal	ra,2df6 <_Z14HPS_EnableFpgav>
    21b0:	4501                	li	a0,0
    21b2:	4b9000ef          	jal	ra,2e6a <_Z12HPS_fpga_spit>
    21b6:	87aa                	mv	a5,a0
    21b8:	83a1                	srli	a5,a5,0x8
    21ba:	8b89                	andi	a5,a5,2
    21bc:	4501                	li	a0,0
    21be:	f7f1                	bnez	a5,218a <_Z7GetDatav+0x2c>
    21c0:	455000ef          	jal	ra,2e14 <_Z15HPS_DisableFpgav>
    21c4:	4501                	li	a0,0
    21c6:	50f2                	lw	ra,60(sp)
    21c8:	5462                	lw	s0,56(sp)
    21ca:	54d2                	lw	s1,52(sp)
    21cc:	5942                	lw	s2,48(sp)
    21ce:	59b2                	lw	s3,44(sp)
    21d0:	5a22                	lw	s4,40(sp)
    21d2:	5a92                	lw	s5,36(sp)
    21d4:	5b02                	lw	s6,32(sp)
    21d6:	4bf2                	lw	s7,28(sp)
    21d8:	4c62                	lw	s8,24(sp)
    21da:	4cd2                	lw	s9,20(sp)
    21dc:	4d42                	lw	s10,16(sp)
    21de:	4db2                	lw	s11,12(sp)
    21e0:	6121                	addi	sp,sp,64
    21e2:	8082                	ret
    21e4:	4501                	li	a0,0
    21e6:	485000ef          	jal	ra,2e6a <_Z12HPS_fpga_spit>
    21ea:	00755a13          	srli	s4,a0,0x7
    21ee:	4501                	li	a0,0
    21f0:	47b000ef          	jal	ra,2e6a <_Z12HPS_fpga_spit>
    21f4:	8baa                	mv	s7,a0
    21f6:	4501                	li	a0,0
    21f8:	473000ef          	jal	ra,2e6a <_Z12HPS_fpga_spit>
    21fc:	6795                	lui	a5,0x5
    21fe:	55578793          	addi	a5,a5,1365 # 5555 <ide_inst+0x6b5>
    2202:	00f57b33          	and	s6,a0,a5
    2206:	008b5793          	srli	a5,s6,0x8
    220a:	0aaa7a13          	andi	s4,s4,170
    220e:	4501                	li	a0,0
    2210:	6dad                	lui	s11,0xb
    2212:	00fa6a33          	or	s4,s4,a5
    2216:	69ad                	lui	s3,0xb
    2218:	453000ef          	jal	ra,2e6a <_Z12HPS_fpga_spit>
    221c:	ec8d8413          	addi	s0,s11,-312 # aec8 <sector_bufferfdd0>
    2220:	8c2a                	mv	s8,a0
    2222:	4c81                	li	s9,0
    2224:	4d01                	li	s10,0
    2226:	4901                	li	s2,0
    2228:	4481                	li	s1,0
    222a:	ec8d8d93          	addi	s11,s11,-312
    222e:	0c898993          	addi	s3,s3,200 # b0c8 <sector_bufferfdd1>
    2232:	4501                	li	a0,0
    2234:	437000ef          	jal	ra,2e6a <_Z12HPS_fpga_spit>
    2238:	0ff57613          	zext.b	a2,a0
    223c:	8121                	srli	a0,a0,0x8
    223e:	00161713          	slli	a4,a2,0x1
    2242:	0542                	slli	a0,a0,0x10
    2244:	8141                	srli	a0,a0,0x10
    2246:	faa77713          	andi	a4,a4,-86
    224a:	00151693          	slli	a3,a0,0x1
    224e:	0ff77713          	zext.b	a4,a4
    2252:	0aa6f693          	andi	a3,a3,170
    2256:	0722                	slli	a4,a4,0x8
    2258:	8f55                	or	a4,a4,a3
    225a:	00a4c7b3          	xor	a5,s1,a0
    225e:	00ed9023          	sh	a4,0(s11)
    2262:	4501                	li	a0,0
    2264:	0ff7f493          	zext.b	s1,a5
    2268:	00c94933          	xor	s2,s2,a2
    226c:	3ff000ef          	jal	ra,2e6a <_Z12HPS_fpga_spit>
    2270:	0ff57613          	zext.b	a2,a0
    2274:	8121                	srli	a0,a0,0x8
    2276:	00161713          	slli	a4,a2,0x1
    227a:	01051793          	slli	a5,a0,0x10
    227e:	83c1                	srli	a5,a5,0x10
    2280:	faa77713          	andi	a4,a4,-86
    2284:	00179693          	slli	a3,a5,0x1
    2288:	0ff77713          	zext.b	a4,a4
    228c:	0722                	slli	a4,a4,0x8
    228e:	0aa6f693          	andi	a3,a3,170
    2292:	0d91                	addi	s11,s11,4
    2294:	8f55                	or	a4,a4,a3
    2296:	00fd47b3          	xor	a5,s10,a5
    229a:	feed9f23          	sh	a4,-2(s11)
    229e:	0ff7fd13          	zext.b	s10,a5
    22a2:	01964cb3          	xor	s9,a2,s9
    22a6:	f93d96e3          	bne	s11,s3,2232 <_Z7GetDatav+0xd4>
    22aa:	4501                	li	a0,0
    22ac:	3bf000ef          	jal	ra,2e6a <_Z12HPS_fpga_spit>
    22b0:	00144683          	lbu	a3,1(s0)
    22b4:	00044703          	lbu	a4,0(s0)
    22b8:	0ff57613          	zext.b	a2,a0
    22bc:	8121                	srli	a0,a0,0x8
    22be:	0ff57793          	zext.b	a5,a0
    22c2:	05567513          	andi	a0,a2,85
    22c6:	0557f593          	andi	a1,a5,85
    22ca:	8ec9                	or	a3,a3,a0
    22cc:	06a2                	slli	a3,a3,0x8
    22ce:	8f4d                	or	a4,a4,a1
    22d0:	8f55                	or	a4,a4,a3
    22d2:	00e41023          	sh	a4,0(s0)
    22d6:	4501                	li	a0,0
    22d8:	0411                	addi	s0,s0,4
    22da:	8cbd                	xor	s1,s1,a5
    22dc:	00c94933          	xor	s2,s2,a2
    22e0:	38b000ef          	jal	ra,2e6a <_Z12HPS_fpga_spit>
    22e4:	fff44703          	lbu	a4,-1(s0)
    22e8:	0ff57693          	zext.b	a3,a0
    22ec:	ffe44783          	lbu	a5,-2(s0)
    22f0:	8121                	srli	a0,a0,0x8
    22f2:	0ff57513          	zext.b	a0,a0
    22f6:	0556f593          	andi	a1,a3,85
    22fa:	05557613          	andi	a2,a0,85
    22fe:	8f4d                	or	a4,a4,a1
    2300:	0722                	slli	a4,a4,0x8
    2302:	8fd1                	or	a5,a5,a2
    2304:	8fd9                	or	a5,a5,a4
    2306:	fef41f23          	sh	a5,-2(s0)
    230a:	00ad4d33          	xor	s10,s10,a0
    230e:	0196ccb3          	xor	s9,a3,s9
    2312:	f9341ce3          	bne	s0,s3,22aa <_Z7GetDatav+0x14c>
    2316:	0554f493          	andi	s1,s1,85
    231a:	01448a63          	beq	s1,s4,232e <_Z7GetDatav+0x1d0>
    231e:	47f5                	li	a5,29
    2320:	72fa8823          	sb	a5,1840(s5)
    2324:	bd71                	j	21c0 <_Z7GetDatav+0x62>
    2326:	47f1                	li	a5,28
    2328:	72fa8823          	sb	a5,1840(s5)
    232c:	bd51                	j	21c0 <_Z7GetDatav+0x62>
    232e:	0ffb7b13          	zext.b	s6,s6
    2332:	05597913          	andi	s2,s2,85
    2336:	ff2b14e3          	bne	s6,s2,231e <_Z7GetDatav+0x1c0>
    233a:	776d                	lui	a4,0xffffb
    233c:	aaa70713          	addi	a4,a4,-1366 # ffffaaaa <MEM_SIZE+0xfffdaaaa>
    2340:	001b9793          	slli	a5,s7,0x1
    2344:	8ff9                	and	a5,a5,a4
    2346:	6715                	lui	a4,0x5
    2348:	55570713          	addi	a4,a4,1365 # 5555 <ide_inst+0x6b5>
    234c:	07c2                	slli	a5,a5,0x10
    234e:	83c1                	srli	a5,a5,0x10
    2350:	00ec7c33          	and	s8,s8,a4
    2354:	00fc6733          	or	a4,s8,a5
    2358:	055d7d13          	andi	s10,s10,85
    235c:	8321                	srli	a4,a4,0x8
    235e:	fced10e3          	bne	s10,a4,231e <_Z7GetDatav+0x1c0>
    2362:	0ff7f793          	zext.b	a5,a5
    2366:	0187e7b3          	or	a5,a5,s8
    236a:	055cfc93          	andi	s9,s9,85
    236e:	0ff7f793          	zext.b	a5,a5
    2372:	fafc96e3          	bne	s9,a5,231e <_Z7GetDatav+0x1c0>
    2376:	29f000ef          	jal	ra,2e14 <_Z15HPS_DisableFpgav>
    237a:	4505                	li	a0,1
    237c:	b5a9                	j	21c6 <_Z7GetDatav+0x68>

0000237e <_Z8FindSyncP7adfTYPE>:
    237e:	1101                	addi	sp,sp,-32
    2380:	ca26                	sw	s1,20(sp)
    2382:	c84a                	sw	s2,16(sp)
    2384:	6491                	lui	s1,0x4
    2386:	c452                	sw	s4,8(sp)
    2388:	6941                	lui	s2,0x10
    238a:	7a71                	lui	s4,0xffffc
    238c:	c64e                	sw	s3,12(sp)
    238e:	c256                	sw	s5,4(sp)
    2390:	ce06                	sw	ra,28(sp)
    2392:	fff48a93          	addi	s5,s1,-1 # 3fff <vbuf_printf+0x35b>
    2396:	cc22                	sw	s0,24(sp)
    2398:	89aa                	mv	s3,a0
    239a:	1a7d                	addi	s4,s4,-1 # ffffbfff <MEM_SIZE+0xfffdbfff>
    239c:	197d                	addi	s2,s2,-1 # ffff <_end+0x34c7>
    239e:	48948493          	addi	s1,s1,1161
    23a2:	255000ef          	jal	ra,2df6 <_Z14HPS_EnableFpgav>
    23a6:	4501                	li	a0,0
    23a8:	2c3000ef          	jal	ra,2e6a <_Z12HPS_fpga_spit>
    23ac:	00855793          	srli	a5,a0,0x8
    23b0:	8b89                	andi	a5,a5,2
    23b2:	0ff57513          	zext.b	a0,a0
    23b6:	cfb1                	beqz	a5,2412 <_Z8FindSyncP7adfTYPE+0x94>
    23b8:	0119c783          	lbu	a5,17(s3)
    23bc:	04a79b63          	bne	a5,a0,2412 <_Z8FindSyncP7adfTYPE+0x94>
    23c0:	4501                	li	a0,0
    23c2:	2a9000ef          	jal	ra,2e6a <_Z12HPS_fpga_spit>
    23c6:	4501                	li	a0,0
    23c8:	2a3000ef          	jal	ra,2e6a <_Z12HPS_fpga_spit>
    23cc:	014577b3          	and	a5,a0,s4
    23d0:	07c2                	slli	a5,a5,0x10
    23d2:	83c1                	srli	a5,a5,0x10
    23d4:	cf9d                	beqz	a5,2412 <_Z8FindSyncP7adfTYPE+0x94>
    23d6:	01557433          	and	s0,a0,s5
    23da:	0442                	slli	s0,s0,0x10
    23dc:	8041                	srli	s0,s0,0x10
    23de:	a029                	j	23e8 <_Z8FindSyncP7adfTYPE+0x6a>
    23e0:	28b000ef          	jal	ra,2e6a <_Z12HPS_fpga_spit>
    23e4:	00950b63          	beq	a0,s1,23fa <_Z8FindSyncP7adfTYPE+0x7c>
    23e8:	147d                	addi	s0,s0,-1
    23ea:	0442                	slli	s0,s0,0x10
    23ec:	8041                	srli	s0,s0,0x10
    23ee:	4501                	li	a0,0
    23f0:	ff2418e3          	bne	s0,s2,23e0 <_Z8FindSyncP7adfTYPE+0x62>
    23f4:	221000ef          	jal	ra,2e14 <_Z15HPS_DisableFpgav>
    23f8:	b76d                	j	23a2 <_Z8FindSyncP7adfTYPE+0x24>
    23fa:	21b000ef          	jal	ra,2e14 <_Z15HPS_DisableFpgav>
    23fe:	4505                	li	a0,1
    2400:	40f2                	lw	ra,28(sp)
    2402:	4462                	lw	s0,24(sp)
    2404:	44d2                	lw	s1,20(sp)
    2406:	4942                	lw	s2,16(sp)
    2408:	49b2                	lw	s3,12(sp)
    240a:	4a22                	lw	s4,8(sp)
    240c:	4a92                	lw	s5,4(sp)
    240e:	6105                	addi	sp,sp,32
    2410:	8082                	ret
    2412:	203000ef          	jal	ra,2e14 <_Z15HPS_DisableFpgav>
    2416:	4501                	li	a0,0
    2418:	b7e5                	j	2400 <_Z8FindSyncP7adfTYPE+0x82>

0000241a <_Z9GetHeaderPhS_>:
    241a:	715d                	addi	sp,sp,-80
    241c:	c4a2                	sw	s0,72(sp)
    241e:	dc52                	sw	s4,56(sp)
    2420:	6411                	lui	s0,0x4
    2422:	6a31                	lui	s4,0xc
    2424:	c2a6                	sw	s1,68(sp)
    2426:	c0ca                	sw	s2,64(sp)
    2428:	de4e                	sw	s3,60(sp)
    242a:	c686                	sw	ra,76(sp)
    242c:	da56                	sw	s5,52(sp)
    242e:	d85a                	sw	s6,48(sp)
    2430:	d65e                	sw	s7,44(sp)
    2432:	d462                	sw	s8,40(sp)
    2434:	d266                	sw	s9,36(sp)
    2436:	d06a                	sw	s10,32(sp)
    2438:	ce6e                	sw	s11,28(sp)
    243a:	89aa                	mv	s3,a0
    243c:	892e                	mv	s2,a1
    243e:	720a0823          	sb	zero,1840(s4) # c730 <Error>
    2442:	f0040413          	addi	s0,s0,-256 # 3f00 <vbuf_printf+0x25c>
    2446:	44e1                	li	s1,24
    2448:	a02d                	j	2472 <_Z9GetHeaderPhS_+0x58>
    244a:	221000ef          	jal	ra,2e6a <_Z12HPS_fpga_spit>
    244e:	4501                	li	a0,0
    2450:	21b000ef          	jal	ra,2e6a <_Z12HPS_fpga_spit>
    2454:	008577b3          	and	a5,a0,s0
    2458:	07c2                	slli	a5,a5,0x10
    245a:	0ff57713          	zext.b	a4,a0
    245e:	83c1                	srli	a5,a5,0x10
    2460:	0542                	slli	a0,a0,0x10
    2462:	8541                	srai	a0,a0,0x10
    2464:	e3b9                	bnez	a5,24aa <_Z9GetHeaderPhS_+0x90>
    2466:	04e4e263          	bltu	s1,a4,24aa <_Z9GetHeaderPhS_+0x90>
    246a:	06055163          	bgez	a0,24cc <_Z9GetHeaderPhS_+0xb2>
    246e:	1a7000ef          	jal	ra,2e14 <_Z15HPS_DisableFpgav>
    2472:	185000ef          	jal	ra,2df6 <_Z14HPS_EnableFpgav>
    2476:	4501                	li	a0,0
    2478:	1f3000ef          	jal	ra,2e6a <_Z12HPS_fpga_spit>
    247c:	87aa                	mv	a5,a0
    247e:	83a1                	srli	a5,a5,0x8
    2480:	8b89                	andi	a5,a5,2
    2482:	4501                	li	a0,0
    2484:	f3f9                	bnez	a5,244a <_Z9GetHeaderPhS_+0x30>
    2486:	18f000ef          	jal	ra,2e14 <_Z15HPS_DisableFpgav>
    248a:	4501                	li	a0,0
    248c:	40b6                	lw	ra,76(sp)
    248e:	4426                	lw	s0,72(sp)
    2490:	4496                	lw	s1,68(sp)
    2492:	4906                	lw	s2,64(sp)
    2494:	59f2                	lw	s3,60(sp)
    2496:	5a62                	lw	s4,56(sp)
    2498:	5ad2                	lw	s5,52(sp)
    249a:	5b42                	lw	s6,48(sp)
    249c:	5bb2                	lw	s7,44(sp)
    249e:	5c22                	lw	s8,40(sp)
    24a0:	5c92                	lw	s9,36(sp)
    24a2:	5d02                	lw	s10,32(sp)
    24a4:	4df2                	lw	s11,28(sp)
    24a6:	6161                	addi	sp,sp,80
    24a8:	8082                	ret
    24aa:	4501                	li	a0,0
    24ac:	1bf000ef          	jal	ra,2e6a <_Z12HPS_fpga_spit>
    24b0:	6791                	lui	a5,0x4
    24b2:	48978793          	addi	a5,a5,1161 # 4489 <strlen+0x40b>
    24b6:	00f50f63          	beq	a0,a5,24d4 <_Z9GetHeaderPhS_+0xba>
    24ba:	6515                	lui	a0,0x5
    24bc:	47d5                	li	a5,21
    24be:	a0c50513          	addi	a0,a0,-1524 # 4a0c <_ZL13mapHidToAmiga+0x2f4>
    24c2:	72fa0823          	sb	a5,1840(s4)
    24c6:	7b5000ef          	jal	ra,347a <riscprintf_>
    24ca:	bf75                	j	2486 <_Z9GetHeaderPhS_+0x6c>
    24cc:	47d1                	li	a5,20
    24ce:	72fa0823          	sb	a5,1840(s4)
    24d2:	bf55                	j	2486 <_Z9GetHeaderPhS_+0x6c>
    24d4:	4501                	li	a0,0
    24d6:	195000ef          	jal	ra,2e6a <_Z12HPS_fpga_spit>
    24da:	00855d13          	srli	s10,a0,0x8
    24de:	0ff57b93          	zext.b	s7,a0
    24e2:	4501                	li	a0,0
    24e4:	187000ef          	jal	ra,2e6a <_Z12HPS_fpga_spit>
    24e8:	00855d93          	srli	s11,a0,0x8
    24ec:	0dc2                	slli	s11,s11,0x10
    24ee:	010ddd93          	srli	s11,s11,0x10
    24f2:	001d9593          	slli	a1,s11,0x1
    24f6:	0ff57b13          	zext.b	s6,a0
    24fa:	0d42                	slli	s10,s10,0x10
    24fc:	4501                	li	a0,0
    24fe:	0aa5fa93          	andi	s5,a1,170
    2502:	010d5d13          	srli	s10,s10,0x10
    2506:	165000ef          	jal	ra,2e6a <_Z12HPS_fpga_spit>
    250a:	00855493          	srli	s1,a0,0x8
    250e:	87aa                	mv	a5,a0
    2510:	001d1c13          	slli	s8,s10,0x1
    2514:	001b9413          	slli	s0,s7,0x1
    2518:	0554f693          	andi	a3,s1,85
    251c:	05557713          	andi	a4,a0,85
    2520:	0ff7f793          	zext.b	a5,a5
    2524:	0aac7c13          	andi	s8,s8,170
    2528:	0aa47413          	andi	s0,s0,170
    252c:	4501                	li	a0,0
    252e:	00dc6c33          	or	s8,s8,a3
    2532:	c63e                	sw	a5,12(sp)
    2534:	8c59                	or	s0,s0,a4
    2536:	135000ef          	jal	ra,2e6a <_Z12HPS_fpga_spit>
    253a:	00855793          	srli	a5,a0,0x8
    253e:	001b1c93          	slli	s9,s6,0x1
    2542:	0557f693          	andi	a3,a5,85
    2546:	05557713          	andi	a4,a0,85
    254a:	0aacfc93          	andi	s9,s9,170
    254e:	0ff00613          	li	a2,255
    2552:	0ff4f493          	zext.b	s1,s1
    2556:	0ff7f793          	zext.b	a5,a5
    255a:	00dae6b3          	or	a3,s5,a3
    255e:	0ff57513          	zext.b	a0,a0
    2562:	00ece733          	or	a4,s9,a4
    2566:	00cc0d63          	beq	s8,a2,2580 <_Z9GetHeaderPhS_+0x166>
    256a:	47d9                	li	a5,22
    256c:	72fa0823          	sb	a5,1840(s4)
    2570:	6515                	lui	a0,0x5
    2572:	8622                	mv	a2,s0
    2574:	85e2                	mv	a1,s8
    2576:	a2c50513          	addi	a0,a0,-1492 # 4a2c <_ZL13mapHidToAmiga+0x314>
    257a:	701000ef          	jal	ra,347a <riscprintf_>
    257e:	b721                	j	2486 <_Z9GetHeaderPhS_+0x6c>
    2580:	09f00613          	li	a2,159
    2584:	00866963          	bltu	a2,s0,2596 <_Z9GetHeaderPhS_+0x17c>
    2588:	4629                	li	a2,10
    258a:	00d67a63          	bgeu	a2,a3,259e <_Z9GetHeaderPhS_+0x184>
    258e:	47e1                	li	a5,24
    2590:	72fa0823          	sb	a5,1840(s4)
    2594:	bff1                	j	2570 <_Z9GetHeaderPhS_+0x156>
    2596:	47dd                	li	a5,23
    2598:	72fa0823          	sb	a5,1840(s4)
    259c:	bfd1                	j	2570 <_Z9GetHeaderPhS_+0x156>
    259e:	fff70593          	addi	a1,a4,-1
    25a2:	0ff5f593          	zext.b	a1,a1
    25a6:	00b67663          	bgeu	a2,a1,25b2 <_Z9GetHeaderPhS_+0x198>
    25aa:	47e5                	li	a5,25
    25ac:	72fa0823          	sb	a5,1840(s4)
    25b0:	b7c1                	j	2570 <_Z9GetHeaderPhS_+0x156>
    25b2:	730a4603          	lbu	a2,1840(s4)
    25b6:	fe4d                	bnez	a2,2570 <_Z9GetHeaderPhS_+0x156>
    25b8:	4732                	lw	a4,12(sp)
    25ba:	00898023          	sb	s0,0(s3)
    25be:	01a4c4b3          	xor	s1,s1,s10
    25c2:	01b7c7b3          	xor	a5,a5,s11
    25c6:	0ff4f993          	zext.b	s3,s1
    25ca:	0ff7fa93          	zext.b	s5,a5
    25ce:	00ebc4b3          	xor	s1,s7,a4
    25d2:	00ab4b33          	xor	s6,s6,a0
    25d6:	00d90023          	sb	a3,0(s2)
    25da:	4421                	li	s0,8
    25dc:	4501                	li	a0,0
    25de:	08d000ef          	jal	ra,2e6a <_Z12HPS_fpga_spit>
    25e2:	00855713          	srli	a4,a0,0x8
    25e6:	00a4c7b3          	xor	a5,s1,a0
    25ea:	00e9c733          	xor	a4,s3,a4
    25ee:	4501                	li	a0,0
    25f0:	0ff7f493          	zext.b	s1,a5
    25f4:	0ff77993          	zext.b	s3,a4
    25f8:	073000ef          	jal	ra,2e6a <_Z12HPS_fpga_spit>
    25fc:	00855793          	srli	a5,a0,0x8
    2600:	147d                	addi	s0,s0,-1
    2602:	00fac7b3          	xor	a5,s5,a5
    2606:	00ab4533          	xor	a0,s6,a0
    260a:	0ff47413          	zext.b	s0,s0
    260e:	0ff7fa93          	zext.b	s5,a5
    2612:	0ff57b13          	zext.b	s6,a0
    2616:	f079                	bnez	s0,25dc <_Z9GetHeaderPhS_+0x1c2>
    2618:	4501                	li	a0,0
    261a:	051000ef          	jal	ra,2e6a <_Z12HPS_fpga_spit>
    261e:	00151413          	slli	s0,a0,0x1
    2622:	7ced                	lui	s9,0xffffb
    2624:	4501                	li	a0,0
    2626:	045000ef          	jal	ra,2e6a <_Z12HPS_fpga_spit>
    262a:	aaac8c93          	addi	s9,s9,-1366 # ffffaaaa <MEM_SIZE+0xfffdaaaa>
    262e:	01947433          	and	s0,s0,s9
    2632:	892a                	mv	s2,a0
    2634:	6c15                	lui	s8,0x5
    2636:	4501                	li	a0,0
    2638:	033000ef          	jal	ra,2e6a <_Z12HPS_fpga_spit>
    263c:	0442                	slli	s0,s0,0x10
    263e:	555c0c13          	addi	s8,s8,1365 # 5555 <ide_inst+0x6b5>
    2642:	01857bb3          	and	s7,a0,s8
    2646:	8041                	srli	s0,s0,0x10
    2648:	008bd793          	srli	a5,s7,0x8
    264c:	00845d13          	srli	s10,s0,0x8
    2650:	4501                	li	a0,0
    2652:	00fd6d33          	or	s10,s10,a5
    2656:	0559f993          	andi	s3,s3,85
    265a:	011000ef          	jal	ra,2e6a <_Z12HPS_fpga_spit>
    265e:	01a98663          	beq	s3,s10,266a <_Z9GetHeaderPhS_+0x250>
    2662:	47e9                	li	a5,26
    2664:	72fa0823          	sb	a5,1840(s4)
    2668:	bd39                	j	2486 <_Z9GetHeaderPhS_+0x6c>
    266a:	0ff47793          	zext.b	a5,s0
    266e:	0177e7b3          	or	a5,a5,s7
    2672:	0554f493          	andi	s1,s1,85
    2676:	0ff7f793          	zext.b	a5,a5
    267a:	fef494e3          	bne	s1,a5,2662 <_Z9GetHeaderPhS_+0x248>
    267e:	00191793          	slli	a5,s2,0x1
    2682:	0197f7b3          	and	a5,a5,s9
    2686:	07c2                	slli	a5,a5,0x10
    2688:	83c1                	srli	a5,a5,0x10
    268a:	01857533          	and	a0,a0,s8
    268e:	00f56733          	or	a4,a0,a5
    2692:	055afa93          	andi	s5,s5,85
    2696:	8321                	srli	a4,a4,0x8
    2698:	fcea95e3          	bne	s5,a4,2662 <_Z9GetHeaderPhS_+0x248>
    269c:	0ff7f793          	zext.b	a5,a5
    26a0:	8fc9                	or	a5,a5,a0
    26a2:	055b7b13          	andi	s6,s6,85
    26a6:	0ff7f793          	zext.b	a5,a5
    26aa:	fafb1ce3          	bne	s6,a5,2662 <_Z9GetHeaderPhS_+0x248>
    26ae:	766000ef          	jal	ra,2e14 <_Z15HPS_DisableFpgav>
    26b2:	4505                	li	a0,1
    26b4:	bbe1                	j	248c <_Z9GetHeaderPhS_+0x72>

000026b6 <_Z10SendSectorPhhhhh>:
    26b6:	1101                	addi	sp,sp,-32
    26b8:	c256                	sw	s5,4(sp)
    26ba:	6aad                	lui	s5,0xb
    26bc:	ca26                	sw	s1,20(sp)
    26be:	84aa                	mv	s1,a0
    26c0:	aaaa8513          	addi	a0,s5,-1366 # aaaa <sector_buffer+0x3cb2>
    26c4:	ce06                	sw	ra,28(sp)
    26c6:	cc22                	sw	s0,24(sp)
    26c8:	c84a                	sw	s2,16(sp)
    26ca:	8436                	mv	s0,a3
    26cc:	892e                	mv	s2,a1
    26ce:	c64e                	sw	s3,12(sp)
    26d0:	c452                	sw	s4,8(sp)
    26d2:	89b2                	mv	s3,a2
    26d4:	8a3a                	mv	s4,a4
    26d6:	c05a                	sw	s6,0(sp)
    26d8:	792000ef          	jal	ra,2e6a <_Z12HPS_fpga_spit>
    26dc:	aaaa8513          	addi	a0,s5,-1366
    26e0:	0422                	slli	s0,s0,0x8
    26e2:	788000ef          	jal	ra,2e6a <_Z12HPS_fpga_spit>
    26e6:	01446433          	or	s0,s0,s4
    26ea:	8522                	mv	a0,s0
    26ec:	77e000ef          	jal	ra,2e6a <_Z12HPS_fpga_spit>
    26f0:	8522                	mv	a0,s0
    26f2:	778000ef          	jal	ra,2e6a <_Z12HPS_fpga_spit>
    26f6:	0019da13          	srli	s4,s3,0x1
    26fa:	6b15                	lui	s6,0x5
    26fc:	500b0b13          	addi	s6,s6,1280 # 5500 <ide_inst+0x660>
    2700:	055a7513          	andi	a0,s4,85
    2704:	01656533          	or	a0,a0,s6
    2708:	762000ef          	jal	ra,2e6a <_Z12HPS_fpga_spit>
    270c:	47ad                	li	a5,11
    270e:	00195a93          	srli	s5,s2,0x1
    2712:	412787b3          	sub	a5,a5,s2
    2716:	8785                	srai	a5,a5,0x1
    2718:	055af713          	andi	a4,s5,85
    271c:	0557f513          	andi	a0,a5,85
    2720:	0722                	slli	a4,a4,0x8
    2722:	8d59                	or	a0,a0,a4
    2724:	0ff7f413          	zext.b	s0,a5
    2728:	742000ef          	jal	ra,2e6a <_Z12HPS_fpga_spit>
    272c:	0559f513          	andi	a0,s3,85
    2730:	01656533          	or	a0,a0,s6
    2734:	736000ef          	jal	ra,2e6a <_Z12HPS_fpga_spit>
    2738:	47ad                	li	a5,11
    273a:	412787b3          	sub	a5,a5,s2
    273e:	0ff7f793          	zext.b	a5,a5
    2742:	05597713          	andi	a4,s2,85
    2746:	0722                	slli	a4,a4,0x8
    2748:	0557f513          	andi	a0,a5,85
    274c:	013a4a33          	xor	s4,s4,s3
    2750:	8fa1                	xor	a5,a5,s0
    2752:	012acab3          	xor	s5,s5,s2
    2756:	8d59                	or	a0,a0,a4
    2758:	6b2d                	lui	s6,0xb
    275a:	0557f993          	andi	s3,a5,85
    275e:	055a7a13          	andi	s4,s4,85
    2762:	055afa93          	andi	s5,s5,85
    2766:	4441                	li	s0,16
    2768:	702000ef          	jal	ra,2e6a <_Z12HPS_fpga_spit>
    276c:	aaab0913          	addi	s2,s6,-1366 # aaaa <sector_buffer+0x3cb2>
    2770:	147d                	addi	s0,s0,-1
    2772:	0442                	slli	s0,s0,0x10
    2774:	854a                	mv	a0,s2
    2776:	8041                	srli	s0,s0,0x10
    2778:	6f2000ef          	jal	ra,2e6a <_Z12HPS_fpga_spit>
    277c:	f875                	bnez	s0,2770 <_Z10SendSectorPhhhhh+0xba>
    277e:	aaab0513          	addi	a0,s6,-1366
    2782:	6e8000ef          	jal	ra,2e6a <_Z12HPS_fpga_spit>
    2786:	aaab0513          	addi	a0,s6,-1366
    278a:	6e0000ef          	jal	ra,2e6a <_Z12HPS_fpga_spit>
    278e:	faaa6513          	ori	a0,s4,-86
    2792:	77ed                	lui	a5,0xffffb
    2794:	a0078793          	addi	a5,a5,-1536 # ffffaa00 <MEM_SIZE+0xfffdaa00>
    2798:	0ff57513          	zext.b	a0,a0
    279c:	8d5d                	or	a0,a0,a5
    279e:	0542                	slli	a0,a0,0x10
    27a0:	8141                	srli	a0,a0,0x10
    27a2:	6c8000ef          	jal	ra,2e6a <_Z12HPS_fpga_spit>
    27a6:	0aaae793          	ori	a5,s5,170
    27aa:	07a2                	slli	a5,a5,0x8
    27ac:	0aa9e513          	ori	a0,s3,170
    27b0:	8d5d                	or	a0,a0,a5
    27b2:	6b8000ef          	jal	ra,2e6a <_Z12HPS_fpga_spit>
    27b6:	20048413          	addi	s0,s1,512
    27ba:	87a6                	mv	a5,s1
    27bc:	4a01                	li	s4,0
    27be:	4901                	li	s2,0
    27c0:	4a81                	li	s5,0
    27c2:	4981                	li	s3,0
    27c4:	0007c583          	lbu	a1,0(a5)
    27c8:	0017c603          	lbu	a2,1(a5)
    27cc:	0027c683          	lbu	a3,2(a5)
    27d0:	0037c703          	lbu	a4,3(a5)
    27d4:	0015d513          	srli	a0,a1,0x1
    27d8:	8da9                	xor	a1,a1,a0
    27da:	00165893          	srli	a7,a2,0x1
    27de:	0016d813          	srli	a6,a3,0x1
    27e2:	00175513          	srli	a0,a4,0x1
    27e6:	01164633          	xor	a2,a2,a7
    27ea:	0106c6b3          	xor	a3,a3,a6
    27ee:	8f29                	xor	a4,a4,a0
    27f0:	0791                	addi	a5,a5,4
    27f2:	00b9c9b3          	xor	s3,s3,a1
    27f6:	00cacab3          	xor	s5,s5,a2
    27fa:	00d94933          	xor	s2,s2,a3
    27fe:	00ea4a33          	xor	s4,s4,a4
    2802:	fc8791e3          	bne	a5,s0,27c4 <_Z10SendSectorPhhhhh+0x10e>
    2806:	6b2d                	lui	s6,0xb
    2808:	aaab0513          	addi	a0,s6,-1366 # aaaa <sector_buffer+0x3cb2>
    280c:	65e000ef          	jal	ra,2e6a <_Z12HPS_fpga_spit>
    2810:	aaab0513          	addi	a0,s6,-1366
    2814:	656000ef          	jal	ra,2e6a <_Z12HPS_fpga_spit>
    2818:	faa9e793          	ori	a5,s3,-86
    281c:	0ff7f793          	zext.b	a5,a5
    2820:	faaae513          	ori	a0,s5,-86
    2824:	07a2                	slli	a5,a5,0x8
    2826:	0ff57513          	zext.b	a0,a0
    282a:	8d5d                	or	a0,a0,a5
    282c:	63e000ef          	jal	ra,2e6a <_Z12HPS_fpga_spit>
    2830:	faa96793          	ori	a5,s2,-86
    2834:	0ff7f793          	zext.b	a5,a5
    2838:	faaa6513          	ori	a0,s4,-86
    283c:	07a2                	slli	a5,a5,0x8
    283e:	0ff57513          	zext.b	a0,a0
    2842:	8d5d                	or	a0,a0,a5
    2844:	251d                	jal	2e6a <_Z12HPS_fpga_spit>
    2846:	8926                	mv	s2,s1
    2848:	00094783          	lbu	a5,0(s2)
    284c:	0909                	addi	s2,s2,2
    284e:	fff94503          	lbu	a0,-1(s2)
    2852:	8385                	srli	a5,a5,0x1
    2854:	0aa7e793          	ori	a5,a5,170
    2858:	8105                	srli	a0,a0,0x1
    285a:	07a2                	slli	a5,a5,0x8
    285c:	0aa56513          	ori	a0,a0,170
    2860:	8d5d                	or	a0,a0,a5
    2862:	2521                	jal	2e6a <_Z12HPS_fpga_spit>
    2864:	fe8912e3          	bne	s2,s0,2848 <_Z10SendSectorPhhhhh+0x192>
    2868:	0004c783          	lbu	a5,0(s1)
    286c:	0489                	addi	s1,s1,2
    286e:	fff4c503          	lbu	a0,-1(s1)
    2872:	0aa7e793          	ori	a5,a5,170
    2876:	07a2                	slli	a5,a5,0x8
    2878:	0aa56513          	ori	a0,a0,170
    287c:	8d5d                	or	a0,a0,a5
    287e:	23f5                	jal	2e6a <_Z12HPS_fpga_spit>
    2880:	fe8494e3          	bne	s1,s0,2868 <_Z10SendSectorPhhhhh+0x1b2>
    2884:	40f2                	lw	ra,28(sp)
    2886:	4462                	lw	s0,24(sp)
    2888:	44d2                	lw	s1,20(sp)
    288a:	4942                	lw	s2,16(sp)
    288c:	49b2                	lw	s3,12(sp)
    288e:	4a22                	lw	s4,8(sp)
    2890:	4a92                	lw	s5,4(sp)
    2892:	4b02                	lw	s6,0(sp)
    2894:	6105                	addi	sp,sp,32
    2896:	8082                	ret

00002898 <_Z10WriteTrackP7adfTYPE>:
    2898:	7179                	addi	sp,sp,-48
    289a:	d422                	sw	s0,40(sp)
    289c:	d04a                	sw	s2,32(sp)
    289e:	ce4e                	sw	s3,28(sp)
    28a0:	cc52                	sw	s4,24(sp)
    28a2:	ca56                	sw	s5,20(sp)
    28a4:	d606                	sw	ra,44(sp)
    28a6:	d226                	sw	s1,36(sp)
    28a8:	01154783          	lbu	a5,17(a0)
    28ac:	6aad                	lui	s5,0xb
    28ae:	842a                	mv	s0,a0
    28b0:	00179993          	slli	s3,a5,0x1
    28b4:	99be                	add	s3,s3,a5
    28b6:	098a                	slli	s3,s3,0x2
    28b8:	40f989b3          	sub	s3,s3,a5
    28bc:	57fd                	li	a5,-1
    28be:	00f50923          	sb	a5,18(a0)
    28c2:	6931                	lui	s2,0xc
    28c4:	4a6d                	li	s4,27
    28c6:	ec8a8a93          	addi	s5,s5,-312 # aec8 <sector_bufferfdd0>
    28ca:	8522                	mv	a0,s0
    28cc:	ab3ff0ef          	jal	ra,237e <_Z8FindSyncP7adfTYPE>
    28d0:	c121                	beqz	a0,2910 <_Z10WriteTrackP7adfTYPE+0x78>
    28d2:	00f10593          	addi	a1,sp,15
    28d6:	00e10513          	addi	a0,sp,14
    28da:	b41ff0ef          	jal	ra,241a <_Z9GetHeaderPhS_>
    28de:	84ca                	mv	s1,s2
    28e0:	c92d                	beqz	a0,2952 <_Z10WriteTrackP7adfTYPE+0xba>
    28e2:	01144703          	lbu	a4,17(s0)
    28e6:	00e14783          	lbu	a5,14(sp)
    28ea:	02f70c63          	beq	a4,a5,2922 <_Z10WriteTrackP7adfTYPE+0x8a>
    28ee:	73490823          	sb	s4,1840(s2) # c730 <Error>
    28f2:	45ed                	li	a1,27
    28f4:	6515                	lui	a0,0x5
    28f6:	a6c50513          	addi	a0,a0,-1428 # 4a6c <_ZL13mapHidToAmiga+0x354>
    28fa:	381000ef          	jal	ra,347a <riscprintf_>
    28fe:	6515                	lui	a0,0x5
    2900:	a8450513          	addi	a0,a0,-1404 # 4a84 <_ZL13mapHidToAmiga+0x36c>
    2904:	377000ef          	jal	ra,347a <riscprintf_>
    2908:	8522                	mv	a0,s0
    290a:	a75ff0ef          	jal	ra,237e <_Z8FindSyncP7adfTYPE>
    290e:	f171                	bnez	a0,28d2 <_Z10WriteTrackP7adfTYPE+0x3a>
    2910:	50b2                	lw	ra,44(sp)
    2912:	5422                	lw	s0,40(sp)
    2914:	5492                	lw	s1,36(sp)
    2916:	5902                	lw	s2,32(sp)
    2918:	49f2                	lw	s3,28(sp)
    291a:	4a62                	lw	s4,24(sp)
    291c:	4ad2                	lw	s5,20(sp)
    291e:	6145                	addi	sp,sp,48
    2920:	8082                	ret
    2922:	e02ff0ef          	jal	ra,1f24 <_Z14dataslot_readyv>
    2926:	dd75                	beqz	a0,2922 <_Z10WriteTrackP7adfTYPE+0x8a>
    2928:	00f14603          	lbu	a2,15(sp)
    292c:	00045503          	lhu	a0,0(s0)
    2930:	85d6                	mv	a1,s5
    2932:	964e                	add	a2,a2,s3
    2934:	fc8ff0ef          	jal	ra,20fc <_Z22dataslot_write_lba_settmm>
    2938:	827ff0ef          	jal	ra,215e <_Z7GetDatav>
    293c:	c911                	beqz	a0,2950 <_Z10WriteTrackP7adfTYPE+0xb8>
    293e:	00844783          	lbu	a5,8(s0)
    2942:	8bc1                	andi	a5,a5,16
    2944:	cf81                	beqz	a5,295c <_Z10WriteTrackP7adfTYPE+0xc4>
    2946:	4581                	li	a1,0
    2948:	20000513          	li	a0,512
    294c:	fdcff0ef          	jal	ra,2128 <_Z18dataslot_write_lbamb>
    2950:	64b1                	lui	s1,0xc
    2952:	7304c783          	lbu	a5,1840(s1) # c730 <Error>
    2956:	dbb5                	beqz	a5,28ca <_Z10WriteTrackP7adfTYPE+0x32>
    2958:	85be                	mv	a1,a5
    295a:	bf69                	j	28f4 <_Z10WriteTrackP7adfTYPE+0x5c>
    295c:	6515                	lui	a0,0x5
    295e:	47f9                	li	a5,30
    2960:	64b1                	lui	s1,0xc
    2962:	a4850513          	addi	a0,a0,-1464 # 4a48 <_ZL13mapHidToAmiga+0x330>
    2966:	72f48823          	sb	a5,1840(s1) # c730 <Error>
    296a:	311000ef          	jal	ra,347a <riscprintf_>
    296e:	7304c783          	lbu	a5,1840(s1)
    2972:	dfa1                	beqz	a5,28ca <_Z10WriteTrackP7adfTYPE+0x32>
    2974:	b7d5                	j	2958 <_Z10WriteTrackP7adfTYPE+0xc0>

00002976 <_Z9ReadTrackP7adfTYPE>:
    2976:	715d                	addi	sp,sp,-80
    2978:	c2a6                	sw	s1,68(sp)
    297a:	c686                	sw	ra,76(sp)
    297c:	c4a2                	sw	s0,72(sp)
    297e:	c0ca                	sw	s2,64(sp)
    2980:	de4e                	sw	s3,60(sp)
    2982:	dc52                	sw	s4,56(sp)
    2984:	da56                	sw	s5,52(sp)
    2986:	d85a                	sw	s6,48(sp)
    2988:	d65e                	sw	s7,44(sp)
    298a:	d462                	sw	s8,40(sp)
    298c:	d266                	sw	s9,36(sp)
    298e:	d06a                	sw	s10,32(sp)
    2990:	ce6e                	sw	s11,28(sp)
    2992:	01154583          	lbu	a1,17(a0)
    2996:	455c                	lw	a5,12(a0)
    2998:	84aa                	mv	s1,a0
    299a:	24f5fe63          	bgeu	a1,a5,2bf6 <_Z9ReadTrackP7adfTYPE+0x280>
    299e:	4401                	li	s0,0
    29a0:	4090                	lw	a2,0(s1)
    29a2:	400c                	lw	a1,0(s0)
    29a4:	6515                	lui	a0,0x5
    29a6:	aa850513          	addi	a0,a0,-1368 # 4aa8 <_ZL13mapHidToAmiga+0x390>
    29aa:	2d1000ef          	jal	ra,347a <riscprintf_>
    29ae:	0114c603          	lbu	a2,17(s1)
    29b2:	01104583          	lbu	a1,17(zero) # 11 <ipc_vector+0x9>
    29b6:	6515                	lui	a0,0x5
    29b8:	abc50513          	addi	a0,a0,-1348 # 4abc <_ZL13mapHidToAmiga+0x3a4>
    29bc:	2bf000ef          	jal	ra,347a <riscprintf_>
    29c0:	0084c603          	lbu	a2,8(s1)
    29c4:	00804583          	lbu	a1,8(zero) # 8 <ipc_vector>
    29c8:	6515                	lui	a0,0x5
    29ca:	acc50513          	addi	a0,a0,-1332 # 4acc <_ZL13mapHidToAmiga+0x3b4>
    29ce:	2ad000ef          	jal	ra,347a <riscprintf_>
    29d2:	0114c783          	lbu	a5,17(s1)
    29d6:	408c                	lw	a1,0(s1)
    29d8:	0124c683          	lbu	a3,18(s1)
    29dc:	4010                	lw	a2,0(s0)
    29de:	01144703          	lbu	a4,17(s0)
    29e2:	8e9d                	sub	a3,a3,a5
    29e4:	8e0d                	sub	a2,a2,a1
    29e6:	0016b693          	seqz	a3,a3
    29ea:	00163613          	seqz	a2,a2
    29ee:	8f1d                	sub	a4,a4,a5
    29f0:	8ef1                	and	a3,a3,a2
    29f2:	00173713          	seqz	a4,a4
    29f6:	8f75                	and	a4,a4,a3
    29f8:	0084c683          	lbu	a3,8(s1)
    29fc:	18070e63          	beqz	a4,2b98 <_Z9ReadTrackP7adfTYPE+0x222>
    2a00:	00804703          	lbu	a4,8(zero) # 8 <ipc_vector>
    2a04:	18d71a63          	bne	a4,a3,2b98 <_Z9ReadTrackP7adfTYPE+0x222>
    2a08:	6515                	lui	a0,0x5
    2a0a:	adc50513          	addi	a0,a0,-1316 # 4adc <_ZL13mapHidToAmiga+0x3c4>
    2a0e:	0104c403          	lbu	s0,16(s1)
    2a12:	269000ef          	jal	ra,347a <riscprintf_>
    2a16:	26c5                	jal	2df6 <_Z14HPS_EnableFpgav>
    2a18:	4501                	li	a0,0
    2a1a:	2981                	jal	2e6a <_Z12HPS_fpga_spit>
    2a1c:	4501                	li	a0,0
    2a1e:	21b1                	jal	2e6a <_Z12HPS_fpga_spit>
    2a20:	4501                	li	a0,0
    2a22:	21a1                	jal	2e6a <_Z12HPS_fpga_spit>
    2a24:	2ec5                	jal	2e14 <_Z15HPS_DisableFpgav>
    2a26:	67ad                	lui	a5,0xb
    2a28:	6ba5                	lui	s7,0x9
    2a2a:	ec878993          	addi	s3,a5,-312 # aec8 <sector_bufferfdd0>
    2a2e:	914b8793          	addi	a5,s7,-1772 # 8914 <sector_buffer+0x1b1c>
    2a32:	c43e                	sw	a5,8(sp)
    2a34:	67a9                	lui	a5,0xa
    2a36:	682d                	lui	a6,0xb
    2a38:	6b11                	lui	s6,0x4
    2a3a:	14478793          	addi	a5,a5,324 # a144 <sector_buffer+0x334c>
    2a3e:	6a15                	lui	s4,0x5
    2a40:	0c880c13          	addi	s8,a6,200 # b0c8 <sector_bufferfdd1>
    2a44:	6915                	lui	s2,0x5
    2a46:	20000c93          	li	s9,512
    2a4a:	489b0b13          	addi	s6,s6,1161 # 4489 <strlen+0x40b>
    2a4e:	c63e                	sw	a5,12(sp)
    2a50:	4aa9                	li	s5,10
    2a52:	85a2                	mv	a1,s0
    2a54:	b14a0513          	addi	a0,s4,-1260 # 4b14 <_ZL13mapHidToAmiga+0x3fc>
    2a58:	223000ef          	jal	ra,347a <riscprintf_>
    2a5c:	00941593          	slli	a1,s0,0x9
    2a60:	86ce                	mv	a3,s3
    2a62:	4781                	li	a5,0
    2a64:	00b7e733          	or	a4,a5,a1
    2a68:	9762                	add	a4,a4,s8
    2a6a:	00074703          	lbu	a4,0(a4)
    2a6e:	0785                	addi	a5,a5,1
    2a70:	0685                	addi	a3,a3,1
    2a72:	fee68fa3          	sb	a4,-1(a3)
    2a76:	ff9797e3          	bne	a5,s9,2a64 <_Z9ReadTrackP7adfTYPE+0xee>
    2a7a:	b2090513          	addi	a0,s2,-1248 # 4b20 <_ZL13mapHidToAmiga+0x408>
    2a7e:	1fd000ef          	jal	ra,347a <riscprintf_>
    2a82:	2e95                	jal	2df6 <_Z14HPS_EnableFpgav>
    2a84:	4501                	li	a0,0
    2a86:	26d5                	jal	2e6a <_Z12HPS_fpga_spit>
    2a88:	8d2a                	mv	s10,a0
    2a8a:	00855d93          	srli	s11,a0,0x8
    2a8e:	4501                	li	a0,0
    2a90:	2ee9                	jal	2e6a <_Z12HPS_fpga_spit>
    2a92:	8baa                	mv	s7,a0
    2a94:	4501                	li	a0,0
    2a96:	2ed1                	jal	2e6a <_Z12HPS_fpga_spit>
    2a98:	44dc                	lw	a5,12(s1)
    2a9a:	0ffd7d13          	zext.b	s10,s10
    2a9e:	0ffdfd93          	zext.b	s11,s11
    2aa2:	00fd6563          	bltu	s10,a5,2aac <_Z9ReadTrackP7adfTYPE+0x136>
    2aa6:	17fd                	addi	a5,a5,-1
    2aa8:	0ff7fd13          	zext.b	s10,a5
    2aac:	060b8b63          	beqz	s7,2b22 <_Z9ReadTrackP7adfTYPE+0x1ac>
    2ab0:	47a2                	lw	a5,8(sp)
    2ab2:	06fb8863          	beq	s7,a5,2b22 <_Z9ReadTrackP7adfTYPE+0x1ac>
    2ab6:	47b2                	lw	a5,12(sp)
    2ab8:	06fb8563          	beq	s7,a5,2b22 <_Z9ReadTrackP7adfTYPE+0x1ac>
    2abc:	0114c783          	lbu	a5,17(s1)
    2ac0:	07a78663          	beq	a5,s10,2b2c <_Z9ReadTrackP7adfTYPE+0x1b6>
    2ac4:	2e81                	jal	2e14 <_Z15HPS_DisableFpgav>
    2ac6:	0114c783          	lbu	a5,17(s1)
    2aca:	0ba79863          	bne	a5,s10,2b7a <_Z9ReadTrackP7adfTYPE+0x204>
    2ace:	001dfd93          	andi	s11,s11,1
    2ad2:	0a0d8463          	beqz	s11,2b7a <_Z9ReadTrackP7adfTYPE+0x204>
    2ad6:	0405                	addi	s0,s0,1
    2ad8:	0ff47413          	zext.b	s0,s0
    2adc:	028aeb63          	bltu	s5,s0,2b12 <_Z9ReadTrackP7adfTYPE+0x19c>
    2ae0:	00848823          	sb	s0,16(s1)
    2ae4:	3e800513          	li	a0,1000
    2ae8:	783000ef          	jal	ra,3a6a <_Z10riscusleepi>
    2aec:	b79d                	j	2a52 <_Z9ReadTrackP7adfTYPE+0xdc>
    2aee:	642d                	lui	s0,0xb
    2af0:	15e00d93          	li	s11,350
    2af4:	aaa40413          	addi	s0,s0,-1366 # aaaa <sector_buffer+0x3cb2>
    2af8:	1dfd                	addi	s11,s11,-1
    2afa:	0dc2                	slli	s11,s11,0x10
    2afc:	8522                	mv	a0,s0
    2afe:	010ddd93          	srli	s11,s11,0x10
    2b02:	26a5                	jal	2e6a <_Z12HPS_fpga_spit>
    2b04:	fe0d9ae3          	bnez	s11,2af8 <_Z9ReadTrackP7adfTYPE+0x182>
    2b08:	2631                	jal	2e14 <_Z15HPS_DisableFpgav>
    2b0a:	0114c783          	lbu	a5,17(s1)
    2b0e:	07a79663          	bne	a5,s10,2b7a <_Z9ReadTrackP7adfTYPE+0x204>
    2b12:	4401                	li	s0,0
    2b14:	00848823          	sb	s0,16(s1)
    2b18:	3e800513          	li	a0,1000
    2b1c:	74f000ef          	jal	ra,3a6a <_Z10riscusleepi>
    2b20:	bf0d                	j	2a52 <_Z9ReadTrackP7adfTYPE+0xdc>
    2b22:	0114c783          	lbu	a5,17(s1)
    2b26:	8bda                	mv	s7,s6
    2b28:	f9a79ee3          	bne	a5,s10,2ac4 <_Z9ReadTrackP7adfTYPE+0x14e>
    2b2c:	001dfd93          	andi	s11,s11,1
    2b30:	020d9163          	bnez	s11,2b52 <_Z9ReadTrackP7adfTYPE+0x1dc>
    2b34:	4426                	lw	s0,72(sp)
    2b36:	40b6                	lw	ra,76(sp)
    2b38:	4496                	lw	s1,68(sp)
    2b3a:	4906                	lw	s2,64(sp)
    2b3c:	59f2                	lw	s3,60(sp)
    2b3e:	5a62                	lw	s4,56(sp)
    2b40:	5ad2                	lw	s5,52(sp)
    2b42:	5b42                	lw	s6,48(sp)
    2b44:	5bb2                	lw	s7,44(sp)
    2b46:	5c22                	lw	s8,40(sp)
    2b48:	5c92                	lw	s9,36(sp)
    2b4a:	5d02                	lw	s10,32(sp)
    2b4c:	4df2                	lw	s11,28(sp)
    2b4e:	6161                	addi	sp,sp,80
    2b50:	a4d1                	j	2e14 <_Z15HPS_DisableFpgav>
    2b52:	008bd693          	srli	a3,s7,0x8
    2b56:	67ad                	lui	a5,0xb
    2b58:	0ffbf713          	zext.b	a4,s7
    2b5c:	0ff6f693          	zext.b	a3,a3
    2b60:	866a                	mv	a2,s10
    2b62:	85a2                	mv	a1,s0
    2b64:	ec878513          	addi	a0,a5,-312 # aec8 <sector_bufferfdd0>
    2b68:	b4fff0ef          	jal	ra,26b6 <_Z10SendSectorPhhhhh>
    2b6c:	f95401e3          	beq	s0,s5,2aee <_Z9ReadTrackP7adfTYPE+0x178>
    2b70:	2455                	jal	2e14 <_Z15HPS_DisableFpgav>
    2b72:	0114c783          	lbu	a5,17(s1)
    2b76:	f7a780e3          	beq	a5,s10,2ad6 <_Z9ReadTrackP7adfTYPE+0x160>
    2b7a:	40b6                	lw	ra,76(sp)
    2b7c:	4426                	lw	s0,72(sp)
    2b7e:	4496                	lw	s1,68(sp)
    2b80:	4906                	lw	s2,64(sp)
    2b82:	59f2                	lw	s3,60(sp)
    2b84:	5a62                	lw	s4,56(sp)
    2b86:	5ad2                	lw	s5,52(sp)
    2b88:	5b42                	lw	s6,48(sp)
    2b8a:	5bb2                	lw	s7,44(sp)
    2b8c:	5c22                	lw	s8,40(sp)
    2b8e:	5c92                	lw	s9,36(sp)
    2b90:	5d02                	lw	s10,32(sp)
    2b92:	4df2                	lw	s11,28(sp)
    2b94:	6161                	addi	sp,sp,80
    2b96:	8082                	ret
    2b98:	4401                	li	s0,0
    2b9a:	00f48923          	sb	a5,18(s1)
    2b9e:	00048823          	sb	zero,16(s1)
    2ba2:	40d0                	lw	a2,4(s1)
    2ba4:	00d40423          	sb	a3,8(s0)
    2ba8:	44d4                	lw	a3,12(s1)
    2baa:	00179713          	slli	a4,a5,0x1
    2bae:	973e                	add	a4,a4,a5
    2bb0:	6515                	lui	a0,0x5
    2bb2:	070a                	slli	a4,a4,0x2
    2bb4:	c00c                	sw	a1,0(s0)
    2bb6:	c050                	sw	a2,4(s0)
    2bb8:	c454                	sw	a3,12(s0)
    2bba:	00040823          	sb	zero,16(s0)
    2bbe:	00f408a3          	sb	a5,17(s0)
    2bc2:	00f40923          	sb	a5,18(s0)
    2bc6:	af450513          	addi	a0,a0,-1292 # 4af4 <_ZL13mapHidToAmiga+0x3dc>
    2bca:	40f70433          	sub	s0,a4,a5
    2bce:	0ad000ef          	jal	ra,347a <riscprintf_>
    2bd2:	b52ff0ef          	jal	ra,1f24 <_Z14dataslot_readyv>
    2bd6:	dd75                	beqz	a0,2bd2 <_Z9ReadTrackP7adfTYPE+0x25c>
    2bd8:	0004d503          	lhu	a0,0(s1)
    2bdc:	6685                	lui	a3,0x1
    2bde:	65ad                	lui	a1,0xb
    2be0:	60068693          	addi	a3,a3,1536 # 1600 <_Z11ide_img_setmtiiii+0x312>
    2be4:	00941613          	slli	a2,s0,0x9
    2be8:	0c858593          	addi	a1,a1,200 # b0c8 <sector_bufferfdd1>
    2bec:	bceff0ef          	jal	ra,1fba <_Z13dataslot_readtmmm>
    2bf0:	f549                	bnez	a0,2b7a <_Z9ReadTrackP7adfTYPE+0x204>
    2bf2:	4401                	li	s0,0
    2bf4:	b50d                	j	2a16 <_Z9ReadTrackP7adfTYPE+0xa0>
    2bf6:	6515                	lui	a0,0x5
    2bf8:	a9050513          	addi	a0,a0,-1392 # 4a90 <_ZL13mapHidToAmiga+0x378>
    2bfc:	07f000ef          	jal	ra,347a <riscprintf_>
    2c00:	44dc                	lw	a5,12(s1)
    2c02:	17fd                	addi	a5,a5,-1
    2c04:	00f488a3          	sb	a5,17(s1)
    2c08:	bb59                	j	299e <_Z9ReadTrackP7adfTYPE+0x28>

00002c0a <UpdateDriveStatus_fdd>:
    2c0a:	1141                	addi	sp,sp,-16
    2c0c:	c422                	sw	s0,8(sp)
    2c0e:	6431                	lui	s0,0xc
    2c10:	6c840413          	addi	s0,s0,1736 # c6c8 <df>
    2c14:	c606                	sw	ra,12(sp)
    2c16:	22c5                	jal	2df6 <_Z14HPS_EnableFpgav>
    2c18:	01c44503          	lbu	a0,28(s0)
    2c1c:	04444703          	lbu	a4,68(s0)
    2c20:	00844683          	lbu	a3,8(s0)
    2c24:	03044783          	lbu	a5,48(s0)
    2c28:	070e                	slli	a4,a4,0x3
    2c2a:	0506                	slli	a0,a0,0x1
    2c2c:	8d59                	or	a0,a0,a4
    2c2e:	8d55                	or	a0,a0,a3
    2c30:	078a                	slli	a5,a5,0x2
    2c32:	8d5d                	or	a0,a0,a5
    2c34:	6785                	lui	a5,0x1
    2c36:	8d5d                	or	a0,a0,a5
    2c38:	0542                	slli	a0,a0,0x10
    2c3a:	8141                	srli	a0,a0,0x10
    2c3c:	243d                	jal	2e6a <_Z12HPS_fpga_spit>
    2c3e:	00844583          	lbu	a1,8(s0)
    2c42:	6515                	lui	a0,0x5
    2c44:	b3450513          	addi	a0,a0,-1228 # 4b34 <_ZL13mapHidToAmiga+0x41c>
    2c48:	033000ef          	jal	ra,347a <riscprintf_>
    2c4c:	01c44583          	lbu	a1,28(s0)
    2c50:	6515                	lui	a0,0x5
    2c52:	b4c50513          	addi	a0,a0,-1204 # 4b4c <_ZL13mapHidToAmiga+0x434>
    2c56:	025000ef          	jal	ra,347a <riscprintf_>
    2c5a:	03044583          	lbu	a1,48(s0)
    2c5e:	6515                	lui	a0,0x5
    2c60:	b6450513          	addi	a0,a0,-1180 # 4b64 <_ZL13mapHidToAmiga+0x44c>
    2c64:	017000ef          	jal	ra,347a <riscprintf_>
    2c68:	04444583          	lbu	a1,68(s0)
    2c6c:	6515                	lui	a0,0x5
    2c6e:	b7c50513          	addi	a0,a0,-1156 # 4b7c <_ZL13mapHidToAmiga+0x464>
    2c72:	009000ef          	jal	ra,347a <riscprintf_>
    2c76:	01c44783          	lbu	a5,28(s0)
    2c7a:	04444683          	lbu	a3,68(s0)
    2c7e:	00844603          	lbu	a2,8(s0)
    2c82:	03044703          	lbu	a4,48(s0)
    2c86:	068e                	slli	a3,a3,0x3
    2c88:	0786                	slli	a5,a5,0x1
    2c8a:	8fd5                	or	a5,a5,a3
    2c8c:	8fd1                	or	a5,a5,a2
    2c8e:	070a                	slli	a4,a4,0x2
    2c90:	8fd9                	or	a5,a5,a4
    2c92:	6585                	lui	a1,0x1
    2c94:	6515                	lui	a0,0x5
    2c96:	8ddd                	or	a1,a1,a5
    2c98:	b9450513          	addi	a0,a0,-1132 # 4b94 <_ZL13mapHidToAmiga+0x47c>
    2c9c:	7de000ef          	jal	ra,347a <riscprintf_>
    2ca0:	2a95                	jal	2e14 <_Z15HPS_DisableFpgav>
    2ca2:	4781                	li	a5,0
    2ca4:	00078423          	sb	zero,8(a5) # 1008 <_ZL10handle_hddP10ide_config+0x192>
    2ca8:	00079823          	sh	zero,16(a5)
    2cac:	00078923          	sb	zero,18(a5)
    2cb0:	40b2                	lw	ra,12(sp)
    2cb2:	4422                	lw	s0,8(sp)
    2cb4:	0007a023          	sw	zero,0(a5)
    2cb8:	0007a223          	sw	zero,4(a5)
    2cbc:	0007a623          	sw	zero,12(a5)
    2cc0:	0141                	addi	sp,sp,16
    2cc2:	8082                	ret

00002cc4 <UnsertFloppy>:
    2cc4:	1141                	addi	sp,sp,-16
    2cc6:	c422                	sw	s0,8(sp)
    2cc8:	842a                	mv	s0,a0
    2cca:	6515                	lui	a0,0x5
    2ccc:	bb050513          	addi	a0,a0,-1104 # 4bb0 <_ZL13mapHidToAmiga+0x498>
    2cd0:	c606                	sw	ra,12(sp)
    2cd2:	7a8000ef          	jal	ra,347a <riscprintf_>
    2cd6:	00040423          	sb	zero,8(s0)
    2cda:	00041823          	sh	zero,16(s0)
    2cde:	00040923          	sb	zero,18(s0)
    2ce2:	00042023          	sw	zero,0(s0)
    2ce6:	00042223          	sw	zero,4(s0)
    2cea:	00042623          	sw	zero,12(s0)
    2cee:	4422                	lw	s0,8(sp)
    2cf0:	40b2                	lw	ra,12(sp)
    2cf2:	0141                	addi	sp,sp,16
    2cf4:	f17ff06f          	j	2c0a <UpdateDriveStatus_fdd>

00002cf8 <RemoveDriveStatus>:
    2cf8:	1141                	addi	sp,sp,-16
    2cfa:	c606                	sw	ra,12(sp)
    2cfc:	28ed                	jal	2df6 <_Z14HPS_EnableFpgav>
    2cfe:	6505                	lui	a0,0x1
    2d00:	22ad                	jal	2e6a <_Z12HPS_fpga_spit>
    2d02:	40b2                	lw	ra,12(sp)
    2d04:	0141                	addi	sp,sp,16
    2d06:	a239                	j	2e14 <_Z15HPS_DisableFpgav>

00002d08 <HandleFDD>:
    2d08:	00455793          	srli	a5,a0,0x4
    2d0c:	8b8d                	andi	a5,a5,3
    2d0e:	6731                	lui	a4,0xc
    2d10:	72f708a3          	sb	a5,1841(a4) # c731 <drives>
    2d14:	00157793          	andi	a5,a0,1
    2d18:	862e                	mv	a2,a1
    2d1a:	e395                	bnez	a5,2d3e <HandleFDD+0x36>
    2d1c:	00257793          	andi	a5,a0,2
    2d20:	e391                	bnez	a5,2d24 <HandleFDD+0x1c>
    2d22:	8082                	ret
    2d24:	8119                	srli	a0,a0,0x6
    2d26:	00251793          	slli	a5,a0,0x2
    2d2a:	97aa                	add	a5,a5,a0
    2d2c:	6531                	lui	a0,0xc
    2d2e:	078a                	slli	a5,a5,0x2
    2d30:	6c850513          	addi	a0,a0,1736 # c6c8 <df>
    2d34:	953e                	add	a0,a0,a5
    2d36:	00b508a3          	sb	a1,17(a0)
    2d3a:	b5fff06f          	j	2898 <_Z10WriteTrackP7adfTYPE>
    2d3e:	00655593          	srli	a1,a0,0x6
    2d42:	1141                	addi	sp,sp,-16
    2d44:	00259793          	slli	a5,a1,0x2
    2d48:	c422                	sw	s0,8(sp)
    2d4a:	97ae                	add	a5,a5,a1
    2d4c:	6431                	lui	s0,0xc
    2d4e:	078a                	slli	a5,a5,0x2
    2d50:	6c840413          	addi	s0,s0,1736 # c6c8 <df>
    2d54:	6515                	lui	a0,0x5
    2d56:	c606                	sw	ra,12(sp)
    2d58:	943e                	add	s0,s0,a5
    2d5a:	bbc50513          	addi	a0,a0,-1092 # 4bbc <_ZL13mapHidToAmiga+0x4a4>
    2d5e:	00c408a3          	sb	a2,17(s0)
    2d62:	2de010ef          	jal	ra,4040 <printf>
    2d66:	8522                	mv	a0,s0
    2d68:	4422                	lw	s0,8(sp)
    2d6a:	40b2                	lw	ra,12(sp)
    2d6c:	0141                	addi	sp,sp,16
    2d6e:	c09ff06f          	j	2976 <_Z9ReadTrackP7adfTYPE>

00002d72 <InsertFloppy>:
    2d72:	1141                	addi	sp,sp,-16
    2d74:	c422                	sw	s0,8(sp)
    2d76:	c606                	sw	ra,12(sp)
    2d78:	000e6737          	lui	a4,0xe6
    2d7c:	6785                	lui	a5,0x1
    2d7e:	60078793          	addi	a5,a5,1536 # 1600 <_Z11ide_img_setmtiiii+0x312>
    2d82:	c110                	sw	a2,0(a0)
    2d84:	c14c                	sw	a1,4(a0)
    2d86:	9ff70713          	addi	a4,a4,-1537 # e59ff <MEM_SIZE+0xc59ff>
    2d8a:	02f5d7b3          	divu	a5,a1,a5
    2d8e:	842a                	mv	s0,a0
    2d90:	04b76b63          	bltu	a4,a1,2de6 <InsertFloppy+0x74>
    2d94:	c45c                	sw	a5,12(s0)
    2d96:	47c5                	li	a5,17
    2d98:	00f40423          	sb	a5,8(s0)
    2d9c:	6515                	lui	a0,0x5
    2d9e:	57fd                	li	a5,-1
    2da0:	00f40923          	sb	a5,18(s0)
    2da4:	4585                	li	a1,1
    2da6:	00041823          	sh	zero,16(s0)
    2daa:	c1450513          	addi	a0,a0,-1004 # 4c14 <_ZL13mapHidToAmiga+0x4fc>
    2dae:	25f1                	jal	347a <riscprintf_>
    2db0:	404c                	lw	a1,4(s0)
    2db2:	6515                	lui	a0,0x5
    2db4:	c2850513          	addi	a0,a0,-984 # 4c28 <_ZL13mapHidToAmiga+0x510>
    2db8:	00a5d613          	srli	a2,a1,0xa
    2dbc:	2d7d                	jal	347a <riscprintf_>
    2dbe:	444c                	lw	a1,12(s0)
    2dc0:	6515                	lui	a0,0x5
    2dc2:	c4450513          	addi	a0,a0,-956 # 4c44 <_ZL13mapHidToAmiga+0x52c>
    2dc6:	2d55                	jal	347a <riscprintf_>
    2dc8:	01244583          	lbu	a1,18(s0)
    2dcc:	6515                	lui	a0,0x5
    2dce:	c5850513          	addi	a0,a0,-936 # 4c58 <_ZL13mapHidToAmiga+0x540>
    2dd2:	2565                	jal	347a <riscprintf_>
    2dd4:	00844583          	lbu	a1,8(s0)
    2dd8:	4422                	lw	s0,8(sp)
    2dda:	40b2                	lw	ra,12(sp)
    2ddc:	6515                	lui	a0,0x5
    2dde:	c7050513          	addi	a0,a0,-912 # 4c70 <_ZL13mapHidToAmiga+0x558>
    2de2:	0141                	addi	sp,sp,16
    2de4:	ad59                	j	347a <riscprintf_>
    2de6:	6515                	lui	a0,0x5
    2de8:	85be                	mv	a1,a5
    2dea:	be450513          	addi	a0,a0,-1052 # 4be4 <_ZL13mapHidToAmiga+0x4cc>
    2dee:	2571                	jal	347a <riscprintf_>
    2df0:	0a600793          	li	a5,166
    2df4:	b745                	j	2d94 <InsertFloppy+0x22>

00002df6 <_Z14HPS_EnableFpgav>:
    2df6:	1141                	addi	sp,sp,-16
    2df8:	c606                	sw	ra,12(sp)
    2dfa:	2c1d                	jal	3030 <_Z17DisableInterruptsv>
    2dfc:	fd000713          	li	a4,-48
    2e00:	431c                	lw	a5,0(a4)
    2e02:	0001                	nop
    2e04:	0001                	nop
    2e06:	800406b7          	lui	a3,0x80040
    2e0a:	40b2                	lw	ra,12(sp)
    2e0c:	8fd5                	or	a5,a5,a3
    2e0e:	c31c                	sw	a5,0(a4)
    2e10:	0141                	addi	sp,sp,16
    2e12:	8082                	ret

00002e14 <_Z15HPS_DisableFpgav>:
    2e14:	fd000693          	li	a3,-48
    2e18:	429c                	lw	a5,0(a3)
    2e1a:	0001                	nop
    2e1c:	0001                	nop
    2e1e:	fffc0737          	lui	a4,0xfffc0
    2e22:	177d                	addi	a4,a4,-1 # fffbffff <MEM_SIZE+0xfff9ffff>
    2e24:	8ff9                	and	a5,a5,a4
    2e26:	80000737          	lui	a4,0x80000
    2e2a:	8fd9                	or	a5,a5,a4
    2e2c:	c29c                	sw	a5,0(a3)
    2e2e:	a2f5                	j	301a <_Z16EnableInterruptsv>

00002e30 <_Z12HPS_EnableIOv>:
    2e30:	1141                	addi	sp,sp,-16
    2e32:	c606                	sw	ra,12(sp)
    2e34:	2af5                	jal	3030 <_Z17DisableInterruptsv>
    2e36:	fd000713          	li	a4,-48
    2e3a:	431c                	lw	a5,0(a4)
    2e3c:	0001                	nop
    2e3e:	0001                	nop
    2e40:	801006b7          	lui	a3,0x80100
    2e44:	40b2                	lw	ra,12(sp)
    2e46:	8fd5                	or	a5,a5,a3
    2e48:	c31c                	sw	a5,0(a4)
    2e4a:	0141                	addi	sp,sp,16
    2e4c:	8082                	ret

00002e4e <_Z13HPS_DisableIOv>:
    2e4e:	fd000693          	li	a3,-48
    2e52:	429c                	lw	a5,0(a3)
    2e54:	0001                	nop
    2e56:	0001                	nop
    2e58:	fff00737          	lui	a4,0xfff00
    2e5c:	177d                	addi	a4,a4,-1 # ffefffff <MEM_SIZE+0xffedffff>
    2e5e:	8ff9                	and	a5,a5,a4
    2e60:	80000737          	lui	a4,0x80000
    2e64:	8fd9                	or	a5,a5,a4
    2e66:	c29c                	sw	a5,0(a3)
    2e68:	aa4d                	j	301a <_Z16EnableInterruptsv>

00002e6a <_Z12HPS_fpga_spit>:
    2e6a:	fd002683          	lw	a3,-48(zero) # ffffffd0 <MEM_SIZE+0xfffdffd0>
    2e6e:	0001                	nop
    2e70:	0001                	nop
    2e72:	fffd07b7          	lui	a5,0xfffd0
    2e76:	8efd                	and	a3,a3,a5
    2e78:	8ec9                	or	a3,a3,a0
    2e7a:	0001                	nop
    2e7c:	000207b7          	lui	a5,0x20
    2e80:	fcd02823          	sw	a3,-48(zero) # ffffffd0 <MEM_SIZE+0xfffdffd0>
    2e84:	8fd5                	or	a5,a5,a3
    2e86:	fcf02823          	sw	a5,-48(zero) # ffffffd0 <MEM_SIZE+0xfffdffd0>
    2e8a:	00020737          	lui	a4,0x20
    2e8e:	fd402783          	lw	a5,-44(zero) # ffffffd4 <MEM_SIZE+0xfffdffd4>
    2e92:	0001                	nop
    2e94:	0001                	nop
    2e96:	8ff9                	and	a5,a5,a4
    2e98:	dbfd                	beqz	a5,2e8e <_Z12HPS_fpga_spit+0x24>
    2e9a:	fcd02823          	sw	a3,-48(zero) # ffffffd0 <MEM_SIZE+0xfffdffd0>
    2e9e:	00020737          	lui	a4,0x20
    2ea2:	fd402503          	lw	a0,-44(zero) # ffffffd4 <MEM_SIZE+0xfffdffd4>
    2ea6:	0001                	nop
    2ea8:	0001                	nop
    2eaa:	00e577b3          	and	a5,a0,a4
    2eae:	fbf5                	bnez	a5,2ea2 <_Z12HPS_fpga_spit+0x38>
    2eb0:	0542                	slli	a0,a0,0x10
    2eb2:	8141                	srli	a0,a0,0x10
    2eb4:	8082                	ret

00002eb6 <_Z7spi32_wm>:
    2eb6:	1141                	addi	sp,sp,-16
    2eb8:	c422                	sw	s0,8(sp)
    2eba:	842a                	mv	s0,a0
    2ebc:	0542                	slli	a0,a0,0x10
    2ebe:	8141                	srli	a0,a0,0x10
    2ec0:	c606                	sw	ra,12(sp)
    2ec2:	fa9ff0ef          	jal	ra,2e6a <_Z12HPS_fpga_spit>
    2ec6:	87aa                	mv	a5,a0
    2ec8:	01045513          	srli	a0,s0,0x10
    2ecc:	843e                	mv	s0,a5
    2ece:	f9dff0ef          	jal	ra,2e6a <_Z12HPS_fpga_spit>
    2ed2:	0542                	slli	a0,a0,0x10
    2ed4:	40b2                	lw	ra,12(sp)
    2ed6:	8d41                	or	a0,a0,s0
    2ed8:	4422                	lw	s0,8(sp)
    2eda:	0141                	addi	sp,sp,16
    2edc:	8082                	ret

00002ede <_Z16HPS_spi_uio_cmd8hh>:
    2ede:	1141                	addi	sp,sp,-16
    2ee0:	c422                	sw	s0,8(sp)
    2ee2:	c226                	sw	s1,4(sp)
    2ee4:	c04a                	sw	s2,0(sp)
    2ee6:	c606                	sw	ra,12(sp)
    2ee8:	fd000413          	li	s0,-48
    2eec:	892a                	mv	s2,a0
    2eee:	84ae                	mv	s1,a1
    2ef0:	2281                	jal	3030 <_Z17DisableInterruptsv>
    2ef2:	401c                	lw	a5,0(s0)
    2ef4:	0001                	nop
    2ef6:	0001                	nop
    2ef8:	80100737          	lui	a4,0x80100
    2efc:	8fd9                	or	a5,a5,a4
    2efe:	c01c                	sw	a5,0(s0)
    2f00:	4505                	li	a0,1
    2f02:	369000ef          	jal	ra,3a6a <_Z10riscusleepi>
    2f06:	854a                	mv	a0,s2
    2f08:	f63ff0ef          	jal	ra,2e6a <_Z12HPS_fpga_spit>
    2f0c:	4505                	li	a0,1
    2f0e:	35d000ef          	jal	ra,3a6a <_Z10riscusleepi>
    2f12:	8526                	mv	a0,s1
    2f14:	f57ff0ef          	jal	ra,2e6a <_Z12HPS_fpga_spit>
    2f18:	84aa                	mv	s1,a0
    2f1a:	4505                	li	a0,1
    2f1c:	34f000ef          	jal	ra,3a6a <_Z10riscusleepi>
    2f20:	401c                	lw	a5,0(s0)
    2f22:	0001                	nop
    2f24:	0001                	nop
    2f26:	fff00737          	lui	a4,0xfff00
    2f2a:	177d                	addi	a4,a4,-1 # ffefffff <MEM_SIZE+0xffedffff>
    2f2c:	8ff9                	and	a5,a5,a4
    2f2e:	80000737          	lui	a4,0x80000
    2f32:	8fd9                	or	a5,a5,a4
    2f34:	c01c                	sw	a5,0(s0)
    2f36:	20d5                	jal	301a <_Z16EnableInterruptsv>
    2f38:	40b2                	lw	ra,12(sp)
    2f3a:	4422                	lw	s0,8(sp)
    2f3c:	4902                	lw	s2,0(sp)
    2f3e:	0ff4f513          	zext.b	a0,s1
    2f42:	4492                	lw	s1,4(sp)
    2f44:	0141                	addi	sp,sp,16
    2f46:	8082                	ret

00002f48 <_Z17HPS_fpga_spi_fastt>:
    2f48:	fd000713          	li	a4,-48
    2f4c:	431c                	lw	a5,0(a4)
    2f4e:	fffd06b7          	lui	a3,0xfffd0
    2f52:	8ff5                	and	a5,a5,a3
    2f54:	8d5d                	or	a0,a0,a5
    2f56:	000207b7          	lui	a5,0x20
    2f5a:	c308                	sw	a0,0(a4)
    2f5c:	8fc9                	or	a5,a5,a0
    2f5e:	c31c                	sw	a5,0(a4)
    2f60:	c308                	sw	a0,0(a4)
    2f62:	fd402503          	lw	a0,-44(zero) # ffffffd4 <MEM_SIZE+0xfffdffd4>
    2f66:	0542                	slli	a0,a0,0x10
    2f68:	8141                	srli	a0,a0,0x10
    2f6a:	8082                	ret

00002f6c <_Z29HPS_fpga_spi_fast_block_writePKtm>:
    2f6c:	fd002603          	lw	a2,-48(zero) # ffffffd0 <MEM_SIZE+0xfffdffd0>
    2f70:	fffd07b7          	lui	a5,0xfffd0
    2f74:	fff58713          	addi	a4,a1,-1 # fff <_ZL10handle_hddP10ide_config+0x189>
    2f78:	8e7d                	and	a2,a2,a5
    2f7a:	c585                	beqz	a1,2fa2 <_Z29HPS_fpga_spi_fast_block_writePKtm+0x36>
    2f7c:	00020837          	lui	a6,0x20
    2f80:	55fd                	li	a1,-1
    2f82:	00055783          	lhu	a5,0(a0)
    2f86:	177d                	addi	a4,a4,-1 # 7fffffff <MEM_SIZE+0x7ffdffff>
    2f88:	0509                	addi	a0,a0,2
    2f8a:	8fd1                	or	a5,a5,a2
    2f8c:	fcf02823          	sw	a5,-48(zero) # ffffffd0 <MEM_SIZE+0xfffdffd0>
    2f90:	0107e6b3          	or	a3,a5,a6
    2f94:	fcd02823          	sw	a3,-48(zero) # ffffffd0 <MEM_SIZE+0xfffdffd0>
    2f98:	feb715e3          	bne	a4,a1,2f82 <_Z29HPS_fpga_spi_fast_block_writePKtm+0x16>
    2f9c:	fcf02823          	sw	a5,-48(zero) # ffffffd0 <MEM_SIZE+0xfffdffd0>
    2fa0:	8082                	ret
    2fa2:	87b2                	mv	a5,a2
    2fa4:	fcf02823          	sw	a5,-48(zero) # ffffffd0 <MEM_SIZE+0xfffdffd0>
    2fa8:	8082                	ret

00002faa <_Z28HPS_fpga_spi_fast_block_readPtmb>:
    2faa:	fd002683          	lw	a3,-48(zero) # ffffffd0 <MEM_SIZE+0xfffdffd0>
    2fae:	fffd07b7          	lui	a5,0xfffd0
    2fb2:	00020637          	lui	a2,0x20
    2fb6:	8efd                	and	a3,a3,a5
    2fb8:	fcd02823          	sw	a3,-48(zero) # ffffffd0 <MEM_SIZE+0xfffdffd0>
    2fbc:	fff58793          	addi	a5,a1,-1
    2fc0:	8e55                	or	a2,a2,a3
    2fc2:	587d                	li	a6,-1
    2fc4:	cd89                	beqz	a1,2fde <_Z28HPS_fpga_spi_fast_block_readPtmb+0x34>
    2fc6:	fcc02823          	sw	a2,-48(zero) # ffffffd0 <MEM_SIZE+0xfffdffd0>
    2fca:	fcd02823          	sw	a3,-48(zero) # ffffffd0 <MEM_SIZE+0xfffdffd0>
    2fce:	fd402703          	lw	a4,-44(zero) # ffffffd4 <MEM_SIZE+0xfffdffd4>
    2fd2:	17fd                	addi	a5,a5,-1 # fffcffff <MEM_SIZE+0xfffaffff>
    2fd4:	0509                	addi	a0,a0,2
    2fd6:	fee51f23          	sh	a4,-2(a0)
    2fda:	ff0796e3          	bne	a5,a6,2fc6 <_Z28HPS_fpga_spi_fast_block_readPtmb+0x1c>
    2fde:	8082                	ret

00002fe0 <riscputchar>:
    2fe0:	fc002783          	lw	a5,-64(zero) # ffffffc0 <MEM_SIZE+0xfffdffc0>
    2fe4:	1007f793          	andi	a5,a5,256
    2fe8:	ffe5                	bnez	a5,2fe0 <riscputchar>
    2fea:	fca02023          	sw	a0,-64(zero) # ffffffc0 <MEM_SIZE+0xfffdffc0>
    2fee:	8082                	ret

00002ff0 <SetUART>:
    2ff0:	0a100793          	li	a5,161
    2ff4:	f8f02a23          	sw	a5,-108(zero) # ffffff94 <MEM_SIZE+0xfffdff94>
    2ff8:	8082                	ret

00002ffa <_handle_trap>:
    2ffa:	1141                	addi	sp,sp,-16
    2ffc:	c422                	sw	s0,8(sp)
    2ffe:	c606                	sw	ra,12(sp)
    3000:	5451                	li	s0,-12
    3002:	00042023          	sw	zero,0(s0)
    3006:	b90fd0ef          	jal	ra,396 <_Z17core_input_updatev>
    300a:	4785                	li	a5,1
    300c:	fcf02223          	sw	a5,-60(zero) # ffffffc4 <MEM_SIZE+0xfffdffc4>
    3010:	40b2                	lw	ra,12(sp)
    3012:	c01c                	sw	a5,0(s0)
    3014:	4422                	lw	s0,8(sp)
    3016:	0141                	addi	sp,sp,16
    3018:	8082                	ret

0000301a <_Z16EnableInterruptsv>:
    301a:	4785                	li	a5,1
    301c:	fef02a23          	sw	a5,-12(zero) # fffffff4 <MEM_SIZE+0xfffdfff4>
    3020:	8082                	ret

00003022 <_Z22timer1Interrupts_setupm>:
    3022:	fca02423          	sw	a0,-56(zero) # ffffffc8 <MEM_SIZE+0xfffdffc8>
    3026:	8082                	ret

00003028 <_Z22timer1Interrupts_resetv>:
    3028:	4785                	li	a5,1
    302a:	fcf02223          	sw	a5,-60(zero) # ffffffc4 <MEM_SIZE+0xfffdffc4>
    302e:	8082                	ret

00003030 <_Z17DisableInterruptsv>:
    3030:	fe002a23          	sw	zero,-12(zero) # fffffff4 <MEM_SIZE+0xfffdfff4>
    3034:	8082                	ret

00003036 <_ZL9_out_charcPvjj>:
    3036:	e111                	bnez	a0,303a <_ZL9_out_charcPvjj+0x4>
    3038:	8082                	ret
    303a:	fa7ff06f          	j	2fe0 <riscputchar>

0000303e <_ZL10_ntoa_longPFvcPvjjEPcjjmbmjjj.constprop.0>:
    303e:	715d                	addi	sp,sp,-80
    3040:	4346                	lw	t1,80(sp)
    3042:	c0ca                	sw	s2,64(sp)
    3044:	de4e                	sw	s3,60(sp)
    3046:	dc52                	sw	s4,56(sp)
    3048:	da56                	sw	s5,52(sp)
    304a:	c686                	sw	ra,76(sp)
    304c:	c4a2                	sw	s0,72(sp)
    304e:	c2a6                	sw	s1,68(sp)
    3050:	d85a                	sw	s6,48(sp)
    3052:	d65e                	sw	s7,44(sp)
    3054:	d462                	sw	s8,40(sp)
    3056:	892a                	mv	s2,a0
    3058:	89ae                	mv	s3,a1
    305a:	8a32                	mv	s4,a2
    305c:	8ac6                	mv	s5,a7
    305e:	40037f13          	andi	t5,t1,1024
    3062:	cac5                	beqz	a3,3112 <_ZL10_ntoa_longPFvcPvjjEPcjjmbmjjj.constprop.0+0xd4>
    3064:	01037f93          	andi	t6,t1,16
    3068:	8e9a                	mv	t4,t1
    306a:	020ef613          	andi	a2,t4,32
    306e:	06100513          	li	a0,97
    3072:	12061263          	bnez	a2,3196 <_ZL10_ntoa_longPFvcPvjjEPcjjmbmjjj.constprop.0+0x158>
    3076:	4401                	li	s0,0
    3078:	848a                	mv	s1,sp
    307a:	48a5                	li	a7,9
    307c:	1559                	addi	a0,a0,-10
    307e:	02000e13          	li	t3,32
    3082:	a021                	j	308a <_ZL10_ntoa_longPFvcPvjjEPcjjmbmjjj.constprop.0+0x4c>
    3084:	03c40963          	beq	s0,t3,30b6 <_ZL10_ntoa_longPFvcPvjjEPcjjmbmjjj.constprop.0+0x78>
    3088:	86b2                	mv	a3,a2
    308a:	02f6f633          	remu	a2,a3,a5
    308e:	0ff67313          	zext.b	t1,a2
    3092:	03030593          	addi	a1,t1,48
    3096:	932a                	add	t1,t1,a0
    3098:	0ff37313          	zext.b	t1,t1
    309c:	00c8e463          	bltu	a7,a2,30a4 <_ZL10_ntoa_longPFvcPvjjEPcjjmbmjjj.constprop.0+0x66>
    30a0:	0ff5f313          	zext.b	t1,a1
    30a4:	0405                	addi	s0,s0,1
    30a6:	00848633          	add	a2,s1,s0
    30aa:	fe660fa3          	sb	t1,-1(a2) # 1ffff <_end+0x134c7>
    30ae:	02f6d633          	divu	a2,a3,a5
    30b2:	fcf6f9e3          	bgeu	a3,a5,3084 <_ZL10_ntoa_longPFvcPvjjEPcjjmbmjjj.constprop.0+0x46>
    30b6:	002efb93          	andi	s7,t4,2
    30ba:	060b8863          	beqz	s7,312a <_ZL10_ntoa_longPFvcPvjjEPcjjmbmjjj.constprop.0+0xec>
    30be:	003ef313          	andi	t1,t4,3
    30c2:	100f8d63          	beqz	t6,31dc <_ZL10_ntoa_longPFvcPvjjEPcjjmbmjjj.constprop.0+0x19e>
    30c6:	1e0f1163          	bnez	t5,32a8 <_ZL10_ntoa_longPFvcPvjjEPcjjmbmjjj.constprop.0+0x26a>
    30ca:	22041563          	bnez	s0,32f4 <_ZL10_ntoa_longPFvcPvjjEPcjjmbmjjj.constprop.0+0x2b6>
    30ce:	46c1                	li	a3,16
    30d0:	30d78963          	beq	a5,a3,33e2 <_ZL10_ntoa_longPFvcPvjjEPcjjmbmjjj.constprop.0+0x3a4>
    30d4:	4689                	li	a3,2
    30d6:	32d78763          	beq	a5,a3,3404 <_ZL10_ntoa_longPFvcPvjjEPcjjmbmjjj.constprop.0+0x3c6>
    30da:	03000793          	li	a5,48
    30de:	00f10023          	sb	a5,0(sp)
    30e2:	4685                	li	a3,1
    30e4:	003ef313          	andi	t1,t4,3
    30e8:	1e071163          	bnez	a4,32ca <_ZL10_ntoa_longPFvcPvjjEPcjjmbmjjj.constprop.0+0x28c>
    30ec:	004ef793          	andi	a5,t4,4
    30f0:	28078b63          	beqz	a5,3386 <_ZL10_ntoa_longPFvcPvjjEPcjjmbmjjj.constprop.0+0x348>
    30f4:	02068793          	addi	a5,a3,32 # fffd0020 <MEM_SIZE+0xfffb0020>
    30f8:	978a                	add	a5,a5,sp
    30fa:	02b00713          	li	a4,43
    30fe:	00168413          	addi	s0,a3,1
    3102:	fee78023          	sb	a4,-32(a5)
    3106:	8b52                	mv	s6,s4
    3108:	10031d63          	bnez	t1,3222 <_ZL10_ntoa_longPFvcPvjjEPcjjmbmjjj.constprop.0+0x1e4>
    310c:	0f546063          	bltu	s0,s5,31ec <_ZL10_ntoa_longPFvcPvjjEPcjjmbmjjj.constprop.0+0x1ae>
    3110:	aa09                	j	3222 <_ZL10_ntoa_longPFvcPvjjEPcjjmbmjjj.constprop.0+0x1e4>
    3112:	fef37e93          	andi	t4,t1,-17
    3116:	160f0263          	beqz	t5,327a <_ZL10_ntoa_longPFvcPvjjEPcjjmbmjjj.constprop.0+0x23c>
    311a:	00237b93          	andi	s7,t1,2
    311e:	00337313          	andi	t1,t1,3
    3122:	fc0b93e3          	bnez	s7,30e8 <_ZL10_ntoa_longPFvcPvjjEPcjjmbmjjj.constprop.0+0xaa>
    3126:	4f81                	li	t6,0
    3128:	4401                	li	s0,0
    312a:	140a9a63          	bnez	s5,327e <_ZL10_ntoa_longPFvcPvjjEPcjjmbmjjj.constprop.0+0x240>
    312e:	05047e63          	bgeu	s0,a6,318a <_ZL10_ntoa_longPFvcPvjjEPcjjmbmjjj.constprop.0+0x14c>
    3132:	02000693          	li	a3,32
    3136:	001efb93          	andi	s7,t4,1
    313a:	2cd40f63          	beq	s0,a3,3418 <_ZL10_ntoa_longPFvcPvjjEPcjjmbmjjj.constprop.0+0x3da>
    313e:	848a                	mv	s1,sp
    3140:	03000613          	li	a2,48
    3144:	02000593          	li	a1,32
    3148:	a019                	j	314e <_ZL10_ntoa_longPFvcPvjjEPcjjmbmjjj.constprop.0+0x110>
    314a:	04b40963          	beq	s0,a1,319c <_ZL10_ntoa_longPFvcPvjjEPcjjmbmjjj.constprop.0+0x15e>
    314e:	0405                	addi	s0,s0,1
    3150:	008486b3          	add	a3,s1,s0
    3154:	fec68fa3          	sb	a2,-1(a3)
    3158:	ff0469e3          	bltu	s0,a6,314a <_ZL10_ntoa_longPFvcPvjjEPcjjmbmjjj.constprop.0+0x10c>
    315c:	f60b81e3          	beqz	s7,30be <_ZL10_ntoa_longPFvcPvjjEPcjjmbmjjj.constprop.0+0x80>
    3160:	03547563          	bgeu	s0,s5,318a <_ZL10_ntoa_longPFvcPvjjEPcjjmbmjjj.constprop.0+0x14c>
    3164:	02000693          	li	a3,32
    3168:	848a                	mv	s1,sp
    316a:	03000613          	li	a2,48
    316e:	02000593          	li	a1,32
    3172:	00d41563          	bne	s0,a3,317c <_ZL10_ntoa_longPFvcPvjjEPcjjmbmjjj.constprop.0+0x13e>
    3176:	a03d                	j	31a4 <_ZL10_ntoa_longPFvcPvjjEPcjjmbmjjj.constprop.0+0x166>
    3178:	1cb40f63          	beq	s0,a1,3356 <_ZL10_ntoa_longPFvcPvjjEPcjjmbmjjj.constprop.0+0x318>
    317c:	0405                	addi	s0,s0,1
    317e:	008486b3          	add	a3,s1,s0
    3182:	fec68fa3          	sb	a2,-1(a3)
    3186:	ff5419e3          	bne	s0,s5,3178 <_ZL10_ntoa_longPFvcPvjjEPcjjmbmjjj.constprop.0+0x13a>
    318a:	4b81                	li	s7,0
    318c:	003ef313          	andi	t1,t4,3
    3190:	f20f9be3          	bnez	t6,30c6 <_ZL10_ntoa_longPFvcPvjjEPcjjmbmjjj.constprop.0+0x88>
    3194:	a0a1                	j	31dc <_ZL10_ntoa_longPFvcPvjjEPcjjmbmjjj.constprop.0+0x19e>
    3196:	04100513          	li	a0,65
    319a:	bdf1                	j	3076 <_ZL10_ntoa_longPFvcPvjjEPcjjmbmjjj.constprop.0+0x38>
    319c:	2c0b8463          	beqz	s7,3464 <_ZL10_ntoa_longPFvcPvjjEPcjjmbmjjj.constprop.0+0x426>
    31a0:	1b547b63          	bgeu	s0,s5,3356 <_ZL10_ntoa_longPFvcPvjjEPcjjmbmjjj.constprop.0+0x318>
    31a4:	1e0f8c63          	beqz	t6,339c <_ZL10_ntoa_longPFvcPvjjEPcjjmbmjjj.constprop.0+0x35e>
    31a8:	1a0f1b63          	bnez	t5,335e <_ZL10_ntoa_longPFvcPvjjEPcjjmbmjjj.constprop.0+0x320>
    31ac:	02000693          	li	a3,32
    31b0:	4b81                	li	s7,0
    31b2:	02000413          	li	s0,32
    31b6:	14d81163          	bne	a6,a3,32f8 <_ZL10_ntoa_longPFvcPvjjEPcjjmbmjjj.constprop.0+0x2ba>
    31ba:	46fd                	li	a3,31
    31bc:	4641                	li	a2,16
    31be:	26c78763          	beq	a5,a2,342c <_ZL10_ntoa_longPFvcPvjjEPcjjmbmjjj.constprop.0+0x3ee>
    31c2:	4609                	li	a2,2
    31c4:	003ef313          	andi	t1,t4,3
    31c8:	16c78863          	beq	a5,a2,3338 <_ZL10_ntoa_longPFvcPvjjEPcjjmbmjjj.constprop.0+0x2fa>
    31cc:	02068793          	addi	a5,a3,32
    31d0:	002786b3          	add	a3,a5,sp
    31d4:	03000793          	li	a5,48
    31d8:	fef68023          	sb	a5,-32(a3)
    31dc:	02000793          	li	a5,32
    31e0:	16f41563          	bne	s0,a5,334a <_ZL10_ntoa_longPFvcPvjjEPcjjmbmjjj.constprop.0+0x30c>
    31e4:	0e031163          	bnez	t1,32c6 <_ZL10_ntoa_longPFvcPvjjEPcjjmbmjjj.constprop.0+0x288>
    31e8:	0d547f63          	bgeu	s0,s5,32c6 <_ZL10_ntoa_longPFvcPvjjEPcjjmbmjjj.constprop.0+0x288>
    31ec:	84d2                	mv	s1,s4
    31ee:	41440b33          	sub	s6,s0,s4
    31f2:	8626                	mv	a2,s1
    31f4:	56fd                	li	a3,-1
    31f6:	85ce                	mv	a1,s3
    31f8:	02000513          	li	a0,32
    31fc:	0485                	addi	s1,s1,1
    31fe:	9902                	jalr	s2
    3200:	009b07b3          	add	a5,s6,s1
    3204:	ff57e7e3          	bltu	a5,s5,31f2 <_ZL10_ntoa_longPFvcPvjjEPcjjmbmjjj.constprop.0+0x1b4>
    3208:	00140793          	addi	a5,s0,1
    320c:	4b01                	li	s6,0
    320e:	00fae663          	bltu	s5,a5,321a <_ZL10_ntoa_longPFvcPvjjEPcjjmbmjjj.constprop.0+0x1dc>
    3212:	fffa8b13          	addi	s6,s5,-1
    3216:	408b0b33          	sub	s6,s6,s0
    321a:	001a0793          	addi	a5,s4,1
    321e:	9b3e                	add	s6,s6,a5
    3220:	c005                	beqz	s0,3240 <_ZL10_ntoa_longPFvcPvjjEPcjjmbmjjj.constprop.0+0x202>
    3222:	848a                	mv	s1,sp
    3224:	008b0c33          	add	s8,s6,s0
    3228:	008487b3          	add	a5,s1,s0
    322c:	fff7c503          	lbu	a0,-1(a5)
    3230:	408c0633          	sub	a2,s8,s0
    3234:	56fd                	li	a3,-1
    3236:	147d                	addi	s0,s0,-1
    3238:	85ce                	mv	a1,s3
    323a:	8b62                	mv	s6,s8
    323c:	9902                	jalr	s2
    323e:	f46d                	bnez	s0,3228 <_ZL10_ntoa_longPFvcPvjjEPcjjmbmjjj.constprop.0+0x1ea>
    3240:	020b8063          	beqz	s7,3260 <_ZL10_ntoa_longPFvcPvjjEPcjjmbmjjj.constprop.0+0x222>
    3244:	414b0a33          	sub	s4,s6,s4
    3248:	015a7c63          	bgeu	s4,s5,3260 <_ZL10_ntoa_longPFvcPvjjEPcjjmbmjjj.constprop.0+0x222>
    324c:	865a                	mv	a2,s6
    324e:	0a05                	addi	s4,s4,1
    3250:	56fd                	li	a3,-1
    3252:	85ce                	mv	a1,s3
    3254:	02000513          	li	a0,32
    3258:	0b05                	addi	s6,s6,1
    325a:	9902                	jalr	s2
    325c:	ff5a68e3          	bltu	s4,s5,324c <_ZL10_ntoa_longPFvcPvjjEPcjjmbmjjj.constprop.0+0x20e>
    3260:	40b6                	lw	ra,76(sp)
    3262:	4426                	lw	s0,72(sp)
    3264:	4496                	lw	s1,68(sp)
    3266:	4906                	lw	s2,64(sp)
    3268:	59f2                	lw	s3,60(sp)
    326a:	5a62                	lw	s4,56(sp)
    326c:	5ad2                	lw	s5,52(sp)
    326e:	5bb2                	lw	s7,44(sp)
    3270:	5c22                	lw	s8,40(sp)
    3272:	855a                	mv	a0,s6
    3274:	5b42                	lw	s6,48(sp)
    3276:	6161                	addi	sp,sp,80
    3278:	8082                	ret
    327a:	4f81                	li	t6,0
    327c:	b3fd                	j	306a <_ZL10_ntoa_longPFvcPvjjEPcjjmbmjjj.constprop.0+0x2c>
    327e:	001efb93          	andi	s7,t4,1
    3282:	040b8e63          	beqz	s7,32de <_ZL10_ntoa_longPFvcPvjjEPcjjmbmjjj.constprop.0+0x2a0>
    3286:	e771                	bnez	a4,3352 <_ZL10_ntoa_longPFvcPvjjEPcjjmbmjjj.constprop.0+0x314>
    3288:	00cef693          	andi	a3,t4,12
    328c:	e2f9                	bnez	a3,3352 <_ZL10_ntoa_longPFvcPvjjEPcjjmbmjjj.constprop.0+0x314>
    328e:	ed0479e3          	bgeu	s0,a6,3160 <_ZL10_ntoa_longPFvcPvjjEPcjjmbmjjj.constprop.0+0x122>
    3292:	02000693          	li	a3,32
    3296:	ead414e3          	bne	s0,a3,313e <_ZL10_ntoa_longPFvcPvjjEPcjjmbmjjj.constprop.0+0x100>
    329a:	f15465e3          	bltu	s0,s5,31a4 <_ZL10_ntoa_longPFvcPvjjEPcjjmbmjjj.constprop.0+0x166>
    329e:	1c0f8a63          	beqz	t6,3472 <_ZL10_ntoa_longPFvcPvjjEPcjjmbmjjj.constprop.0+0x434>
    32a2:	4b81                	li	s7,0
    32a4:	e20f03e3          	beqz	t5,30ca <_ZL10_ntoa_longPFvcPvjjEPcjjmbmjjj.constprop.0+0x8c>
    32a8:	46c1                	li	a3,16
    32aa:	003ef313          	andi	t1,t4,3
    32ae:	0ad78c63          	beq	a5,a3,3366 <_ZL10_ntoa_longPFvcPvjjEPcjjmbmjjj.constprop.0+0x328>
    32b2:	4689                	li	a3,2
    32b4:	06d78c63          	beq	a5,a3,332c <_ZL10_ntoa_longPFvcPvjjEPcjjmbmjjj.constprop.0+0x2ee>
    32b8:	02000793          	li	a5,32
    32bc:	f2f404e3          	beq	s0,a5,31e4 <_ZL10_ntoa_longPFvcPvjjEPcjjmbmjjj.constprop.0+0x1a6>
    32c0:	86a2                	mv	a3,s0
    32c2:	0405                	addi	s0,s0,1
    32c4:	b721                	j	31cc <_ZL10_ntoa_longPFvcPvjjEPcjjmbmjjj.constprop.0+0x18e>
    32c6:	8b52                	mv	s6,s4
    32c8:	bfa9                	j	3222 <_ZL10_ntoa_longPFvcPvjjEPcjjmbmjjj.constprop.0+0x1e4>
    32ca:	02068793          	addi	a5,a3,32
    32ce:	978a                	add	a5,a5,sp
    32d0:	02d00713          	li	a4,45
    32d4:	00168413          	addi	s0,a3,1
    32d8:	fee78023          	sb	a4,-32(a5)
    32dc:	b52d                	j	3106 <_ZL10_ntoa_longPFvcPvjjEPcjjmbmjjj.constprop.0+0xc8>
    32de:	df0470e3          	bgeu	s0,a6,30be <_ZL10_ntoa_longPFvcPvjjEPcjjmbmjjj.constprop.0+0x80>
    32e2:	02000693          	li	a3,32
    32e6:	e4d41ce3          	bne	s0,a3,313e <_ZL10_ntoa_longPFvcPvjjEPcjjmbmjjj.constprop.0+0x100>
    32ea:	180f8463          	beqz	t6,3472 <_ZL10_ntoa_longPFvcPvjjEPcjjmbmjjj.constprop.0+0x434>
    32ee:	4b81                	li	s7,0
    32f0:	fa0f1ce3          	bnez	t5,32a8 <_ZL10_ntoa_longPFvcPvjjEPcjjmbmjjj.constprop.0+0x26a>
    32f4:	00880463          	beq	a6,s0,32fc <_ZL10_ntoa_longPFvcPvjjEPcjjmbmjjj.constprop.0+0x2be>
    32f8:	fa8a98e3          	bne	s5,s0,32a8 <_ZL10_ntoa_longPFvcPvjjEPcjjmbmjjj.constprop.0+0x26a>
    32fc:	fff40693          	addi	a3,s0,-1
    3300:	ea069ee3          	bnez	a3,31bc <_ZL10_ntoa_longPFvcPvjjEPcjjmbmjjj.constprop.0+0x17e>
    3304:	46c1                	li	a3,16
    3306:	10d78c63          	beq	a5,a3,341e <_ZL10_ntoa_longPFvcPvjjEPcjjmbmjjj.constprop.0+0x3e0>
    330a:	4689                	li	a3,2
    330c:	dcd797e3          	bne	a5,a3,30da <_ZL10_ntoa_longPFvcPvjjEPcjjmbmjjj.constprop.0+0x9c>
    3310:	06200793          	li	a5,98
    3314:	00f10023          	sb	a5,0(sp)
    3318:	03000793          	li	a5,48
    331c:	00f100a3          	sb	a5,1(sp)
    3320:	4689                	li	a3,2
    3322:	003ef313          	andi	t1,t4,3
    3326:	dc0703e3          	beqz	a4,30ec <_ZL10_ntoa_longPFvcPvjjEPcjjmbmjjj.constprop.0+0xae>
    332a:	b745                	j	32ca <_ZL10_ntoa_longPFvcPvjjEPcjjmbmjjj.constprop.0+0x28c>
    332c:	02000793          	li	a5,32
    3330:	eaf40ae3          	beq	s0,a5,31e4 <_ZL10_ntoa_longPFvcPvjjEPcjjmbmjjj.constprop.0+0x1a6>
    3334:	86a2                	mv	a3,s0
    3336:	0405                	addi	s0,s0,1
    3338:	02068793          	addi	a5,a3,32
    333c:	002786b3          	add	a3,a5,sp
    3340:	06200793          	li	a5,98
    3344:	fef68023          	sb	a5,-32(a3)
    3348:	bf85                	j	32b8 <_ZL10_ntoa_longPFvcPvjjEPcjjmbmjjj.constprop.0+0x27a>
    334a:	86a2                	mv	a3,s0
    334c:	da0700e3          	beqz	a4,30ec <_ZL10_ntoa_longPFvcPvjjEPcjjmbmjjj.constprop.0+0xae>
    3350:	bfad                	j	32ca <_ZL10_ntoa_longPFvcPvjjEPcjjmbmjjj.constprop.0+0x28c>
    3352:	1afd                	addi	s5,s5,-1
    3354:	bf2d                	j	328e <_ZL10_ntoa_longPFvcPvjjEPcjjmbmjjj.constprop.0+0x250>
    3356:	040f8363          	beqz	t6,339c <_ZL10_ntoa_longPFvcPvjjEPcjjmbmjjj.constprop.0+0x35e>
    335a:	060f0e63          	beqz	t5,33d6 <_ZL10_ntoa_longPFvcPvjjEPcjjmbmjjj.constprop.0+0x398>
    335e:	4b81                	li	s7,0
    3360:	02000413          	li	s0,32
    3364:	b791                	j	32a8 <_ZL10_ntoa_longPFvcPvjjEPcjjmbmjjj.constprop.0+0x26a>
    3366:	020ef793          	andi	a5,t4,32
    336a:	cf9d                	beqz	a5,33a8 <_ZL10_ntoa_longPFvcPvjjEPcjjmbmjjj.constprop.0+0x36a>
    336c:	02000793          	li	a5,32
    3370:	e6f40ae3          	beq	s0,a5,31e4 <_ZL10_ntoa_longPFvcPvjjEPcjjmbmjjj.constprop.0+0x1a6>
    3374:	02040793          	addi	a5,s0,32
    3378:	978a                	add	a5,a5,sp
    337a:	05800693          	li	a3,88
    337e:	fed78023          	sb	a3,-32(a5)
    3382:	0405                	addi	s0,s0,1
    3384:	bf15                	j	32b8 <_ZL10_ntoa_longPFvcPvjjEPcjjmbmjjj.constprop.0+0x27a>
    3386:	008efe93          	andi	t4,t4,8
    338a:	020e9c63          	bnez	t4,33c2 <_ZL10_ntoa_longPFvcPvjjEPcjjmbmjjj.constprop.0+0x384>
    338e:	8436                	mv	s0,a3
    3390:	00031463          	bnez	t1,3398 <_ZL10_ntoa_longPFvcPvjjEPcjjmbmjjj.constprop.0+0x35a>
    3394:	e556ece3          	bltu	a3,s5,31ec <_ZL10_ntoa_longPFvcPvjjEPcjjmbmjjj.constprop.0+0x1ae>
    3398:	8b52                	mv	s6,s4
    339a:	b559                	j	3220 <_ZL10_ntoa_longPFvcPvjjEPcjjmbmjjj.constprop.0+0x1e2>
    339c:	4b81                	li	s7,0
    339e:	02000413          	li	s0,32
    33a2:	003ef313          	andi	t1,t4,3
    33a6:	bd3d                	j	31e4 <_ZL10_ntoa_longPFvcPvjjEPcjjmbmjjj.constprop.0+0x1a6>
    33a8:	02000793          	li	a5,32
    33ac:	e2f40ce3          	beq	s0,a5,31e4 <_ZL10_ntoa_longPFvcPvjjEPcjjmbmjjj.constprop.0+0x1a6>
    33b0:	02040793          	addi	a5,s0,32
    33b4:	978a                	add	a5,a5,sp
    33b6:	07800693          	li	a3,120
    33ba:	fed78023          	sb	a3,-32(a5)
    33be:	0405                	addi	s0,s0,1
    33c0:	bde5                	j	32b8 <_ZL10_ntoa_longPFvcPvjjEPcjjmbmjjj.constprop.0+0x27a>
    33c2:	02068793          	addi	a5,a3,32
    33c6:	978a                	add	a5,a5,sp
    33c8:	02000713          	li	a4,32
    33cc:	00168413          	addi	s0,a3,1
    33d0:	fee78023          	sb	a4,-32(a5)
    33d4:	bb0d                	j	3106 <_ZL10_ntoa_longPFvcPvjjEPcjjmbmjjj.constprop.0+0xc8>
    33d6:	02000413          	li	s0,32
    33da:	4b81                	li	s7,0
    33dc:	f0881ee3          	bne	a6,s0,32f8 <_ZL10_ntoa_longPFvcPvjjEPcjjmbmjjj.constprop.0+0x2ba>
    33e0:	bf31                	j	32fc <_ZL10_ntoa_longPFvcPvjjEPcjjmbmjjj.constprop.0+0x2be>
    33e2:	020ef793          	andi	a5,t4,32
    33e6:	c785                	beqz	a5,340e <_ZL10_ntoa_longPFvcPvjjEPcjjmbmjjj.constprop.0+0x3d0>
    33e8:	05800793          	li	a5,88
    33ec:	00f10023          	sb	a5,0(sp)
    33f0:	03000793          	li	a5,48
    33f4:	00f100a3          	sb	a5,1(sp)
    33f8:	4689                	li	a3,2
    33fa:	003ef313          	andi	t1,t4,3
    33fe:	ce0707e3          	beqz	a4,30ec <_ZL10_ntoa_longPFvcPvjjEPcjjmbmjjj.constprop.0+0xae>
    3402:	b5e1                	j	32ca <_ZL10_ntoa_longPFvcPvjjEPcjjmbmjjj.constprop.0+0x28c>
    3404:	06200793          	li	a5,98
    3408:	00f10023          	sb	a5,0(sp)
    340c:	b7d5                	j	33f0 <_ZL10_ntoa_longPFvcPvjjEPcjjmbmjjj.constprop.0+0x3b2>
    340e:	07800793          	li	a5,120
    3412:	00f10023          	sb	a5,0(sp)
    3416:	bfe9                	j	33f0 <_ZL10_ntoa_longPFvcPvjjEPcjjmbmjjj.constprop.0+0x3b2>
    3418:	e80b93e3          	bnez	s7,329e <_ZL10_ntoa_longPFvcPvjjEPcjjmbmjjj.constprop.0+0x260>
    341c:	b5f9                	j	32ea <_ZL10_ntoa_longPFvcPvjjEPcjjmbmjjj.constprop.0+0x2ac>
    341e:	fffec793          	not	a5,t4
    3422:	0207f793          	andi	a5,a5,32
    3426:	05878793          	addi	a5,a5,88
    342a:	b5ed                	j	3314 <_ZL10_ntoa_longPFvcPvjjEPcjjmbmjjj.constprop.0+0x2d6>
    342c:	020ef793          	andi	a5,t4,32
    3430:	1479                	addi	s0,s0,-2
    3432:	ef89                	bnez	a5,344c <_ZL10_ntoa_longPFvcPvjjEPcjjmbmjjj.constprop.0+0x40e>
    3434:	02040793          	addi	a5,s0,32
    3438:	00278433          	add	s0,a5,sp
    343c:	07800793          	li	a5,120
    3440:	fef40023          	sb	a5,-32(s0)
    3444:	003ef313          	andi	t1,t4,3
    3448:	8436                	mv	s0,a3
    344a:	bd9d                	j	32c0 <_ZL10_ntoa_longPFvcPvjjEPcjjmbmjjj.constprop.0+0x282>
    344c:	02040793          	addi	a5,s0,32
    3450:	00278433          	add	s0,a5,sp
    3454:	05800793          	li	a5,88
    3458:	fef40023          	sb	a5,-32(s0)
    345c:	003ef313          	andi	t1,t4,3
    3460:	8436                	mv	s0,a3
    3462:	bdb9                	j	32c0 <_ZL10_ntoa_longPFvcPvjjEPcjjmbmjjj.constprop.0+0x282>
    3464:	f20f8fe3          	beqz	t6,33a2 <_ZL10_ntoa_longPFvcPvjjEPcjjmbmjjj.constprop.0+0x364>
    3468:	e40f10e3          	bnez	t5,32a8 <_ZL10_ntoa_longPFvcPvjjEPcjjmbmjjj.constprop.0+0x26a>
    346c:	e28a9ee3          	bne	s5,s0,32a8 <_ZL10_ntoa_longPFvcPvjjEPcjjmbmjjj.constprop.0+0x26a>
    3470:	b571                	j	32fc <_ZL10_ntoa_longPFvcPvjjEPcjjmbmjjj.constprop.0+0x2be>
    3472:	4b81                	li	s7,0
    3474:	003ef313          	andi	t1,t4,3
    3478:	b3b5                	j	31e4 <_ZL10_ntoa_longPFvcPvjjEPcjjmbmjjj.constprop.0+0x1a6>

0000347a <riscprintf_>:
    347a:	7175                	addi	sp,sp,-144
    347c:	cece                	sw	s3,92(sp)
    347e:	c6de                	sw	s7,76(sp)
    3480:	d686                	sw	ra,108(sp)
    3482:	d4a2                	sw	s0,104(sp)
    3484:	d2a6                	sw	s1,100(sp)
    3486:	d0ca                	sw	s2,96(sp)
    3488:	ccd2                	sw	s4,88(sp)
    348a:	cad6                	sw	s5,84(sp)
    348c:	c8da                	sw	s6,80(sp)
    348e:	c4e2                	sw	s8,72(sp)
    3490:	c2e6                	sw	s9,68(sp)
    3492:	c0ea                	sw	s10,64(sp)
    3494:	de6e                	sw	s11,60(sp)
    3496:	daae                	sw	a1,116(sp)
    3498:	dcb2                	sw	a2,120(sp)
    349a:	deb6                	sw	a3,124(sp)
    349c:	c13a                	sw	a4,128(sp)
    349e:	c33e                	sw	a5,132(sp)
    34a0:	c542                	sw	a6,136(sp)
    34a2:	c746                	sw	a7,140(sp)
    34a4:	8baa                	mv	s7,a0
    34a6:	00054503          	lbu	a0,0(a0)
    34aa:	07410993          	addi	s3,sp,116
    34ae:	d64e                	sw	s3,44(sp)
    34b0:	42050163          	beqz	a0,38d2 <riscprintf_+0x458>
    34b4:	001217b7          	lui	a5,0x121
    34b8:	6915                	lui	s2,0x5
    34ba:	82178793          	addi	a5,a5,-2015 # 120821 <MEM_SIZE+0x100821>
    34be:	4b01                	li	s6,0
    34c0:	1024                	addi	s1,sp,40
    34c2:	02500a13          	li	s4,37
    34c6:	4441                	li	s0,16
    34c8:	c8890913          	addi	s2,s2,-888 # 4c88 <_ZL13mapHidToAmiga+0x570>
    34cc:	4aa5                	li	s5,9
    34ce:	ca3e                	sw	a5,20(sp)
    34d0:	a811                	j	34e4 <riscprintf_+0x6a>
    34d2:	865a                	mv	a2,s6
    34d4:	56fd                	li	a3,-1
    34d6:	85a6                	mv	a1,s1
    34d8:	0b05                	addi	s6,s6,1
    34da:	b5dff0ef          	jal	ra,3036 <_ZL9_out_charcPvjj>
    34de:	000bc503          	lbu	a0,0(s7)
    34e2:	c579                	beqz	a0,35b0 <riscprintf_+0x136>
    34e4:	0b85                	addi	s7,s7,1
    34e6:	ff4516e3          	bne	a0,s4,34d2 <riscprintf_+0x58>
    34ea:	4c01                	li	s8,0
    34ec:	000bc503          	lbu	a0,0(s7)
    34f0:	001b8713          	addi	a4,s7,1
    34f4:	fe050793          	addi	a5,a0,-32
    34f8:	0ff7f793          	zext.b	a5,a5
    34fc:	00f46663          	bltu	s0,a5,3508 <riscprintf_+0x8e>
    3500:	078a                	slli	a5,a5,0x2
    3502:	97ca                	add	a5,a5,s2
    3504:	439c                	lw	a5,0(a5)
    3506:	8782                	jr	a5
    3508:	fd050793          	addi	a5,a0,-48
    350c:	0ff7f793          	zext.b	a5,a5
    3510:	1cfaf263          	bgeu	s5,a5,36d4 <riscprintf_+0x25a>
    3514:	02a00793          	li	a5,42
    3518:	4d81                	li	s11,0
    351a:	22f50b63          	beq	a0,a5,3750 <riscprintf_+0x2d6>
    351e:	02e00793          	li	a5,46
    3522:	4d01                	li	s10,0
    3524:	1cf50f63          	beq	a0,a5,3702 <riscprintf_+0x288>
    3528:	06c00793          	li	a5,108
    352c:	86ba                	mv	a3,a4
    352e:	20f50163          	beq	a0,a5,3730 <riscprintf_+0x2b6>
    3532:	20a7e663          	bltu	a5,a0,373e <riscprintf_+0x2c4>
    3536:	06800793          	li	a5,104
    353a:	24f50063          	beq	a0,a5,377a <riscprintf_+0x300>
    353e:	06a00793          	li	a5,106
    3542:	4ef51663          	bne	a0,a5,3a2e <riscprintf_+0x5b4>
    3546:	001bc503          	lbu	a0,1(s7)
    354a:	200c6c13          	ori	s8,s8,512
    354e:	07800793          	li	a5,120
    3552:	00168b93          	addi	s7,a3,1
    3556:	f6a7eee3          	bltu	a5,a0,34d2 <riscprintf_+0x58>
    355a:	06300793          	li	a5,99
    355e:	0aa7ec63          	bltu	a5,a0,3616 <riscprintf_+0x19c>
    3562:	06200713          	li	a4,98
    3566:	3ce50c63          	beq	a0,a4,393e <riscprintf_+0x4c4>
    356a:	0ef51b63          	bne	a0,a5,3660 <riscprintf_+0x1e6>
    356e:	002c7c13          	andi	s8,s8,2
    3572:	00498d13          	addi	s10,s3,4
    3576:	001b0c93          	addi	s9,s6,1
    357a:	2e0c0363          	beqz	s8,3860 <riscprintf_+0x3e6>
    357e:	0009c503          	lbu	a0,0(s3)
    3582:	865a                	mv	a2,s6
    3584:	56fd                	li	a3,-1
    3586:	85a6                	mv	a1,s1
    3588:	aafff0ef          	jal	ra,3036 <_ZL9_out_charcPvjj>
    358c:	4785                	li	a5,1
    358e:	9b6e                	add	s6,s6,s11
    3590:	3bb7f463          	bgeu	a5,s11,3938 <riscprintf_+0x4be>
    3594:	8666                	mv	a2,s9
    3596:	56fd                	li	a3,-1
    3598:	0c85                	addi	s9,s9,1
    359a:	85a6                	mv	a1,s1
    359c:	02000513          	li	a0,32
    35a0:	a97ff0ef          	jal	ra,3036 <_ZL9_out_charcPvjj>
    35a4:	ff9b18e3          	bne	s6,s9,3594 <riscprintf_+0x11a>
    35a8:	89ea                	mv	s3,s10
    35aa:	000bc503          	lbu	a0,0(s7)
    35ae:	f91d                	bnez	a0,34e4 <riscprintf_+0x6a>
    35b0:	57f9                	li	a5,-2
    35b2:	845a                	mv	s0,s6
    35b4:	865a                	mv	a2,s6
    35b6:	1b67e763          	bltu	a5,s6,3764 <riscprintf_+0x2ea>
    35ba:	85a6                	mv	a1,s1
    35bc:	4501                	li	a0,0
    35be:	56fd                	li	a3,-1
    35c0:	a77ff0ef          	jal	ra,3036 <_ZL9_out_charcPvjj>
    35c4:	50b6                	lw	ra,108(sp)
    35c6:	8522                	mv	a0,s0
    35c8:	5426                	lw	s0,104(sp)
    35ca:	5496                	lw	s1,100(sp)
    35cc:	5906                	lw	s2,96(sp)
    35ce:	49f6                	lw	s3,92(sp)
    35d0:	4a66                	lw	s4,88(sp)
    35d2:	4ad6                	lw	s5,84(sp)
    35d4:	4b46                	lw	s6,80(sp)
    35d6:	4bb6                	lw	s7,76(sp)
    35d8:	4c26                	lw	s8,72(sp)
    35da:	4c96                	lw	s9,68(sp)
    35dc:	4d06                	lw	s10,64(sp)
    35de:	5df2                	lw	s11,60(sp)
    35e0:	6149                	addi	sp,sp,144
    35e2:	8082                	ret
    35e4:	001c6c13          	ori	s8,s8,1
    35e8:	8bba                	mv	s7,a4
    35ea:	b709                	j	34ec <riscprintf_+0x72>
    35ec:	002c6c13          	ori	s8,s8,2
    35f0:	8bba                	mv	s7,a4
    35f2:	bded                	j	34ec <riscprintf_+0x72>
    35f4:	004c6c13          	ori	s8,s8,4
    35f8:	8bba                	mv	s7,a4
    35fa:	bdcd                	j	34ec <riscprintf_+0x72>
    35fc:	010c6c13          	ori	s8,s8,16
    3600:	8bba                	mv	s7,a4
    3602:	b5ed                	j	34ec <riscprintf_+0x72>
    3604:	008c6c13          	ori	s8,s8,8
    3608:	8bba                	mv	s7,a4
    360a:	b5cd                	j	34ec <riscprintf_+0x72>
    360c:	07800793          	li	a5,120
    3610:	8bba                	mv	s7,a4
    3612:	eca7e0e3          	bltu	a5,a0,34d2 <riscprintf_+0x58>
    3616:	f9c50793          	addi	a5,a0,-100
    361a:	4c85                	li	s9,1
    361c:	00fc9cb3          	sll	s9,s9,a5
    3620:	47d2                	lw	a5,20(sp)
    3622:	00fcfcb3          	and	s9,s9,a5
    3626:	320c9663          	bnez	s9,3952 <riscprintf_+0x4d8>
    362a:	07300793          	li	a5,115
    362e:	14f50d63          	beq	a0,a5,3788 <riscprintf_+0x30e>
    3632:	07000793          	li	a5,112
    3636:	e8f51ee3          	bne	a0,a5,34d2 <riscprintf_+0x58>
    363a:	0009a683          	lw	a3,0(s3)
    363e:	021c6c13          	ori	s8,s8,33
    3642:	650d                	lui	a0,0x3
    3644:	865a                	mv	a2,s6
    3646:	c062                	sw	s8,0(sp)
    3648:	48a1                	li	a7,8
    364a:	886a                	mv	a6,s10
    364c:	47c1                	li	a5,16
    364e:	4701                	li	a4,0
    3650:	85a6                	mv	a1,s1
    3652:	03650513          	addi	a0,a0,54 # 3036 <_ZL9_out_charcPvjj>
    3656:	9e9ff0ef          	jal	ra,303e <_ZL10_ntoa_longPFvcPvjjEPcjjmbmjjj.constprop.0>
    365a:	0991                	addi	s3,s3,4
    365c:	8b2a                	mv	s6,a0
    365e:	b541                	j	34de <riscprintf_+0x64>
    3660:	01451b63          	bne	a0,s4,3676 <riscprintf_+0x1fc>
    3664:	865a                	mv	a2,s6
    3666:	56fd                	li	a3,-1
    3668:	85a6                	mv	a1,s1
    366a:	02500513          	li	a0,37
    366e:	0b05                	addi	s6,s6,1
    3670:	9c7ff0ef          	jal	ra,3036 <_ZL9_out_charcPvjj>
    3674:	b5ad                	j	34de <riscprintf_+0x64>
    3676:	05800793          	li	a5,88
    367a:	e4f51ce3          	bne	a0,a5,34d2 <riscprintf_+0x58>
    367e:	400c7793          	andi	a5,s8,1024
    3682:	28078963          	beqz	a5,3914 <riscprintf_+0x49a>
    3686:	ff2c7713          	andi	a4,s8,-14
    368a:	02076713          	ori	a4,a4,32
    368e:	47c1                	li	a5,16
    3690:	20077693          	andi	a3,a4,512
    3694:	e40695e3          	bnez	a3,34de <riscprintf_+0x64>
    3698:	10077693          	andi	a3,a4,256
    369c:	00498c13          	addi	s8,s3,4
    36a0:	28069063          	bnez	a3,3920 <riscprintf_+0x4a6>
    36a4:	04077693          	andi	a3,a4,64
    36a8:	26069363          	bnez	a3,390e <riscprintf_+0x494>
    36ac:	08077693          	andi	a3,a4,128
    36b0:	26068863          	beqz	a3,3920 <riscprintf_+0x4a6>
    36b4:	0009d683          	lhu	a3,0(s3)
    36b8:	c03a                	sw	a4,0(sp)
    36ba:	865a                	mv	a2,s6
    36bc:	88ee                	mv	a7,s11
    36be:	886a                	mv	a6,s10
    36c0:	4701                	li	a4,0
    36c2:	650d                	lui	a0,0x3
    36c4:	85a6                	mv	a1,s1
    36c6:	03650513          	addi	a0,a0,54 # 3036 <_ZL9_out_charcPvjj>
    36ca:	975ff0ef          	jal	ra,303e <_ZL10_ntoa_longPFvcPvjjEPcjjmbmjjj.constprop.0>
    36ce:	8b2a                	mv	s6,a0
    36d0:	89e2                	mv	s3,s8
    36d2:	b531                	j	34de <riscprintf_+0x64>
    36d4:	4d81                	li	s11,0
    36d6:	002d9793          	slli	a5,s11,0x2
    36da:	97ee                	add	a5,a5,s11
    36dc:	0786                	slli	a5,a5,0x1
    36de:	97aa                	add	a5,a5,a0
    36e0:	00074503          	lbu	a0,0(a4)
    36e4:	fd078d93          	addi	s11,a5,-48
    36e8:	8bba                	mv	s7,a4
    36ea:	fd050793          	addi	a5,a0,-48
    36ee:	0ff7f793          	zext.b	a5,a5
    36f2:	0705                	addi	a4,a4,1
    36f4:	fefaf1e3          	bgeu	s5,a5,36d6 <riscprintf_+0x25c>
    36f8:	02e00793          	li	a5,46
    36fc:	4d01                	li	s10,0
    36fe:	e2f515e3          	bne	a0,a5,3528 <riscprintf_+0xae>
    3702:	001bc503          	lbu	a0,1(s7)
    3706:	4625                	li	a2,9
    3708:	86ba                	mv	a3,a4
    370a:	fd050793          	addi	a5,a0,-48
    370e:	0ff7f793          	zext.b	a5,a5
    3712:	400c6c13          	ori	s8,s8,1024
    3716:	0ef67763          	bgeu	a2,a5,3804 <riscprintf_+0x38a>
    371a:	02a00793          	li	a5,42
    371e:	10f50c63          	beq	a0,a5,3836 <riscprintf_+0x3bc>
    3722:	8bba                	mv	s7,a4
    3724:	06c00793          	li	a5,108
    3728:	0705                	addi	a4,a4,1
    372a:	86ba                	mv	a3,a4
    372c:	e0f513e3          	bne	a0,a5,3532 <riscprintf_+0xb8>
    3730:	001bc503          	lbu	a0,1(s7)
    3734:	10f50f63          	beq	a0,a5,3852 <riscprintf_+0x3d8>
    3738:	100c6c13          	ori	s8,s8,256
    373c:	bd09                	j	354e <riscprintf_+0xd4>
    373e:	07a00793          	li	a5,122
    3742:	ecf515e3          	bne	a0,a5,360c <riscprintf_+0x192>
    3746:	001bc503          	lbu	a0,1(s7)
    374a:	100c6c13          	ori	s8,s8,256
    374e:	b501                	j	354e <riscprintf_+0xd4>
    3750:	0009ad83          	lw	s11,0(s3)
    3754:	0991                	addi	s3,s3,4
    3756:	000dc963          	bltz	s11,3768 <riscprintf_+0x2ee>
    375a:	001bc503          	lbu	a0,1(s7)
    375e:	8bba                	mv	s7,a4
    3760:	0705                	addi	a4,a4,1
    3762:	bb75                	j	351e <riscprintf_+0xa4>
    3764:	5679                	li	a2,-2
    3766:	bd91                	j	35ba <riscprintf_+0x140>
    3768:	001bc503          	lbu	a0,1(s7)
    376c:	002c6c13          	ori	s8,s8,2
    3770:	8bba                	mv	s7,a4
    3772:	41b00db3          	neg	s11,s11
    3776:	0705                	addi	a4,a4,1
    3778:	b35d                	j	351e <riscprintf_+0xa4>
    377a:	001bc503          	lbu	a0,1(s7)
    377e:	14f50363          	beq	a0,a5,38c4 <riscprintf_+0x44a>
    3782:	080c6c13          	ori	s8,s8,128
    3786:	b3e1                	j	354e <riscprintf_+0xd4>
    3788:	0009a783          	lw	a5,0(s3)
    378c:	00498713          	addi	a4,s3,4
    3790:	cc3a                	sw	a4,24(sp)
    3792:	0007c683          	lbu	a3,0(a5)
    3796:	c83e                	sw	a5,16(sp)
    3798:	8536                	mv	a0,a3
    379a:	080d1a63          	bnez	s10,382e <riscprintf_+0x3b4>
    379e:	5779                	li	a4,-2
    37a0:	ce91                	beqz	a3,37bc <riscprintf_+0x342>
    37a2:	4cc2                	lw	s9,16(sp)
    37a4:	0705                	addi	a4,a4,1
    37a6:	9766                	add	a4,a4,s9
    37a8:	a019                	j	37ae <riscprintf_+0x334>
    37aa:	00ec8663          	beq	s9,a4,37b6 <riscprintf_+0x33c>
    37ae:	001cc783          	lbu	a5,1(s9)
    37b2:	0c85                	addi	s9,s9,1
    37b4:	fbfd                	bnez	a5,37aa <riscprintf_+0x330>
    37b6:	47c2                	lw	a5,16(sp)
    37b8:	40fc8cb3          	sub	s9,s9,a5
    37bc:	400c7993          	andi	s3,s8,1024
    37c0:	00098563          	beqz	s3,37ca <riscprintf_+0x350>
    37c4:	019d7363          	bgeu	s10,s9,37ca <riscprintf_+0x350>
    37c8:	8cea                	mv	s9,s10
    37ca:	002c7793          	andi	a5,s8,2
    37ce:	ce3e                	sw	a5,28(sp)
    37d0:	10078563          	beqz	a5,38da <riscprintf_+0x460>
    37d4:	c6e9                	beqz	a3,389e <riscprintf_+0x424>
    37d6:	865a                	mv	a2,s6
    37d8:	00098763          	beqz	s3,37e6 <riscprintf_+0x36c>
    37dc:	fffd0793          	addi	a5,s10,-1
    37e0:	0a0d0b63          	beqz	s10,3896 <riscprintf_+0x41c>
    37e4:	8d3e                	mv	s10,a5
    37e6:	56fd                	li	a3,-1
    37e8:	85a6                	mv	a1,s1
    37ea:	00160c13          	addi	s8,a2,1
    37ee:	849ff0ef          	jal	ra,3036 <_ZL9_out_charcPvjj>
    37f2:	4742                	lw	a4,16(sp)
    37f4:	416c07b3          	sub	a5,s8,s6
    37f8:	97ba                	add	a5,a5,a4
    37fa:	0007c503          	lbu	a0,0(a5)
    37fe:	cd49                	beqz	a0,3898 <riscprintf_+0x41e>
    3800:	8662                	mv	a2,s8
    3802:	bfd9                	j	37d8 <riscprintf_+0x35e>
    3804:	4725                	li	a4,9
    3806:	002d1793          	slli	a5,s10,0x2
    380a:	97ea                	add	a5,a5,s10
    380c:	0685                	addi	a3,a3,1
    380e:	0786                	slli	a5,a5,0x1
    3810:	97aa                	add	a5,a5,a0
    3812:	0006c503          	lbu	a0,0(a3)
    3816:	fd078d13          	addi	s10,a5,-48
    381a:	fd050793          	addi	a5,a0,-48
    381e:	0ff7f793          	zext.b	a5,a5
    3822:	fef772e3          	bgeu	a4,a5,3806 <riscprintf_+0x38c>
    3826:	8bb6                	mv	s7,a3
    3828:	00168713          	addi	a4,a3,1
    382c:	b9f5                	j	3528 <riscprintf_+0xae>
    382e:	d6d9                	beqz	a3,37bc <riscprintf_+0x342>
    3830:	fffd0713          	addi	a4,s10,-1
    3834:	b7bd                	j	37a2 <riscprintf_+0x328>
    3836:	0009ad03          	lw	s10,0(s3)
    383a:	002bc503          	lbu	a0,2(s7)
    383e:	0b89                	addi	s7,s7,2
    3840:	fffd4793          	not	a5,s10
    3844:	87fd                	srai	a5,a5,0x1f
    3846:	00fd7d33          	and	s10,s10,a5
    384a:	0991                	addi	s3,s3,4
    384c:	001b8713          	addi	a4,s7,1
    3850:	b9e1                	j	3528 <riscprintf_+0xae>
    3852:	002bc503          	lbu	a0,2(s7)
    3856:	300c6c13          	ori	s8,s8,768
    385a:	002b8693          	addi	a3,s7,2
    385e:	b9c5                	j	354e <riscprintf_+0xd4>
    3860:	4785                	li	a5,1
    3862:	0db7f463          	bgeu	a5,s11,392a <riscprintf_+0x4b0>
    3866:	fffb0c13          	addi	s8,s6,-1
    386a:	9c6e                	add	s8,s8,s11
    386c:	8cda                	mv	s9,s6
    386e:	8666                	mv	a2,s9
    3870:	56fd                	li	a3,-1
    3872:	0c85                	addi	s9,s9,1
    3874:	85a6                	mv	a1,s1
    3876:	02000513          	li	a0,32
    387a:	fbcff0ef          	jal	ra,3036 <_ZL9_out_charcPvjj>
    387e:	ff9c18e3          	bne	s8,s9,386e <riscprintf_+0x3f4>
    3882:	0009c503          	lbu	a0,0(s3)
    3886:	56fd                	li	a3,-1
    3888:	8662                	mv	a2,s8
    388a:	85a6                	mv	a1,s1
    388c:	9b6e                	add	s6,s6,s11
    388e:	fa8ff0ef          	jal	ra,3036 <_ZL9_out_charcPvjj>
    3892:	89ea                	mv	s3,s10
    3894:	bb19                	j	35aa <riscprintf_+0x130>
    3896:	8c32                	mv	s8,a2
    3898:	47f2                	lw	a5,28(sp)
    389a:	c395                	beqz	a5,38be <riscprintf_+0x444>
    389c:	8b62                	mv	s6,s8
    389e:	07bcf663          	bgeu	s9,s11,390a <riscprintf_+0x490>
    38a2:	016d8733          	add	a4,s11,s6
    38a6:	41970c33          	sub	s8,a4,s9
    38aa:	865a                	mv	a2,s6
    38ac:	56fd                	li	a3,-1
    38ae:	0b05                	addi	s6,s6,1
    38b0:	85a6                	mv	a1,s1
    38b2:	02000513          	li	a0,32
    38b6:	f80ff0ef          	jal	ra,3036 <_ZL9_out_charcPvjj>
    38ba:	ff8b18e3          	bne	s6,s8,38aa <riscprintf_+0x430>
    38be:	49e2                	lw	s3,24(sp)
    38c0:	8b62                	mv	s6,s8
    38c2:	b931                	j	34de <riscprintf_+0x64>
    38c4:	002bc503          	lbu	a0,2(s7)
    38c8:	0c0c6c13          	ori	s8,s8,192
    38cc:	002b8693          	addi	a3,s7,2
    38d0:	b9bd                	j	354e <riscprintf_+0xd4>
    38d2:	4601                	li	a2,0
    38d4:	4401                	li	s0,0
    38d6:	1024                	addi	s1,sp,40
    38d8:	b1cd                	j	35ba <riscprintf_+0x140>
    38da:	05bcf663          	bgeu	s9,s11,3926 <riscprintf_+0x4ac>
    38de:	016d87b3          	add	a5,s11,s6
    38e2:	41978cb3          	sub	s9,a5,s9
    38e6:	865a                	mv	a2,s6
    38e8:	56fd                	li	a3,-1
    38ea:	0b05                	addi	s6,s6,1
    38ec:	85a6                	mv	a1,s1
    38ee:	02000513          	li	a0,32
    38f2:	f44ff0ef          	jal	ra,3036 <_ZL9_out_charcPvjj>
    38f6:	ff6c98e3          	bne	s9,s6,38e6 <riscprintf_+0x46c>
    38fa:	47c2                	lw	a5,16(sp)
    38fc:	001d8c93          	addi	s9,s11,1
    3900:	0007c683          	lbu	a3,0(a5)
    3904:	8536                	mv	a0,a3
    3906:	ec0698e3          	bnez	a3,37d6 <riscprintf_+0x35c>
    390a:	8c5a                	mv	s8,s6
    390c:	bf4d                	j	38be <riscprintf_+0x444>
    390e:	0009c683          	lbu	a3,0(s3)
    3912:	b35d                	j	36b8 <riscprintf_+0x23e>
    3914:	020c6c13          	ori	s8,s8,32
    3918:	ff3c7713          	andi	a4,s8,-13
    391c:	47c1                	li	a5,16
    391e:	bb8d                	j	3690 <riscprintf_+0x216>
    3920:	0009a683          	lw	a3,0(s3)
    3924:	bb51                	j	36b8 <riscprintf_+0x23e>
    3926:	0c85                	addi	s9,s9,1
    3928:	bff1                	j	3904 <riscprintf_+0x48a>
    392a:	0009c503          	lbu	a0,0(s3)
    392e:	56fd                	li	a3,-1
    3930:	865a                	mv	a2,s6
    3932:	85a6                	mv	a1,s1
    3934:	f02ff0ef          	jal	ra,3036 <_ZL9_out_charcPvjj>
    3938:	8b66                	mv	s6,s9
    393a:	89ea                	mv	s3,s10
    393c:	b1bd                	j	35aa <riscprintf_+0x130>
    393e:	400c7713          	andi	a4,s8,1024
    3942:	4789                	li	a5,2
    3944:	c701                	beqz	a4,394c <riscprintf_+0x4d2>
    3946:	ff2c7713          	andi	a4,s8,-14
    394a:	b399                	j	3690 <riscprintf_+0x216>
    394c:	ff3c7713          	andi	a4,s8,-13
    3950:	b381                	j	3690 <riscprintf_+0x216>
    3952:	07800793          	li	a5,120
    3956:	0af50663          	beq	a0,a5,3a02 <riscprintf_+0x588>
    395a:	06f00793          	li	a5,111
    395e:	04f50363          	beq	a0,a5,39a4 <riscprintf_+0x52a>
    3962:	06900793          	li	a5,105
    3966:	fefc7593          	andi	a1,s8,-17
    396a:	0af51363          	bne	a0,a5,3a10 <riscprintf_+0x596>
    396e:	400c7793          	andi	a5,s8,1024
    3972:	c399                	beqz	a5,3978 <riscprintf_+0x4fe>
    3974:	feec7593          	andi	a1,s8,-18
    3978:	2005f793          	andi	a5,a1,512
    397c:	b60791e3          	bnez	a5,34de <riscprintf_+0x64>
    3980:	1005f793          	andi	a5,a1,256
    3984:	00498c13          	addi	s8,s3,4
    3988:	e3b1                	bnez	a5,39cc <riscprintf_+0x552>
    398a:	0405f793          	andi	a5,a1,64
    398e:	c395                	beqz	a5,39b2 <riscprintf_+0x538>
    3990:	0009c703          	lbu	a4,0(s3)
    3994:	86ba                	mv	a3,a4
    3996:	865a                	mv	a2,s6
    3998:	c02e                	sw	a1,0(sp)
    399a:	88ee                	mv	a7,s11
    399c:	886a                	mv	a6,s10
    399e:	47a9                	li	a5,10
    39a0:	837d                	srli	a4,a4,0x1f
    39a2:	b305                	j	36c2 <riscprintf_+0x248>
    39a4:	400c7793          	andi	a5,s8,1024
    39a8:	c3a9                	beqz	a5,39ea <riscprintf_+0x570>
    39aa:	ff2c7713          	andi	a4,s8,-14
    39ae:	47a1                	li	a5,8
    39b0:	b1c5                	j	3690 <riscprintf_+0x216>
    39b2:	0805f793          	andi	a5,a1,128
    39b6:	cf95                	beqz	a5,39f2 <riscprintf_+0x578>
    39b8:	00099703          	lh	a4,0(s3)
    39bc:	40f75793          	srai	a5,a4,0xf
    39c0:	00f746b3          	xor	a3,a4,a5
    39c4:	8e9d                	sub	a3,a3,a5
    39c6:	06c2                	slli	a3,a3,0x10
    39c8:	82c1                	srli	a3,a3,0x10
    39ca:	b7f1                	j	3996 <riscprintf_+0x51c>
    39cc:	0009a703          	lw	a4,0(s3)
    39d0:	865a                	mv	a2,s6
    39d2:	c02e                	sw	a1,0(sp)
    39d4:	41f75693          	srai	a3,a4,0x1f
    39d8:	00e6c533          	xor	a0,a3,a4
    39dc:	88ee                	mv	a7,s11
    39de:	886a                	mv	a6,s10
    39e0:	47a9                	li	a5,10
    39e2:	837d                	srli	a4,a4,0x1f
    39e4:	40d506b3          	sub	a3,a0,a3
    39e8:	b9e9                	j	36c2 <riscprintf_+0x248>
    39ea:	ff3c7713          	andi	a4,s8,-13
    39ee:	47a1                	li	a5,8
    39f0:	b145                	j	3690 <riscprintf_+0x216>
    39f2:	0009a703          	lw	a4,0(s3)
    39f6:	41f75793          	srai	a5,a4,0x1f
    39fa:	00e7c6b3          	xor	a3,a5,a4
    39fe:	8e9d                	sub	a3,a3,a5
    3a00:	bf59                	j	3996 <riscprintf_+0x51c>
    3a02:	400c7793          	andi	a5,s8,1024
    3a06:	db89                	beqz	a5,3918 <riscprintf_+0x49e>
    3a08:	ff2c7713          	andi	a4,s8,-14
    3a0c:	47c1                	li	a5,16
    3a0e:	b149                	j	3690 <riscprintf_+0x216>
    3a10:	06400793          	li	a5,100
    3a14:	f4f50de3          	beq	a0,a5,396e <riscprintf_+0x4f4>
    3a18:	400c7693          	andi	a3,s8,1024
    3a1c:	fe3c7713          	andi	a4,s8,-29
    3a20:	47a9                	li	a5,10
    3a22:	8c2e                	mv	s8,a1
    3a24:	c60686e3          	beqz	a3,3690 <riscprintf_+0x216>
    3a28:	ff2c7713          	andi	a4,s8,-14
    3a2c:	b195                	j	3690 <riscprintf_+0x216>
    3a2e:	8bba                	mv	s7,a4
    3a30:	b62d                	j	355a <riscprintf_+0xe0>

00003a32 <riscprintff_>:
    3a32:	1101                	addi	sp,sp,-32
    3a34:	c22e                	sw	a1,4(sp)
    3a36:	c432                	sw	a2,8(sp)
    3a38:	c636                	sw	a3,12(sp)
    3a3a:	c83a                	sw	a4,16(sp)
    3a3c:	ca3e                	sw	a5,20(sp)
    3a3e:	cc42                	sw	a6,24(sp)
    3a40:	ce46                	sw	a7,28(sp)
    3a42:	4501                	li	a0,0
    3a44:	6105                	addi	sp,sp,32
    3a46:	8082                	ret

00003a48 <_Z10ResetTimerv>:
    3a48:	4785                	li	a5,1
    3a4a:	fcf02223          	sw	a5,-60(zero) # ffffffc4 <MEM_SIZE+0xfffdffc4>
    3a4e:	06500793          	li	a5,101
    3a52:	17fd                	addi	a5,a5,-1
    3a54:	fffd                	bnez	a5,3a52 <_Z10ResetTimerv+0xa>
    3a56:	fc002223          	sw	zero,-60(zero) # ffffffc4 <MEM_SIZE+0xfffdffc4>
    3a5a:	8082                	ret

00003a5c <_Z8SetTimerv>:
    3a5c:	000b57b7          	lui	a5,0xb5
    3a60:	46478793          	addi	a5,a5,1124 # b5464 <MEM_SIZE+0x95464>
    3a64:	f8f02c23          	sw	a5,-104(zero) # ffffff98 <MEM_SIZE+0xfffdff98>
    3a68:	8082                	ret

00003a6a <_Z10riscusleepi>:
    3a6a:	00a05663          	blez	a0,3a76 <_Z10riscusleepi+0xc>
    3a6e:	4781                	li	a5,0
    3a70:	0785                	addi	a5,a5,1
    3a72:	fef51fe3          	bne	a0,a5,3a70 <_Z10riscusleepi+0x6>
    3a76:	8082                	ret

00003a78 <memset>:
    3a78:	1141                	addi	sp,sp,-16
    3a7a:	c422                	sw	s0,8(sp)
    3a7c:	c606                	sw	ra,12(sp)
    3a7e:	842a                	mv	s0,a0
    3a80:	c601                	beqz	a2,3a88 <memset+0x10>
    3a82:	0ff5f593          	zext.b	a1,a1
    3a86:	3fcd                	jal	3a78 <memset>
    3a88:	40b2                	lw	ra,12(sp)
    3a8a:	8522                	mv	a0,s0
    3a8c:	4422                	lw	s0,8(sp)
    3a8e:	0141                	addi	sp,sp,16
    3a90:	8082                	ret

00003a92 <outnum>:
    3a92:	6715                	lui	a4,0x5
    3a94:	6795                	lui	a5,0x5
    3a96:	ccc70713          	addi	a4,a4,-820 # 4ccc <_ZL13mapHidToAmiga+0x5b4>
    3a9a:	ce078793          	addi	a5,a5,-800 # 4ce0 <_ZL13mapHidToAmiga+0x5c8>
    3a9e:	0047a883          	lw	a7,4(a5)
    3aa2:	00072283          	lw	t0,0(a4)
    3aa6:	00472f83          	lw	t6,4(a4)
    3aaa:	00872f03          	lw	t5,8(a4)
    3aae:	00c72e83          	lw	t4,12(a4)
    3ab2:	01074e03          	lbu	t3,16(a4)
    3ab6:	0007a303          	lw	t1,0(a5)
    3aba:	0087a803          	lw	a6,8(a5)
    3abe:	47d8                	lw	a4,12(a5)
    3ac0:	0107c783          	lbu	a5,16(a5)
    3ac4:	7159                	addi	sp,sp,-112
    3ac6:	d0ca                	sw	s2,96(sp)
    3ac8:	cece                	sw	s3,92(sp)
    3aca:	d046                	sw	a7,32(sp)
    3acc:	02f10623          	sb	a5,44(sp)
    3ad0:	d686                	sw	ra,108(sp)
    3ad2:	d4a2                	sw	s0,104(sp)
    3ad4:	d2a6                	sw	s1,100(sp)
    3ad6:	ccd2                	sw	s4,88(sp)
    3ad8:	c416                	sw	t0,8(sp)
    3ada:	c67e                	sw	t6,12(sp)
    3adc:	c87a                	sw	t5,16(sp)
    3ade:	ca76                	sw	t4,20(sp)
    3ae0:	01c10c23          	sb	t3,24(sp)
    3ae4:	ce1a                	sw	t1,28(sp)
    3ae6:	d242                	sw	a6,36(sp)
    3ae8:	d43a                	sw	a4,40(sp)
    3aea:	47a9                	li	a5,10
    3aec:	01c6a883          	lw	a7,28(a3)
    3af0:	89b6                	mv	s3,a3
    3af2:	892a                	mv	s2,a0
    3af4:	14f60763          	beq	a2,a5,3c42 <outnum+0x1b0>
    3af8:	0030                	addi	a2,sp,8
    3afa:	0e088c63          	beqz	a7,3bf2 <outnum+0x160>
    3afe:	03010a13          	addi	s4,sp,48
    3b02:	87d2                	mv	a5,s4
    3b04:	453d                	li	a0,15
    3b06:	00f5f713          	andi	a4,a1,15
    3b0a:	9732                	add	a4,a4,a2
    3b0c:	00074683          	lbu	a3,0(a4)
    3b10:	872e                	mv	a4,a1
    3b12:	0785                	addi	a5,a5,1
    3b14:	fed78fa3          	sb	a3,-1(a5)
    3b18:	8191                	srli	a1,a1,0x4
    3b1a:	fee566e3          	bltu	a0,a4,3b06 <outnum+0x74>
    3b1e:	fff78493          	addi	s1,a5,-1
    3b22:	00078023          	sb	zero,0(a5)
    3b26:	8552                	mv	a0,s4
    3b28:	2b99                	jal	407e <strlen>
    3b2a:	0109a783          	lw	a5,16(s3)
    3b2e:	00a9a023          	sw	a0,0(s3)
    3b32:	0189a703          	lw	a4,24(s3)
    3b36:	842a                	mv	s0,a0
    3b38:	c791                	beqz	a5,3b44 <outnum+0xb2>
    3b3a:	ef55                	bnez	a4,3bf6 <outnum+0x164>
    3b3c:	0049a783          	lw	a5,4(s3)
    3b40:	0cf54463          	blt	a0,a5,3c08 <outnum+0x176>
    3b44:	0344ee63          	bltu	s1,s4,3b80 <outnum+0xee>
    3b48:	8426                	mv	s0,s1
    3b4a:	0209a703          	lw	a4,32(s3)
    3b4e:	408487b3          	sub	a5,s1,s0
    3b52:	147d                	addi	s0,s0,-1
    3b54:	00e7da63          	bge	a5,a4,3b68 <outnum+0xd6>
    3b58:	00092783          	lw	a5,0(s2)
    3b5c:	00144503          	lbu	a0,1(s0)
    3b60:	cb85                	beqz	a5,3b90 <outnum+0xfe>
    3b62:	9782                	jalr	a5
    3b64:	ff4473e3          	bgeu	s0,s4,3b4a <outnum+0xb8>
    3b68:	0109a783          	lw	a5,16(s3)
    3b6c:	cb91                	beqz	a5,3b80 <outnum+0xee>
    3b6e:	0189a783          	lw	a5,24(s3)
    3b72:	c799                	beqz	a5,3b80 <outnum+0xee>
    3b74:	0009a403          	lw	s0,0(s3)
    3b78:	0049a783          	lw	a5,4(s3)
    3b7c:	04f44363          	blt	s0,a5,3bc2 <outnum+0x130>
    3b80:	50b6                	lw	ra,108(sp)
    3b82:	5426                	lw	s0,104(sp)
    3b84:	5496                	lw	s1,100(sp)
    3b86:	5906                	lw	s2,96(sp)
    3b88:	49f6                	lw	s3,92(sp)
    3b8a:	4a66                	lw	s4,88(sp)
    3b8c:	6165                	addi	sp,sp,112
    3b8e:	8082                	ret
    3b90:	00492783          	lw	a5,4(s2)
    3b94:	dbe1                	beqz	a5,3b64 <outnum+0xd2>
    3b96:	00892703          	lw	a4,8(s2)
    3b9a:	00c92683          	lw	a3,12(s2)
    3b9e:	00170613          	addi	a2,a4,1
    3ba2:	97ba                	add	a5,a5,a4
    3ba4:	fcd750e3          	bge	a4,a3,3b64 <outnum+0xd2>
    3ba8:	00c92423          	sw	a2,8(s2)
    3bac:	00a78023          	sb	a0,0(a5)
    3bb0:	f9447de3          	bgeu	s0,s4,3b4a <outnum+0xb8>
    3bb4:	bf55                	j	3b68 <outnum+0xd6>
    3bb6:	9702                	jalr	a4
    3bb8:	0049a783          	lw	a5,4(s3)
    3bbc:	0405                	addi	s0,s0,1
    3bbe:	fcf451e3          	bge	s0,a5,3b80 <outnum+0xee>
    3bc2:	00092703          	lw	a4,0(s2)
    3bc6:	00c9c503          	lbu	a0,12(s3)
    3bca:	f775                	bnez	a4,3bb6 <outnum+0x124>
    3bcc:	00492703          	lw	a4,4(s2)
    3bd0:	d775                	beqz	a4,3bbc <outnum+0x12a>
    3bd2:	00892683          	lw	a3,8(s2)
    3bd6:	00c92603          	lw	a2,12(s2)
    3bda:	00168593          	addi	a1,a3,1
    3bde:	9736                	add	a4,a4,a3
    3be0:	fcc6dee3          	bge	a3,a2,3bbc <outnum+0x12a>
    3be4:	00b92423          	sw	a1,8(s2)
    3be8:	00a70023          	sb	a0,0(a4)
    3bec:	0049a783          	lw	a5,4(s3)
    3bf0:	b7f1                	j	3bbc <outnum+0x12a>
    3bf2:	0870                	addi	a2,sp,28
    3bf4:	b729                	j	3afe <outnum+0x6c>
    3bf6:	f544f9e3          	bgeu	s1,s4,3b48 <outnum+0xb6>
    3bfa:	bfbd                	j	3b78 <outnum+0xe6>
    3bfc:	9702                	jalr	a4
    3bfe:	0049a783          	lw	a5,4(s3)
    3c02:	0405                	addi	s0,s0,1
    3c04:	02f45c63          	bge	s0,a5,3c3c <outnum+0x1aa>
    3c08:	00092703          	lw	a4,0(s2)
    3c0c:	00c9c503          	lbu	a0,12(s3)
    3c10:	f775                	bnez	a4,3bfc <outnum+0x16a>
    3c12:	00492703          	lw	a4,4(s2)
    3c16:	d775                	beqz	a4,3c02 <outnum+0x170>
    3c18:	00892683          	lw	a3,8(s2)
    3c1c:	00c92603          	lw	a2,12(s2)
    3c20:	00168593          	addi	a1,a3,1
    3c24:	9736                	add	a4,a4,a3
    3c26:	fcc6dee3          	bge	a3,a2,3c02 <outnum+0x170>
    3c2a:	00b92423          	sw	a1,8(s2)
    3c2e:	00a70023          	sb	a0,0(a4)
    3c32:	0049a783          	lw	a5,4(s3)
    3c36:	0405                	addi	s0,s0,1
    3c38:	fcf448e3          	blt	s0,a5,3c08 <outnum+0x176>
    3c3c:	f144f6e3          	bgeu	s1,s4,3b48 <outnum+0xb6>
    3c40:	b725                	j	3b68 <outnum+0xd6>
    3c42:	0405c363          	bltz	a1,3c88 <outnum+0x1f6>
    3c46:	0868                	addi	a0,sp,28
    3c48:	02089d63          	bnez	a7,3c82 <outnum+0x1f0>
    3c4c:	03010a13          	addi	s4,sp,48
    3c50:	84d2                	mv	s1,s4
    3c52:	46a9                	li	a3,10
    3c54:	4825                	li	a6,9
    3c56:	02d5f733          	remu	a4,a1,a3
    3c5a:	87a6                	mv	a5,s1
    3c5c:	0485                	addi	s1,s1,1
    3c5e:	862e                	mv	a2,a1
    3c60:	972a                	add	a4,a4,a0
    3c62:	00074703          	lbu	a4,0(a4)
    3c66:	02d5d5b3          	divu	a1,a1,a3
    3c6a:	fee48fa3          	sb	a4,-1(s1)
    3c6e:	fec864e3          	bltu	a6,a2,3c56 <outnum+0x1c4>
    3c72:	02088763          	beqz	a7,3ca0 <outnum+0x20e>
    3c76:	02d00713          	li	a4,45
    3c7a:	0789                	addi	a5,a5,2
    3c7c:	00e48023          	sb	a4,0(s1)
    3c80:	b54d                	j	3b22 <outnum+0x90>
    3c82:	0028                	addi	a0,sp,8
    3c84:	4881                	li	a7,0
    3c86:	b7d9                	j	3c4c <outnum+0x1ba>
    3c88:	4adc                	lw	a5,20(a3)
    3c8a:	ffd5                	bnez	a5,3c46 <outnum+0x1b4>
    3c8c:	40b005b3          	neg	a1,a1
    3c90:	00088563          	beqz	a7,3c9a <outnum+0x208>
    3c94:	0028                	addi	a0,sp,8
    3c96:	4885                	li	a7,1
    3c98:	bf55                	j	3c4c <outnum+0x1ba>
    3c9a:	0868                	addi	a0,sp,28
    3c9c:	4885                	li	a7,1
    3c9e:	b77d                	j	3c4c <outnum+0x1ba>
    3ca0:	87a6                	mv	a5,s1
    3ca2:	bdb5                	j	3b1e <outnum+0x8c>

00003ca4 <vbuf_printf>:
    3ca4:	0005c783          	lbu	a5,0(a1)
    3ca8:	34078c63          	beqz	a5,4000 <vbuf_printf+0x35c>
    3cac:	7119                	addi	sp,sp,-128
    3cae:	d4d2                	sw	s4,104(sp)
    3cb0:	d2d6                	sw	s5,100(sp)
    3cb2:	d0da                	sw	s6,96(sp)
    3cb4:	6a21                	lui	s4,0x8
    3cb6:	6a95                	lui	s5,0x5
    3cb8:	6b15                	lui	s6,0x5
    3cba:	dca2                	sw	s0,120(sp)
    3cbc:	d8ca                	sw	s2,112(sp)
    3cbe:	d6ce                	sw	s3,108(sp)
    3cc0:	cede                	sw	s7,92(sp)
    3cc2:	de86                	sw	ra,124(sp)
    3cc4:	daa6                	sw	s1,116(sp)
    3cc6:	cce2                	sw	s8,88(sp)
    3cc8:	cae6                	sw	s9,84(sp)
    3cca:	c8ea                	sw	s10,80(sp)
    3ccc:	c6ee                	sw	s11,76(sp)
    3cce:	842e                	mv	s0,a1
    3cd0:	8baa                	mv	s7,a0
    3cd2:	8932                	mv	s2,a2
    3cd4:	1a7d                	addi	s4,s4,-1 # 7fff <sector_buffer+0x1207>
    3cd6:	49e5                	li	s3,25
    3cd8:	d4ca8a93          	addi	s5,s5,-692 # 4d4c <_ZL13mapHidToAmiga+0x634>
    3cdc:	cf4b0b13          	addi	s6,s6,-780 # 4cf4 <_ZL13mapHidToAmiga+0x5dc>
    3ce0:	02500713          	li	a4,37
    3ce4:	02e78e63          	beq	a5,a4,3d20 <vbuf_printf+0x7c>
    3ce8:	000ba703          	lw	a4,0(s7)
    3cec:	1e070e63          	beqz	a4,3ee8 <vbuf_printf+0x244>
    3cf0:	853e                	mv	a0,a5
    3cf2:	9702                	jalr	a4
    3cf4:	84a2                	mv	s1,s0
    3cf6:	0014c783          	lbu	a5,1(s1)
    3cfa:	00148413          	addi	s0,s1,1
    3cfe:	f3ed                	bnez	a5,3ce0 <vbuf_printf+0x3c>
    3d00:	50f6                	lw	ra,124(sp)
    3d02:	5466                	lw	s0,120(sp)
    3d04:	54d6                	lw	s1,116(sp)
    3d06:	5946                	lw	s2,112(sp)
    3d08:	59b6                	lw	s3,108(sp)
    3d0a:	5a26                	lw	s4,104(sp)
    3d0c:	5a96                	lw	s5,100(sp)
    3d0e:	5b06                	lw	s6,96(sp)
    3d10:	4bf6                	lw	s7,92(sp)
    3d12:	4c66                	lw	s8,88(sp)
    3d14:	4cd6                	lw	s9,84(sp)
    3d16:	4d46                	lw	s10,80(sp)
    3d18:	4db6                	lw	s11,76(sp)
    3d1a:	4501                	li	a0,0
    3d1c:	6109                	addi	sp,sp,128
    3d1e:	8082                	ret
    3d20:	02000793          	li	a5,32
    3d24:	02f10423          	sb	a5,40(sp)
    3d28:	47a9                	li	a5,10
    3d2a:	d602                	sw	zero,44(sp)
    3d2c:	da02                	sw	zero,52(sp)
    3d2e:	d802                	sw	zero,48(sp)
    3d30:	d252                	sw	s4,36(sp)
    3d32:	de3e                	sw	a5,60(sp)
    3d34:	4c81                	li	s9,0
    3d36:	4c25                	li	s8,9
    3d38:	00144783          	lbu	a5,1(s0)
    3d3c:	00140493          	addi	s1,s0,1
    3d40:	fd078713          	addi	a4,a5,-48
    3d44:	0ff77693          	zext.b	a3,a4
    3d48:	10dc7163          	bgeu	s8,a3,3e4a <vbuf_printf+0x1a6>
    3d4c:	fbf78713          	addi	a4,a5,-65
    3d50:	0ff77713          	zext.b	a4,a4
    3d54:	01a73693          	sltiu	a3,a4,26
    3d58:	dc36                	sw	a3,56(sp)
    3d5a:	10e9ee63          	bltu	s3,a4,3e76 <vbuf_printf+0x1d2>
    3d5e:	fbd78793          	addi	a5,a5,-67
    3d62:	0ff7f793          	zext.b	a5,a5
    3d66:	4755                	li	a4,21
    3d68:	f8f767e3          	bltu	a4,a5,3cf6 <vbuf_printf+0x52>
    3d6c:	078a                	slli	a5,a5,0x2
    3d6e:	97da                	add	a5,a5,s6
    3d70:	439c                	lw	a5,0(a5)
    3d72:	8782                	jr	a5
    3d74:	000ba783          	lw	a5,0(s7)
    3d78:	00094503          	lbu	a0,0(s2)
    3d7c:	20078063          	beqz	a5,3f7c <vbuf_printf+0x2d8>
    3d80:	9782                	jalr	a5
    3d82:	0911                	addi	s2,s2,4
    3d84:	0014c783          	lbu	a5,1(s1)
    3d88:	00148413          	addi	s0,s1,1
    3d8c:	fbb1                	bnez	a5,3ce0 <vbuf_printf+0x3c>
    3d8e:	bf8d                	j	3d00 <vbuf_printf+0x5c>
    3d90:	00092c03          	lw	s8,0(s2)
    3d94:	8562                	mv	a0,s8
    3d96:	24e5                	jal	407e <strlen>
    3d98:	5d32                	lw	s10,44(sp)
    3d9a:	ce2a                	sw	a0,28(sp)
    3d9c:	5dd2                	lw	s11,52(sp)
    3d9e:	842a                	mv	s0,a0
    3da0:	87aa                	mv	a5,a0
    3da2:	160d1663          	bnez	s10,3f0e <vbuf_printf+0x26a>
    3da6:	000c4503          	lbu	a0,0(s8)
    3daa:	dd61                	beqz	a0,3d82 <vbuf_printf+0xde>
    3dac:	5792                	lw	a5,36(sp)
    3dae:	8462                	mv	s0,s8
    3db0:	fff78c93          	addi	s9,a5,-1
    3db4:	9c3e                	add	s8,s8,a5
    3db6:	9ca2                	add	s9,s9,s0
    3db8:	a029                	j	3dc2 <vbuf_printf+0x11e>
    3dba:	9782                	jalr	a5
    3dbc:	00044503          	lbu	a0,0(s0)
    3dc0:	cd0d                	beqz	a0,3dfa <vbuf_printf+0x156>
    3dc2:	408c87b3          	sub	a5,s9,s0
    3dc6:	d23e                	sw	a5,36(sp)
    3dc8:	03840a63          	beq	s0,s8,3dfc <vbuf_printf+0x158>
    3dcc:	000ba783          	lw	a5,0(s7)
    3dd0:	0405                	addi	s0,s0,1
    3dd2:	f7e5                	bnez	a5,3dba <vbuf_printf+0x116>
    3dd4:	004ba783          	lw	a5,4(s7)
    3dd8:	d3f5                	beqz	a5,3dbc <vbuf_printf+0x118>
    3dda:	008ba703          	lw	a4,8(s7)
    3dde:	00cba683          	lw	a3,12(s7)
    3de2:	fcd75de3          	bge	a4,a3,3dbc <vbuf_printf+0x118>
    3de6:	00170693          	addi	a3,a4,1
    3dea:	00dba423          	sw	a3,8(s7)
    3dee:	97ba                	add	a5,a5,a4
    3df0:	00a78023          	sb	a0,0(a5)
    3df4:	00044503          	lbu	a0,0(s0)
    3df8:	f569                	bnez	a0,3dc2 <vbuf_printf+0x11e>
    3dfa:	8c22                	mv	s8,s0
    3dfc:	8562                	mv	a0,s8
    3dfe:	2441                	jal	407e <strlen>
    3e00:	ce2a                	sw	a0,28(sp)
    3e02:	842a                	mv	s0,a0
    3e04:	f60d0fe3          	beqz	s10,3d82 <vbuf_printf+0xde>
    3e08:	f60d8de3          	beqz	s11,3d82 <vbuf_printf+0xde>
    3e0c:	5c02                	lw	s8,32(sp)
    3e0e:	f7845ae3          	bge	s0,s8,3d82 <vbuf_printf+0xde>
    3e12:	02814c83          	lbu	s9,40(sp)
    3e16:	a031                	j	3e22 <vbuf_printf+0x17e>
    3e18:	8566                	mv	a0,s9
    3e1a:	9782                	jalr	a5
    3e1c:	0405                	addi	s0,s0,1
    3e1e:	f68c02e3          	beq	s8,s0,3d82 <vbuf_printf+0xde>
    3e22:	000ba783          	lw	a5,0(s7)
    3e26:	fbed                	bnez	a5,3e18 <vbuf_printf+0x174>
    3e28:	004ba783          	lw	a5,4(s7)
    3e2c:	dbe5                	beqz	a5,3e1c <vbuf_printf+0x178>
    3e2e:	008ba703          	lw	a4,8(s7)
    3e32:	00cba683          	lw	a3,12(s7)
    3e36:	fed753e3          	bge	a4,a3,3e1c <vbuf_printf+0x178>
    3e3a:	00170693          	addi	a3,a4,1
    3e3e:	00dba423          	sw	a3,8(s7)
    3e42:	97ba                	add	a5,a5,a4
    3e44:	01978023          	sb	s9,0(a5)
    3e48:	bfd1                	j	3e1c <vbuf_printf+0x178>
    3e4a:	060c8363          	beqz	s9,3eb0 <vbuf_printf+0x20c>
    3e4e:	4601                	li	a2,0
    3e50:	45a5                	li	a1,9
    3e52:	0014c783          	lbu	a5,1(s1)
    3e56:	00261693          	slli	a3,a2,0x2
    3e5a:	96b2                	add	a3,a3,a2
    3e5c:	0686                	slli	a3,a3,0x1
    3e5e:	00d70633          	add	a2,a4,a3
    3e62:	fd078713          	addi	a4,a5,-48
    3e66:	0ff77793          	zext.b	a5,a4
    3e6a:	8426                	mv	s0,s1
    3e6c:	0485                	addi	s1,s1,1
    3e6e:	fef5f2e3          	bgeu	a1,a5,3e52 <vbuf_printf+0x1ae>
    3e72:	d232                	sw	a2,36(sp)
    3e74:	b5d1                	j	3d38 <vbuf_printf+0x94>
    3e76:	fdb78713          	addi	a4,a5,-37
    3e7a:	0ff77713          	zext.b	a4,a4
    3e7e:	05300693          	li	a3,83
    3e82:	e6e6eae3          	bltu	a3,a4,3cf6 <vbuf_printf+0x52>
    3e86:	070a                	slli	a4,a4,0x2
    3e88:	9756                	add	a4,a4,s5
    3e8a:	4318                	lw	a4,0(a4)
    3e8c:	8702                	jr	a4
    3e8e:	4785                	li	a5,1
    3e90:	da3e                	sw	a5,52(sp)
    3e92:	8426                	mv	s0,s1
    3e94:	b555                	j	3d38 <vbuf_printf+0x94>
    3e96:	000ba783          	lw	a5,0(s7)
    3e9a:	cfcd                	beqz	a5,3f54 <vbuf_printf+0x2b0>
    3e9c:	02500513          	li	a0,37
    3ea0:	9782                	jalr	a5
    3ea2:	0014c783          	lbu	a5,1(s1)
    3ea6:	00148413          	addi	s0,s1,1
    3eaa:	e2079be3          	bnez	a5,3ce0 <vbuf_printf+0x3c>
    3eae:	bd89                	j	3d00 <vbuf_printf+0x5c>
    3eb0:	03000693          	li	a3,48
    3eb4:	00d79463          	bne	a5,a3,3ebc <vbuf_printf+0x218>
    3eb8:	02f10423          	sb	a5,40(sp)
    3ebc:	4601                	li	a2,0
    3ebe:	45a5                	li	a1,9
    3ec0:	0014c783          	lbu	a5,1(s1)
    3ec4:	00261693          	slli	a3,a2,0x2
    3ec8:	96b2                	add	a3,a3,a2
    3eca:	0686                	slli	a3,a3,0x1
    3ecc:	00d70633          	add	a2,a4,a3
    3ed0:	fd078713          	addi	a4,a5,-48
    3ed4:	0ff77793          	zext.b	a5,a4
    3ed8:	8426                	mv	s0,s1
    3eda:	0485                	addi	s1,s1,1
    3edc:	fef5f2e3          	bgeu	a1,a5,3ec0 <vbuf_printf+0x21c>
    3ee0:	4785                	li	a5,1
    3ee2:	d032                	sw	a2,32(sp)
    3ee4:	d63e                	sw	a5,44(sp)
    3ee6:	bd89                	j	3d38 <vbuf_printf+0x94>
    3ee8:	004ba703          	lw	a4,4(s7)
    3eec:	e00704e3          	beqz	a4,3cf4 <vbuf_printf+0x50>
    3ef0:	008ba683          	lw	a3,8(s7)
    3ef4:	00cba603          	lw	a2,12(s7)
    3ef8:	dec6dee3          	bge	a3,a2,3cf4 <vbuf_printf+0x50>
    3efc:	00168613          	addi	a2,a3,1
    3f00:	00cba423          	sw	a2,8(s7)
    3f04:	9736                	add	a4,a4,a3
    3f06:	00f70023          	sb	a5,0(a4)
    3f0a:	84a2                	mv	s1,s0
    3f0c:	b3ed                	j	3cf6 <vbuf_printf+0x52>
    3f0e:	080d9a63          	bnez	s11,3fa2 <vbuf_printf+0x2fe>
    3f12:	5c82                	lw	s9,32(sp)
    3f14:	e99559e3          	bge	a0,s9,3da6 <vbuf_printf+0x102>
    3f18:	02814783          	lbu	a5,40(sp)
    3f1c:	c63e                	sw	a5,12(sp)
    3f1e:	a031                	j	3f2a <vbuf_printf+0x286>
    3f20:	4532                	lw	a0,12(sp)
    3f22:	9782                	jalr	a5
    3f24:	0405                	addi	s0,s0,1
    3f26:	0c8c8f63          	beq	s9,s0,4004 <vbuf_printf+0x360>
    3f2a:	000ba783          	lw	a5,0(s7)
    3f2e:	fbed                	bnez	a5,3f20 <vbuf_printf+0x27c>
    3f30:	004ba783          	lw	a5,4(s7)
    3f34:	dbe5                	beqz	a5,3f24 <vbuf_printf+0x280>
    3f36:	008ba683          	lw	a3,8(s7)
    3f3a:	00cba603          	lw	a2,12(s7)
    3f3e:	fec6d3e3          	bge	a3,a2,3f24 <vbuf_printf+0x280>
    3f42:	4732                	lw	a4,12(sp)
    3f44:	00168613          	addi	a2,a3,1
    3f48:	00cba423          	sw	a2,8(s7)
    3f4c:	97b6                	add	a5,a5,a3
    3f4e:	00e78023          	sb	a4,0(a5)
    3f52:	bfc9                	j	3f24 <vbuf_printf+0x280>
    3f54:	004ba783          	lw	a5,4(s7)
    3f58:	d8078fe3          	beqz	a5,3cf6 <vbuf_printf+0x52>
    3f5c:	008ba703          	lw	a4,8(s7)
    3f60:	00cba683          	lw	a3,12(s7)
    3f64:	d8d759e3          	bge	a4,a3,3cf6 <vbuf_printf+0x52>
    3f68:	00170693          	addi	a3,a4,1
    3f6c:	97ba                	add	a5,a5,a4
    3f6e:	00dba423          	sw	a3,8(s7)
    3f72:	02500713          	li	a4,37
    3f76:	00e78023          	sb	a4,0(a5)
    3f7a:	bbb5                	j	3cf6 <vbuf_printf+0x52>
    3f7c:	004ba783          	lw	a5,4(s7)
    3f80:	e00781e3          	beqz	a5,3d82 <vbuf_printf+0xde>
    3f84:	008ba703          	lw	a4,8(s7)
    3f88:	00cba683          	lw	a3,12(s7)
    3f8c:	ded75be3          	bge	a4,a3,3d82 <vbuf_printf+0xde>
    3f90:	00170693          	addi	a3,a4,1
    3f94:	00dba423          	sw	a3,8(s7)
    3f98:	97ba                	add	a5,a5,a4
    3f9a:	00a78023          	sb	a0,0(a5)
    3f9e:	0911                	addi	s2,s2,4
    3fa0:	b3d5                	j	3d84 <vbuf_printf+0xe0>
    3fa2:	000c4503          	lbu	a0,0(s8)
    3fa6:	e00513e3          	bnez	a0,3dac <vbuf_printf+0x108>
    3faa:	843e                	mv	s0,a5
    3fac:	b585                	j	3e0c <vbuf_printf+0x168>
    3fae:	00092583          	lw	a1,0(s2)
    3fb2:	47a1                	li	a5,8
    3fb4:	00490413          	addi	s0,s2,4
    3fb8:	0874                	addi	a3,sp,28
    3fba:	4641                	li	a2,16
    3fbc:	855e                	mv	a0,s7
    3fbe:	de3e                	sw	a5,60(sp)
    3fc0:	8922                	mv	s2,s0
    3fc2:	ad1ff0ef          	jal	ra,3a92 <outnum>
    3fc6:	0014c783          	lbu	a5,1(s1)
    3fca:	00148413          	addi	s0,s1,1
    3fce:	d00799e3          	bnez	a5,3ce0 <vbuf_printf+0x3c>
    3fd2:	b33d                	j	3d00 <vbuf_printf+0x5c>
    3fd4:	4785                	li	a5,1
    3fd6:	d83e                	sw	a5,48(sp)
    3fd8:	00092583          	lw	a1,0(s2)
    3fdc:	00490413          	addi	s0,s2,4
    3fe0:	0874                	addi	a3,sp,28
    3fe2:	4629                	li	a2,10
    3fe4:	855e                	mv	a0,s7
    3fe6:	aadff0ef          	jal	ra,3a92 <outnum>
    3fea:	8922                	mv	s2,s0
    3fec:	bfe9                	j	3fc6 <vbuf_printf+0x322>
    3fee:	8426                	mv	s0,s1
    3ff0:	b3a1                	j	3d38 <vbuf_printf+0x94>
    3ff2:	000ba703          	lw	a4,0(s7)
    3ff6:	c31d                	beqz	a4,401c <vbuf_printf+0x378>
    3ff8:	853e                	mv	a0,a5
    3ffa:	9702                	jalr	a4
    3ffc:	0409                	addi	s0,s0,2
    3ffe:	bb2d                	j	3d38 <vbuf_printf+0x94>
    4000:	4501                	li	a0,0
    4002:	8082                	ret
    4004:	000c4503          	lbu	a0,0(s8)
    4008:	da0512e3          	bnez	a0,3dac <vbuf_printf+0x108>
    400c:	8562                	mv	a0,s8
    400e:	2885                	jal	407e <strlen>
    4010:	ce2a                	sw	a0,28(sp)
    4012:	0911                	addi	s2,s2,4
    4014:	bb85                	j	3d84 <vbuf_printf+0xe0>
    4016:	8426                	mv	s0,s1
    4018:	4c85                	li	s9,1
    401a:	bb39                	j	3d38 <vbuf_printf+0x94>
    401c:	004ba703          	lw	a4,4(s7)
    4020:	df71                	beqz	a4,3ffc <vbuf_printf+0x358>
    4022:	008ba683          	lw	a3,8(s7)
    4026:	00cba603          	lw	a2,12(s7)
    402a:	fcc6d9e3          	bge	a3,a2,3ffc <vbuf_printf+0x358>
    402e:	00168613          	addi	a2,a3,1
    4032:	00cba423          	sw	a2,8(s7)
    4036:	9736                	add	a4,a4,a3
    4038:	00f70023          	sb	a5,0(a4)
    403c:	0409                	addi	s0,s0,2
    403e:	b9ed                	j	3d38 <vbuf_printf+0x94>

00004040 <printf>:
    4040:	6331                	lui	t1,0xc
    4042:	73432303          	lw	t1,1844(t1) # c734 <_stdout>
    4046:	715d                	addi	sp,sp,-80
    4048:	d606                	sw	ra,44(sp)
    404a:	da2e                	sw	a1,52(sp)
    404c:	dc32                	sw	a2,56(sp)
    404e:	de36                	sw	a3,60(sp)
    4050:	c0ba                	sw	a4,64(sp)
    4052:	c2be                	sw	a5,68(sp)
    4054:	c4c2                	sw	a6,72(sp)
    4056:	c6c6                	sw	a7,76(sp)
    4058:	00030f63          	beqz	t1,4076 <printf+0x36>
    405c:	1850                	addi	a2,sp,52
    405e:	85aa                	mv	a1,a0
    4060:	0808                	addi	a0,sp,16
    4062:	c632                	sw	a2,12(sp)
    4064:	c81a                	sw	t1,16(sp)
    4066:	ca02                	sw	zero,20(sp)
    4068:	cc02                	sw	zero,24(sp)
    406a:	ce02                	sw	zero,28(sp)
    406c:	c39ff0ef          	jal	ra,3ca4 <vbuf_printf>
    4070:	50b2                	lw	ra,44(sp)
    4072:	6161                	addi	sp,sp,80
    4074:	8082                	ret
    4076:	50b2                	lw	ra,44(sp)
    4078:	4501                	li	a0,0
    407a:	6161                	addi	sp,sp,80
    407c:	8082                	ret

0000407e <strlen>:
    407e:	00054783          	lbu	a5,0(a0)
    4082:	cb89                	beqz	a5,4094 <strlen+0x16>
    4084:	87aa                	mv	a5,a0
    4086:	0017c703          	lbu	a4,1(a5)
    408a:	0785                	addi	a5,a5,1
    408c:	ff6d                	bnez	a4,4086 <strlen+0x8>
    408e:	40a78533          	sub	a0,a5,a0
    4092:	8082                	ret
    4094:	4501                	li	a0,0
    4096:	8082                	ret
    4098:	36335b1b          	.4byte	0x36335b1b
    409c:	343b353b          	.4byte	0x343b353b
    40a0:	726d                	lui	tp,0xffffb
    40a2:	7365                	lui	t1,0xffff9
    40a4:	7465                	lui	s0,0xffff9
    40a6:	2520                	.2byte	0x2520
    40a8:	1b64                	addi	s1,sp,444
    40aa:	0d6d305b          	.4byte	0xd6d305b
    40ae:	000a                	c.slli	zero,0x2
    40b0:	6164                	.2byte	0x6164
    40b2:	6174                	.2byte	0x6174
    40b4:	746f6c73          	csrrsi	s8,0x746,30
    40b8:	5520                	lw	s0,104(a0)
    40ba:	6470                	.2byte	0x6470
    40bc:	7461                	lui	s0,0xffff8
    40be:	2065                	jal	4166 <strlen+0xe8>
    40c0:	6425                	lui	s0,0x9
    40c2:	0a0d                	addi	s4,s4,3
    40c4:	0000                	unimp
    40c6:	0000                	unimp
    40c8:	6d305b1b          	.4byte	0x6d305b1b
    40cc:	0000                	unimp
    40ce:	0000                	unimp
    40d0:	4952                	lw	s2,20(sp)
    40d2:	4d204353          	.4byte	0x4d204353
    40d6:	5550                	lw	a2,44(a0)
    40d8:	5320                	lw	s0,96(a4)
    40da:	6174                	.2byte	0x6174
    40dc:	7472                	.2byte	0x7472
    40de:	7075                	c.lui	zero,0xffffd
    40e0:	6320                	.2byte	0x6320
    40e2:	0d65726f          	jal	tp,5b1b8 <MEM_SIZE+0x3b1b8>
    40e6:	000a                	c.slli	zero,0x2
    40e8:	61657243          	.4byte	0x61657243
    40ec:	6574                	.2byte	0x6574
    40ee:	2064                	.2byte	0x2064
    40f0:	7942                	.2byte	0x7942
    40f2:	4d20                	lw	s0,88(a0)
    40f4:	7a61                	lui	s4,0xffff8
    40f6:	6d61                	lui	s10,0x18
    40f8:	7261                	lui	tp,0xffff8
    40fa:	32313373          	csrrc	t1,mhpmevent3,sp
    40fe:	0a0d                	addi	s4,s4,3 # ffff8003 <MEM_SIZE+0xfffd8003>
    4100:	0000                	unimp
    4102:	0000                	unimp
    4104:	614d                	addi	sp,sp,176
    4106:	6920656b          	.4byte	0x6920656b
    410a:	206e                	.2byte	0x206e
    410c:	3032                	.2byte	0x3032
    410e:	3232                	.2byte	0x3232
    4110:	0a0d                	addi	s4,s4,3
    4112:	0000                	unimp
    4114:	2049                	jal	4196 <strlen+0x118>
    4116:	6168                	.2byte	0x6168
    4118:	6574                	.2byte	0x6574
    411a:	7420                	.2byte	0x7420
    411c:	6968                	.2byte	0x6968
    411e:	65642073          	csrs	0x656,s0
    4122:	7562                	.2byte	0x7562
    4124:	72656767          	.4byte	0x72656767
    4128:	4c20                	lw	s0,88(s0)
    412a:	0a0d4c4f          	.4byte	0xa0d4c4f
    412e:	0000                	unimp
    4130:	6261                	lui	tp,0x18
    4132:	2074756f          	jal	a0,4bb38 <MEM_SIZE+0x2bb38>
    4136:	6f74                	.2byte	0x6f74
    4138:	6720                	.2byte	0x6720
    413a:	6e69206f          	j	96820 <MEM_SIZE+0x76820>
    413e:	6220                	.2byte	0x6220
    4140:	6261                	lui	tp,0x18
    4142:	0d79                	addi	s10,s10,30 # 1801e <_end+0xb4e6>
    4144:	000a                	c.slli	zero,0x2
    4146:	0000                	unimp
    4148:	6144                	.2byte	0x6144
    414a:	6174                	.2byte	0x6174
    414c:	5320                	lw	s0,96(a4)
    414e:	6f6c                	.2byte	0x6f6c
    4150:	2074                	.2byte	0x2074
    4152:	7055                	c.lui	zero,0xffff5
    4154:	6164                	.2byte	0x6164
    4156:	6574                	.2byte	0x6574
    4158:	0a0d                	addi	s4,s4,3
    415a:	0000                	unimp
    415c:	6144                	.2byte	0x6144
    415e:	6174                	.2byte	0x6174
    4160:	5320                	lw	s0,96(a4)
    4162:	6f6c                	.2byte	0x6f6c
    4164:	2074                	.2byte	0x2074
    4166:	6f64                	.2byte	0x6f64
    4168:	656e                	.2byte	0x656e
    416a:	0a0d                	addi	s4,s4,3
    416c:	0000                	unimp
    416e:	0000                	unimp
    4170:	72617473          	csrrci	s0,mhpmevent6h,2
    4174:	6974                	.2byte	0x6974
    4176:	676e                	.2byte	0x676e
    4178:	7420                	.2byte	0x7420
    417a:	6568                	.2byte	0x6568
    417c:	7220                	.2byte	0x7220
    417e:	7365                	lui	t1,0xffff9
    4180:	7465                	lui	s0,0xffff9
    4182:	0a0d                	addi	s4,s4,3
    4184:	0000                	unimp
    4186:	0000                	unimp
    4188:	706d6f43          	.4byte	0x706d6f43
    418c:	656c                	.2byte	0x656c
    418e:	6574                	.2byte	0x6574
    4190:	2064                	.2byte	0x2064
    4192:	6874                	.2byte	0x6874
    4194:	2065                	jal	423c <strlen+0x1be>
    4196:	6572                	.2byte	0x6572
    4198:	0d746573          	csrrsi	a0,0xd7,8
    419c:	000a                	c.slli	zero,0x2
    419e:	0000                	unimp
    41a0:	0a0d                	addi	s4,s4,3
    41a2:	4d31                	li	s10,12
    41a4:	5220                	lw	s0,96(a2)
    41a6:	0a0d6d6f          	jal	s10,da246 <MEM_SIZE+0xba246>
    41aa:	0000                	unimp
    41ac:	0a0d                	addi	s4,s4,3
    41ae:	3135                	jal	3dda <vbuf_printf+0x136>
    41b0:	4d32                	lw	s10,12(sp)
    41b2:	5220                	lw	s0,96(a2)
    41b4:	0a0d6d6f          	jal	s10,da254 <MEM_SIZE+0xba254>
    41b8:	0000                	unimp
    41ba:	0000                	unimp
    41bc:	0a0d                	addi	s4,s4,3
    41be:	3532                	.2byte	0x3532
    41c0:	4d36                	lw	s10,76(sp)
    41c2:	5220                	lw	s0,96(a2)
    41c4:	0a0d6d6f          	jal	s10,da264 <MEM_SIZE+0xba264>
    41c8:	0000                	unimp
    41ca:	0000                	unimp
    41cc:	4f44                	lw	s1,28(a4)
    41ce:	454e                	lw	a0,208(sp)
    41d0:	4220                	lw	s0,64(a2)
    41d2:	4f49                	li	t5,18
    41d4:	4f4c2053          	.4byte	0x4f4c2053
    41d8:	4441                	li	s0,16
    41da:	0a0d                	addi	s4,s4,3
    41dc:	0000                	unimp
    41de:	0000                	unimp
    41e0:	4f44                	lw	s1,28(a4)
    41e2:	454e                	lw	a0,208(sp)
    41e4:	4320                	lw	s0,64(a4)
    41e6:	2065726f          	jal	tp,5b3ec <MEM_SIZE+0x3b3ec>
    41ea:	75746553          	.4byte	0x75746553
    41ee:	0d70                	addi	a2,sp,668
    41f0:	000a                	c.slli	zero,0x2
    41f2:	0000                	unimp
    41f4:	6148                	.2byte	0x6148
    41f6:	6472                	.2byte	0x6472
    41f8:	7264                	.2byte	0x7264
    41fa:	7669                	lui	a2,0xffffa
    41fc:	2065                	jal	42a4 <strlen+0x226>
    41fe:	7261                	lui	tp,0xffff8
    4200:	2065                	jal	42a8 <strlen+0x22a>
    4202:	6562                	.2byte	0x6562
    4204:	6e69                	lui	t3,0x1a
    4206:	65732067          	.4byte	0x65732067
    420a:	7574                	.2byte	0x7574
    420c:	2070                	.2byte	0x2070
    420e:	6e69                	lui	t3,0x1a
    4210:	7420                	.2byte	0x7420
    4212:	6568                	.2byte	0x6568
    4214:	6320                	.2byte	0x6320
    4216:	0d65726f          	jal	tp,5b2ec <MEM_SIZE+0x3b2ec>
    421a:	000a                	c.slli	zero,0x2
    421c:	6148                	.2byte	0x6148
    421e:	6472                	.2byte	0x6472
    4220:	7264                	.2byte	0x7264
    4222:	7669                	lui	a2,0xffffa
    4224:	2065                	jal	42cc <strlen+0x24e>
    4226:	75746573          	csrrsi	a0,0x757,8
    422a:	7370                	.2byte	0x7370
    422c:	2520                	.2byte	0x2520
    422e:	2e30                	.2byte	0x2e30
    4230:	7834                	.2byte	0x7834
    4232:	0d20                	addi	s0,sp,664
    4234:	000a                	c.slli	zero,0x2
    4236:	0000                	unimp
    4238:	3d545053          	.4byte	0x3d545053
    423c:	6425                	lui	s0,0x9
    423e:	202c                	.2byte	0x202c
    4240:	6548                	.2byte	0x6548
    4242:	6461                	lui	s0,0x18
    4244:	64253d73          	csrrc	s10,0x642,a0
    4248:	0a0d                	addi	s4,s4,3
    424a:	0000                	unimp
    424c:	654e                	.2byte	0x654e
    424e:	50532077          	.4byte	0x50532077
    4252:	3d54                	.2byte	0x3d54
    4254:	6425                	lui	s0,0x9
    4256:	202c                	.2byte	0x202c
    4258:	6548                	.2byte	0x6548
    425a:	6461                	lui	s0,0x18
    425c:	64253d73          	csrrc	s10,0x642,a0
    4260:	202c                	.2byte	0x202c
    4262:	696c7943          	.4byte	0x696c7943
    4266:	646e                	.2byte	0x646e
    4268:	7265                	lui	tp,0xffff9
    426a:	64253d73          	csrrc	s10,0x642,a0
    426e:	0a0d                	addi	s4,s4,3
    4270:	0000                	unimp
    4272:	0000                	unimp
    4274:	2020                	.2byte	0x2020
    4276:	74636573          	csrrsi	a0,0x746,6
    427a:	635f726f          	jal	tp,fc0ae <MEM_SIZE+0xdc0ae>
    427e:	746e756f          	jal	a0,eb9c4 <MEM_SIZE+0xcb9c4>
    4282:	203a                	.2byte	0x203a
    4284:	6425                	lui	s0,0x9
    4286:	0a0d                	addi	s4,s4,3
    4288:	0000                	unimp
    428a:	0000                	unimp
    428c:	2020                	.2byte	0x2020
    428e:	6966                	.2byte	0x6966
    4290:	696e                	.2byte	0x696e
    4292:	0a0d6873          	csrrsi	a6,0xa0,26
    4296:	0000                	unimp
    4298:	654e                	.2byte	0x654e
    429a:	6c622077          	.4byte	0x6c622077
    429e:	206b636f          	jal	t1,ba4a4 <MEM_SIZE+0x9a4a4>
    42a2:	657a6973          	csrrsi	s2,0x657,20
    42a6:	203a                	.2byte	0x203a
    42a8:	6425                	lui	s0,0x9
    42aa:	0a0d                	addi	s4,s4,3
    42ac:	0000                	unimp
    42ae:	0000                	unimp
    42b0:	6552                	.2byte	0x6552
    42b2:	20746573          	csrrsi	a0,0x207,8
    42b6:	6d6d6f63          	bltu	s10,s6,4994 <_ZL13mapHidToAmiga+0x27c>
    42ba:	6e61                	lui	t3,0x18
    42bc:	2064                	.2byte	0x2064
    42be:	3028                	.2byte	0x3028
    42c0:	6838                	.2byte	0x6838
    42c2:	2029                	jal	42cc <strlen+0x24e>
    42c4:	6f66                	.2byte	0x6f66
    42c6:	2072                	.2byte	0x2072
    42c8:	4448                	lw	a0,12(s0)
    42ca:	2044                	.2byte	0x2044
    42cc:	6f6e                	.2byte	0x6f6e
    42ce:	2074                	.2byte	0x2074
    42d0:	70707573          	csrrci	a0,0x707,0
    42d4:	6574726f          	jal	tp,4c12a <MEM_SIZE+0x2c12a>
    42d8:	0d64                	addi	s1,sp,668
    42da:	000a                	c.slli	zero,0x2
    42dc:	6552                	.2byte	0x6552
    42de:	76696563          	bltu	s2,t1,4a48 <_ZL13mapHidToAmiga+0x330>
    42e2:	6465                	lui	s0,0x19
    42e4:	7220                	.2byte	0x7220
    42e6:	6165                	addi	sp,sp,112
    42e8:	2064                	.2byte	0x2064
    42ea:	6576                	.2byte	0x6576
    42ec:	6972                	.2byte	0x6972
    42ee:	7966                	.2byte	0x7966
    42f0:	6320                	.2byte	0x6320
    42f2:	616d6d6f          	jal	s10,da908 <MEM_SIZE+0xba908>
    42f6:	646e                	.2byte	0x646e
    42f8:	202e                	.2byte	0x202e
    42fa:	6f4e                	.2byte	0x6f4e
    42fc:	2074                	.2byte	0x2074
    42fe:	6d69                	lui	s10,0x1a
    4300:	6c70                	.2byte	0x6c70
    4302:	6d65                	lui	s10,0x19
    4304:	6e65                	lui	t3,0x19
    4306:	6574                	.2byte	0x6574
    4308:	2064                	.2byte	0x2064
    430a:	7562                	.2byte	0x7562
    430c:	2074                	.2byte	0x2074
    430e:	6572                	.2byte	0x6572
    4310:	7574                	.2byte	0x7574
    4312:	6e72                	.2byte	0x6e72
    4314:	6e69                	lui	t3,0x1a
    4316:	4b4f2067          	.4byte	0x4b4f2067
    431a:	0d2e                	slli	s10,s10,0xb
    431c:	000a                	c.slli	zero,0x2
    431e:	0000                	unimp
    4320:	2128                	.2byte	0x2128
    4322:	2029                	jal	432c <strlen+0x2ae>
    4324:	6e55                	lui	t3,0x15
    4326:	70707573          	csrrci	a0,0x707,0
    432a:	6574726f          	jal	tp,4c180 <MEM_SIZE+0x2c180>
    432e:	2064                	.2byte	0x2064
    4330:	6d6d6f63          	bltu	s10,s6,4a0e <_ZL13mapHidToAmiga+0x2f6>
    4334:	6e61                	lui	t3,0x18
    4336:	2064                	.2byte	0x2064
    4338:	2528                	.2byte	0x2528
    433a:	3430                	.2byte	0x3430
    433c:	2958                	.2byte	0x2958
    433e:	0a0d                	addi	s4,s4,3
    4340:	0000                	unimp
    4342:	0000                	unimp
    4344:	0f3e                	slli	t5,t5,0xf
    4346:	0000                	unimp
    4348:	0ef6                	slli	t4,t4,0x1d
    434a:	0000                	unimp
    434c:	0ef6                	slli	t4,t4,0x1d
    434e:	0000                	unimp
    4350:	0ef6                	slli	t4,t4,0x1d
    4352:	0000                	unimp
    4354:	0ef6                	slli	t4,t4,0x1d
    4356:	0000                	unimp
    4358:	0ef6                	slli	t4,t4,0x1d
    435a:	0000                	unimp
    435c:	0ef6                	slli	t4,t4,0x1d
    435e:	0000                	unimp
    4360:	0ef6                	slli	t4,t4,0x1d
    4362:	0000                	unimp
    4364:	0f06                	slli	t5,t5,0x1
    4366:	0000                	unimp
    4368:	0f06                	slli	t5,t5,0x1
    436a:	0000                	unimp
    436c:	0f06                	slli	t5,t5,0x1
    436e:	0000                	unimp
    4370:	0f06                	slli	t5,t5,0x1
    4372:	0000                	unimp
    4374:	0f06                	slli	t5,t5,0x1
    4376:	0000                	unimp
    4378:	0f06                	slli	t5,t5,0x1
    437a:	0000                	unimp
    437c:	0f06                	slli	t5,t5,0x1
    437e:	0000                	unimp
    4380:	0f06                	slli	t5,t5,0x1
    4382:	0000                	unimp
    4384:	0f06                	slli	t5,t5,0x1
    4386:	0000                	unimp
    4388:	0f06                	slli	t5,t5,0x1
    438a:	0000                	unimp
    438c:	0f06                	slli	t5,t5,0x1
    438e:	0000                	unimp
    4390:	0f06                	slli	t5,t5,0x1
    4392:	0000                	unimp
    4394:	0f06                	slli	t5,t5,0x1
    4396:	0000                	unimp
    4398:	0f06                	slli	t5,t5,0x1
    439a:	0000                	unimp
    439c:	0f06                	slli	t5,t5,0x1
    439e:	0000                	unimp
    43a0:	0f06                	slli	t5,t5,0x1
    43a2:	0000                	unimp
    43a4:	0f1e                	slli	t5,t5,0x7
    43a6:	0000                	unimp
    43a8:	0f1e                	slli	t5,t5,0x7
    43aa:	0000                	unimp
    43ac:	0ef6                	slli	t4,t4,0x1d
    43ae:	0000                	unimp
    43b0:	0ef6                	slli	t4,t4,0x1d
    43b2:	0000                	unimp
    43b4:	0ef6                	slli	t4,t4,0x1d
    43b6:	0000                	unimp
    43b8:	0ef6                	slli	t4,t4,0x1d
    43ba:	0000                	unimp
    43bc:	0ef6                	slli	t4,t4,0x1d
    43be:	0000                	unimp
    43c0:	0ef6                	slli	t4,t4,0x1d
    43c2:	0000                	unimp
    43c4:	0ef6                	slli	t4,t4,0x1d
    43c6:	0000                	unimp
    43c8:	0ef6                	slli	t4,t4,0x1d
    43ca:	0000                	unimp
    43cc:	0ef6                	slli	t4,t4,0x1d
    43ce:	0000                	unimp
    43d0:	0ef6                	slli	t4,t4,0x1d
    43d2:	0000                	unimp
    43d4:	0ef6                	slli	t4,t4,0x1d
    43d6:	0000                	unimp
    43d8:	0ef6                	slli	t4,t4,0x1d
    43da:	0000                	unimp
    43dc:	0ef6                	slli	t4,t4,0x1d
    43de:	0000                	unimp
    43e0:	0ef6                	slli	t4,t4,0x1d
    43e2:	0000                	unimp
    43e4:	0f18                	addi	a4,sp,912
    43e6:	0000                	unimp
    43e8:	0f18                	addi	a4,sp,912
    43ea:	0000                	unimp
    43ec:	0ef6                	slli	t4,t4,0x1d
    43ee:	0000                	unimp
    43f0:	0ef6                	slli	t4,t4,0x1d
    43f2:	0000                	unimp
    43f4:	0ef6                	slli	t4,t4,0x1d
    43f6:	0000                	unimp
    43f8:	0ef6                	slli	t4,t4,0x1d
    43fa:	0000                	unimp
    43fc:	0ef6                	slli	t4,t4,0x1d
    43fe:	0000                	unimp
    4400:	0ef6                	slli	t4,t4,0x1d
    4402:	0000                	unimp
    4404:	0ef6                	slli	t4,t4,0x1d
    4406:	0000                	unimp
    4408:	0ef6                	slli	t4,t4,0x1d
    440a:	0000                	unimp
    440c:	0ef6                	slli	t4,t4,0x1d
    440e:	0000                	unimp
    4410:	0ef6                	slli	t4,t4,0x1d
    4412:	0000                	unimp
    4414:	0ef6                	slli	t4,t4,0x1d
    4416:	0000                	unimp
    4418:	0ef6                	slli	t4,t4,0x1d
    441a:	0000                	unimp
    441c:	0ef6                	slli	t4,t4,0x1d
    441e:	0000                	unimp
    4420:	0ef6                	slli	t4,t4,0x1d
    4422:	0000                	unimp
    4424:	0f24                	addi	s1,sp,920
    4426:	0000                	unimp
    4428:	5441                	li	s0,-16
    442a:	4e54                	lw	a3,28(a2)
    442c:	203a                	.2byte	0x203a
    442e:	6c49                	lui	s8,0x12
    4430:	656c                	.2byte	0x656c
    4432:	206c6167          	.4byte	0x206c6167
    4436:	20534843          	.4byte	0x20534843
    443a:	6176                	.2byte	0x6176
    443c:	756c                	.2byte	0x756c
    443e:	2865                	jal	44f6 <strlen+0x478>
    4440:	0d2e2973          	csrrs	s2,0xd2,t3
    4444:	000a                	c.slli	zero,0x2
    4446:	0000                	unimp
    4448:	5420                	lw	s0,104(s0)
    444a:	6172                	.2byte	0x6172
    444c:	736e                	.2byte	0x736e
    444e:	616c                	.2byte	0x616c
    4450:	6574                	.2byte	0x6574
    4452:	203a                	.2byte	0x203a
    4454:	74636573          	csrrsi	a0,0x746,6
    4458:	2073726f          	jal	tp,3be5e <MEM_SIZE+0x1be5e>
    445c:	6425                	lui	s0,0x9
    445e:	3e2d                	jal	3f98 <vbuf_printf+0x2f4>
    4460:	6425                	lui	s0,0x9
    4462:	202c                	.2byte	0x202c
    4464:	6568                	.2byte	0x6568
    4466:	6461                	lui	s0,0x18
    4468:	64252073          	csrs	0x642,a0
    446c:	3e2d                	jal	3fa6 <vbuf_printf+0x302>
    446e:	6425                	lui	s0,0x9
    4470:	0d2e                	slli	s10,s10,0xb
    4472:	000a                	c.slli	zero,0x2
    4474:	4420                	lw	s0,72(s0)
    4476:	4e41                	li	t3,16
    4478:	4f524547          	.4byte	0x4f524547
    447c:	5355                	li	t1,-11
    447e:	203a                	.2byte	0x203a
    4480:	6e6e6143          	.4byte	0x6e6e6143
    4484:	7420746f          	jal	s0,bbc6 <sector_bufferfdd1+0xafe>
    4488:	6172                	.2byte	0x6172
    448a:	736e                	.2byte	0x736e
    448c:	616c                	.2byte	0x616c
    448e:	6574                	.2byte	0x6574
    4490:	7420                	.2byte	0x7420
    4492:	656c206f          	j	c6ae8 <MEM_SIZE+0xa6ae8>
    4496:	206c6167          	.4byte	0x206c6167
    449a:	20534843          	.4byte	0x20534843
    449e:	6176                	.2byte	0x6176
    44a0:	756c                	.2byte	0x756c
    44a2:	7365                	lui	t1,0xffff9
    44a4:	202e                	.2byte	0x202e
    44a6:	6552                	.2byte	0x6552
    44a8:	632d                	lui	t1,0xb
    44aa:	6c61                	lui	s8,0x18
    44ac:	616c7563          	bgeu	s8,s6,4ab6 <_ZL13mapHidToAmiga+0x39e>
    44b0:	6574                	.2byte	0x6574
    44b2:	7420                	.2byte	0x7420
    44b4:	6568                	.2byte	0x6568
    44b6:	4320                	lw	s0,64(a4)
    44b8:	5348                	lw	a0,36(a4)
    44ba:	0d2e                	slli	s10,s10,0xb
    44bc:	000a                	c.slli	zero,0x2
    44be:	0000                	unimp
    44c0:	6164                	.2byte	0x6164
    44c2:	6174                	.2byte	0x6174
    44c4:	4920                	lw	s0,80(a0)
    44c6:	206e                	.2byte	0x206e
    44c8:	203a                	.2byte	0x203a
    44ca:	3025                	jal	3cf2 <vbuf_printf+0x4e>
    44cc:	342e                	.2byte	0x342e
    44ce:	0a0d                	addi	s4,s4,3
    44d0:	0000                	unimp
    44d2:	0000                	unimp
    44d4:	6f46                	.2byte	0x6f46
    44d6:	6e75                	lui	t3,0x1d
    44d8:	2064                	.2byte	0x2064
    44da:	4452                	lw	s0,20(sp)
    44dc:	2042                	.2byte	0x2042
    44de:	6568                	.2byte	0x6568
    44e0:	6461                	lui	s0,0x18
    44e2:	7265                	lui	tp,0xffff9
    44e4:	2d20                	.2byte	0x2d20
    44e6:	203e                	.2byte	0x203e
    44e8:	616e                	.2byte	0x616e
    44ea:	6974                	.2byte	0x6974
    44ec:	6576                	.2byte	0x6576
    44ee:	4120                	lw	s0,64(a0)
    44f0:	696d                	lui	s2,0x1b
    44f2:	69206167          	.4byte	0x69206167
    44f6:	616d                	addi	sp,sp,240
    44f8:	0d2e6567          	.4byte	0xd2e6567
    44fc:	000a                	c.slli	zero,0x2
    44fe:	0000                	unimp
    4500:	6f4e                	.2byte	0x6f4e
    4502:	5220                	lw	s0,96(a2)
    4504:	4244                	lw	s1,4(a2)
    4506:	6820                	.2byte	0x6820
    4508:	6165                	addi	sp,sp,112
    450a:	6564                	.2byte	0x6564
    450c:	2072                	.2byte	0x2072
    450e:	6f66                	.2byte	0x6f66
    4510:	6e75                	lui	t3,0x1d
    4512:	2064                	.2byte	0x2064
    4514:	6e69                	lui	t3,0x1a
    4516:	4820                	lw	s0,80(s0)
    4518:	4644                	lw	s1,12(a2)
    451a:	6920                	.2byte	0x6920
    451c:	616d                	addi	sp,sp,240
    451e:	202e6567          	.4byte	0x202e6567
    4522:	7341                	lui	t1,0xffff0
    4524:	656d7573          	csrrci	a0,0x656,26
    4528:	6920                	.2byte	0x6920
    452a:	2774                	.2byte	0x2774
    452c:	6d692073          	csrs	0x6d6,s2
    4530:	6761                	lui	a4,0x18
    4532:	2065                	jal	45da <strlen+0x55c>
    4534:	7320666f          	jal	a2,ac66 <sector_buffer+0x3e6e>
    4538:	6e69                	lui	t3,0x1a
    453a:	20656c67          	.4byte	0x20656c67
    453e:	6170                	.2byte	0x6170
    4540:	7472                	.2byte	0x7472
    4542:	7469                	lui	s0,0xffffa
    4544:	6f69                	lui	t5,0x1a
    4546:	2e6e                	.2byte	0x2e6e
    4548:	5520                	lw	s0,104(a0)
    454a:	56206573          	csrrsi	a0,0x562,0
    454e:	7269                	lui	tp,0xffffa
    4550:	7574                	.2byte	0x7574
    4552:	6c61                	lui	s8,0x18
    4554:	5220                	lw	s0,96(a2)
    4556:	4244                	lw	s1,4(a2)
    4558:	6820                	.2byte	0x6820
    455a:	6165                	addi	sp,sp,112
    455c:	6564                	.2byte	0x6564
    455e:	2e72                	.2byte	0x2e72
    4560:	0a0d                	addi	s4,s4,3
    4562:	0000                	unimp
    4564:	6f4e                	.2byte	0x6f4e
    4566:	5220                	lw	s0,96(a2)
    4568:	4244                	lw	s1,4(a2)
    456a:	6820                	.2byte	0x6820
    456c:	6165                	addi	sp,sp,112
    456e:	6564                	.2byte	0x6564
    4570:	2072                	.2byte	0x2072
    4572:	6f66                	.2byte	0x6f66
    4574:	6e75                	lui	t3,0x1d
    4576:	2e64                	.2byte	0x2e64
    4578:	5020                	lw	s0,96(s0)
    457a:	6973736f          	jal	t1,3c410 <MEM_SIZE+0x1c410>
    457e:	6c62                	.2byte	0x6c62
    4580:	2065                	jal	4628 <strlen+0x5aa>
    4582:	6f6e                	.2byte	0x6f6e
    4584:	2d6e                	.2byte	0x2d6e
    4586:	6d41                	lui	s10,0x10
    4588:	6769                	lui	a4,0x1a
    458a:	2061                	jal	4612 <strlen+0x594>
    458c:	6520726f          	jal	tp,bbde <sector_bufferfdd1+0xb16>
    4590:	706d                	c.lui	zero,0xffffb
    4592:	7974                	.2byte	0x7974
    4594:	6920                	.2byte	0x6920
    4596:	616d                	addi	sp,sp,240
    4598:	0d2e6567          	.4byte	0xd2e6567
    459c:	000a                	c.slli	zero,0x2
    459e:	0000                	unimp
    45a0:	4448                	lw	a0,12(s0)
    45a2:	2544                	.2byte	0x2544
    45a4:	3a64                	.2byte	0x3a64
    45a6:	2020                	.2byte	0x2020
    45a8:	7270                	.2byte	0x7270
    45aa:	7365                	lui	t1,0xffff9
    45ac:	6e65                	lui	t3,0x19
    45ae:	2074                	.2byte	0x2074
    45b0:	6425                	lui	s0,0x9
    45b2:	2020                	.2byte	0x2020
    45b4:	6468                	.2byte	0x6468
    45b6:	635f 6c79 6e69      	.byte	0x5f, 0x63, 0x79, 0x6c, 0x69, 0x6e
    45bc:	6564                	.2byte	0x6564
    45be:	7372                	.2byte	0x7372
    45c0:	2520                	.2byte	0x2520
    45c2:	2064                	.2byte	0x2064
    45c4:	6820                	.2byte	0x6820
    45c6:	5f64                	lw	s1,124(a4)
    45c8:	6568                	.2byte	0x6568
    45ca:	6461                	lui	s0,0x18
    45cc:	64252073          	csrs	0x642,a0
    45d0:	2020                	.2byte	0x2020
    45d2:	6468                	.2byte	0x6468
    45d4:	735f 7470 2520      	.byte	0x5f, 0x73, 0x70, 0x74, 0x20, 0x25
    45da:	2064                	.2byte	0x2064
    45dc:	6820                	.2byte	0x6820
    45de:	5f64                	lw	s1,124(a4)
    45e0:	6f74                	.2byte	0x6f74
    45e2:	6174                	.2byte	0x6174
    45e4:	5f6c                	lw	a1,124(a4)
    45e6:	74636573          	csrrsi	a0,0x746,6
    45ea:	2073726f          	jal	tp,3bff0 <MEM_SIZE+0x1bff0>
    45ee:	6425                	lui	s0,0x9
    45f0:	0a0d                	addi	s4,s4,3
    45f2:	0000                	unimp
    45f4:	4449                	li	s0,18
    45f6:	2045                	jal	4696 <strlen+0x618>
    45f8:	3025                	jal	3e20 <vbuf_printf+0x17c>
    45fa:	5834                	lw	a3,112(s0)
    45fc:	7220                	.2byte	0x7220
    45fe:	7365                	lui	t1,0xffff9
    4600:	7465                	lui	s0,0xffff9
    4602:	6620                	.2byte	0x6620
    4604:	6e69                	lui	t3,0x1a
    4606:	7369                	lui	t1,0xffffa
    4608:	0d68                	addi	a0,sp,668
    460a:	000a                	c.slli	zero,0x2
    460c:	4449                	li	s0,18
    460e:	2045                	jal	46ae <strlen+0x630>
    4610:	6d6d6f63          	bltu	s10,s6,4cee <_ZL13mapHidToAmiga+0x5d6>
    4614:	6e61                	lui	t3,0x18
    4616:	3a64                	.2byte	0x3a64
    4618:	2520                	.2byte	0x2520
    461a:	3230                	.2byte	0x3230
    461c:	2058                	.2byte	0x2058
    461e:	6f28                	.2byte	0x6f28
    4620:	206e                	.2byte	0x206e
    4622:	6425                	lui	s0,0x9
    4624:	0d29                	addi	s10,s10,10 # 1000a <_end+0x34d2>
    4626:	000a                	c.slli	zero,0x2
    4628:	4449                	li	s0,18
    462a:	2045                	jal	46ca <strlen+0x64c>
    462c:	6164                	.2byte	0x6164
    462e:	6174                	.2byte	0x6174
    4630:	7220                	.2byte	0x7220
    4632:	7165                	addi	sp,sp,-400
    4634:	6575                	lui	a0,0x1d
    4636:	28207473          	csrrci	s0,0x282,0
    463a:	25206e6f          	jal	t3,a88c <sector_buffer+0x3a94>
    463e:	2964                	.2byte	0x2964
    4640:	0a0d                	addi	s4,s4,3
    4642:	0000                	unimp
    4644:	2128                	.2byte	0x2128
    4646:	2029                	jal	4650 <strlen+0x5d2>
    4648:	4449                	li	s0,18
    464a:	2045                	jal	46ea <strlen+0x66c>
    464c:	6e75                	lui	t3,0x1d
    464e:	776f6e6b          	.4byte	0x776f6e6b
    4652:	206e                	.2byte	0x206e
    4654:	74617473          	csrrci	s0,0x746,2
    4658:	2165                	jal	4b00 <_ZL13mapHidToAmiga+0x3e8>
    465a:	0a0d                	addi	s4,s4,3
    465c:	0000                	unimp
    465e:	0000                	unimp
    4660:	4449                	li	s0,18
    4662:	2045                	jal	4702 <strlen+0x684>
    4664:	3025                	jal	3e8c <vbuf_printf+0x1e8>
    4666:	5834                	lw	a3,112(s0)
    4668:	7220                	.2byte	0x7220
    466a:	7365                	lui	t1,0xffff9
    466c:	7465                	lui	s0,0xffff9
    466e:	7320                	.2byte	0x7320
    4670:	6174                	.2byte	0x6174
    4672:	7472                	.2byte	0x7472
    4674:	000a                	c.slli	zero,0x2
    4676:	0000                	unimp
    4678:	430a                	lw	t1,128(sp)
    467a:	6568                	.2byte	0x6568
    467c:	6e696b63          	bltu	s2,t1,4d72 <_ZL13mapHidToAmiga+0x65a>
    4680:	44482067          	.4byte	0x44482067
    4684:	2044                	.2byte	0x2044
    4686:	6425                	lui	s0,0x9
    4688:	0a0d                	addi	s4,s4,3
    468a:	0000                	unimp
    468c:	657a6973          	csrrsi	s2,0x657,20
    4690:	203a                	.2byte	0x203a
    4692:	6425                	lui	s0,0x9
    4694:	2820                	.2byte	0x2820
    4696:	6425                	lui	s0,0x9
    4698:	4d20                	lw	s0,88(a0)
    469a:	2942                	.2byte	0x2942
    469c:	0a0d                	addi	s4,s4,3
    469e:	0000                	unimp
    46a0:	6468                	.2byte	0x6468
    46a2:	3a66                	.2byte	0x3a66
    46a4:	2520                	.2byte	0x2520
    46a6:	2f75                	jal	4e62 <_ZL13mapHidToAmiga+0x74a>
    46a8:	7525                	lui	a0,0xfffe9
    46aa:	0075252f          	amoadd.w	a0,t2,(a0)
    46ae:	0000                	unimp
    46b0:	2820                	.2byte	0x2820
    46b2:	6425                	lui	s0,0x9
    46b4:	4d20                	lw	s0,88(a0)
    46b6:	2942                	.2byte	0x2942
    46b8:	202c                	.2byte	0x202c
    46ba:	0000                	unimp
    46bc:	7366664f          	.4byte	0x7366664f
    46c0:	7465                	lui	s0,0xffff9
    46c2:	203a                	.2byte	0x203a
    46c4:	6425                	lui	s0,0x9
    46c6:	0a0d                	addi	s4,s4,3
    46c8:	0000                	unimp
    46ca:	0000                	unimp
    46cc:	6f4a                	.2byte	0x6f4a
    46ce:	7379                	lui	t1,0xffffe
    46d0:	6974                	.2byte	0x6974
    46d2:	41206b63          	bltu	zero,s2,4ae8 <_ZL13mapHidToAmiga+0x3d0>
    46d6:	73656363          	bltu	a0,s6,4dfc <_ZL13mapHidToAmiga+0x6e4>
    46da:	20312073          	csrs	0x203,sp
    46de:	2058                	.2byte	0x2058
    46e0:	3025                	jal	3f08 <vbuf_printf+0x264>
    46e2:	342e                	.2byte	0x342e
    46e4:	2078                	.2byte	0x2078
    46e6:	2059                	jal	476c <_ZL13mapHidToAmiga+0x54>
    46e8:	3025                	jal	3f10 <vbuf_printf+0x26c>
    46ea:	342e                	.2byte	0x342e
    46ec:	0d78                	addi	a4,sp,668
    46ee:	000a                	c.slli	zero,0x2
    46f0:	6f4a                	.2byte	0x6f4a
    46f2:	7379                	lui	t1,0xffffe
    46f4:	6974                	.2byte	0x6974
    46f6:	41206b63          	bltu	zero,s2,4b0c <_ZL13mapHidToAmiga+0x3f4>
    46fa:	73656363          	bltu	a0,s6,4e20 <_ZL13mapHidToAmiga+0x708>
    46fe:	6f632073          	csrs	0x6f6,t1
    4702:	6e75                	lui	t3,0x1d
    4704:	2074                	.2byte	0x2074
    4706:	2058                	.2byte	0x2058
    4708:	3025                	jal	3f30 <vbuf_printf+0x28c>
    470a:	342e                	.2byte	0x342e
    470c:	2078                	.2byte	0x2078
    470e:	2059                	jal	4794 <_ZL13mapHidToAmiga+0x7c>
    4710:	3025                	jal	3f38 <vbuf_printf+0x294>
    4712:	342e                	.2byte	0x342e
    4714:	0d78                	addi	a4,sp,668
    4716:	000a                	c.slli	zero,0x2

00004718 <_ZL13mapHidToAmiga>:
    4718:	ffff ffff 3520 2233 2312 2524 2617 2827     .... 53".#$%.&'(
    4728:	3637 1918 1310 1421 3416 3211 3115 0201     76....!..4.2.1..
    4738:	0403 0605 0807 0a09 4544 4241 0b40 1a0c     ........DEAB@...
    4748:	0d1b 29ff 002a 3938 623a 5150 5352 5554     ...)*.89:bPQRSTU
    4758:	5756 5958 ffff ffff 5fff ffff ff46 4eff     VWXY....._..F..N
    4768:	4d4f ff4c 5d5c 5e4a 1d43 1f1e 2e2d 3d2f     OML.\]J^C...-./=
    4778:	3f3e 3c0f 67ff ffff ffff ffff ffff ffff     >?.<.g..........
    4788:	ffff ffff ffff ffff ffff ffff ffff ffff     ................
    4798:	ffff ffff ffff ffff ffff ffff ffff ffff     ................
    47a8:	ffff ffff ffff ffff ffff ffff ffff ffff     ................
    47b8:	ffff ffff ffff ffff ffff ffff ffff ffff     ................
    47c8:	ffff ffff ffff ffff ffff ffff ffff ffff     ................
    47d8:	ffff ffff ffff ffff ffff ffff ffff ffff     ................
    47e8:	ffff ffff ffff ffff ffff ffff ffff ffff     ................
    47f8:	ffff ffff ffff ffff ffff ffff ffff ffff     ................
    4808:	ffff ffff ffff ffff ffff ffff ffff ffff     ................
    4818:	5b1b 3833 313b 353b 436d 6568 6b63 6320     .[38;1;5mCheck c
    4828:	646f 7365 2520 2e30 5834 5b1b 6d30 0a0d     odes %0.4X.[0m..
    4838:	0000 0000 756e 626d 7265 7620 6c61 6575     ....number value
    4848:	203a 6425 0d20 000a 756e 626d 7265 7320     : %d ...number s
    4858:	6f6c 3a74 2520 2064 0a0d 0000 756e 626d     lot: %d ....numb
    4868:	7265 7320 7a69 3a65 2520 2064 0a0d 0000     er size: %d ....
    4878:	5041 2046 6572 6461 203a 6425 202c 3025     APF read: %d, %0
    4888:	342e 2c78 2520 2e30 7834 202c 3025 342e     .4x, %0.4x, %0.4
    4898:	2c78 2520 0d64 000a 5b1b 3633 353b 343b     x, %d....[36;5;4
    48a8:	416d 4650 4620 4941 444c 6420 7461 7361     mAPF FAILD datas
    48b8:	6f6c 5f74 6572 6461 6320 6568 6b63 203f     lot_read check? 
    48c8:	6164 6174 6c73 746f 2520 2c64 6120 6464     dataslot %d, add
    48d8:	6572 7373 2520 2e30 5834 202c 666f 7366     ress %0.4X, offs
    48e8:	7465 3025 342e 2c58 6c20 6e65 7467 2568     et%0.4X, length%
    48f8:	2e30 5834 5b1b 6d30 0a0d 0000 5b1b 3633     0.4X.[0m.....[36
    4908:	353b 343b 416d 4650 4620 4941 444c 6420     ;5;4mAPF FAILD d
    4918:	7461 7361 6f6c 5f74 6572 6461 6420 6e6f     ataslot_read don
    4928:	3f65 6420 7461 7361 6f6c 2074 6425 202c     e? dataslot %d, 
    4938:	6461 7264 7365 2073 3025 342e 2c58 6f20     address %0.4X, o
    4948:	6666 6573 2074 3025 342e 2c58 6c20 6e65     ffset %0.4X, len
    4958:	7467 2068 3025 342e 2058 7265 6f72 2072     gth %0.4X error 
    4968:	3025 342e 1b58 305b 0d6d 000a 5b1b 3833     %0.4X.[0m....[38
    4978:	313b 353b 646d 6e6f 1b65 305b 0d6d 000a     ;1;5mdone.[0m...
    4988:	5041 2046 7257 7469 3a65 2520 2c64 2520     APF Write: %d, %
    4998:	2e30 7834 202c 3025 342e 2c78 2520 0d64     0.4x, %0.4x, %d.
    49a8:	000a 0000 5b1b 3633 353b 343b 416d 4650     .....[36;5;4mAPF
    49b8:	4620 4941 444c 6420 7461 7361 6f6c 5f74      FAILD dataslot_
    49c8:	7277 7469 3f65 6420 7461 7361 6f6c 2074     write? dataslot 
    49d8:	6425 202c 6461 7264 7365 2073 3025 342e     %d, address %0.4
    49e8:	2c58 6f20 6666 6573 2574 2e30 5834 202c     X, offset%0.4X, 
    49f8:	656c 676e 6874 3025 342e 1b58 305b 0d6d     length%0.4X.[0m.
    4a08:	000a 0000 530a 6365 6e6f 2064 7973 636e     .....Second sync
    4a18:	7720 726f 2064 696d 7373 6e69 2e67 2e2e      word missing...
    4a28:	000a 0000 570a 6f72 676e 6820 6165 6564     .....Wrong heade
    4a38:	3a72 2520 2e75 7525 252e 2e75 7525 000a     r: %u.%u.%u.%u..
    4a48:	7257 7469 2065 7461 6574 706d 2074 6f74     Write attempt to
    4a58:	7020 6f72 6574 7463 6465 6420 7369 216b      protected disk!
    4a68:	000a 0000 7257 7469 5465 6172 6b63 203a     ....WriteTrack: 
    4a78:	7265 6f72 2072 7525 000a 0000 7257 7469     error %u....Writ
    4a88:	2065 7265 6f72 0072 6c49 656c 6167 206c     e error.Illegal 
    4a98:	7274 6361 206b 6572 6461 203a 6425 000a     track read: %d..
    4aa8:	6164 6174 6c73 746f 2073 6425 2520 0d64     dataslots %d %d.
    4ab8:	000a 0000 7274 6361 736b 2520 2064 6425     ....tracks %d %d
    4ac8:	0a0d 0000 7473 7461 7375 2520 2064 6425     ....status %d %d
    4ad8:	0a0d 0000 6577 7520 6973 676e 7420 6568     ....we using the
    4ae8:	6320 6361 6568 0a0d 0000 0000 6577 6120      cache......we a
    4af8:	6572 6e20 746f 7520 6973 676e 7420 6568     re not using the
    4b08:	6320 6361 6568 0a0d 0000 0000 6573 7463      cache......sect
    4b18:	726f 2520 0d64 000a 6164 6174 7320 6365     or %d...data sec
    4b28:	6f74 2072 6425 0a0d 0000 0000 7453 7461     tor %d......Stat
    4b38:	7365 6420 7369 206b 3a30 2520 2e30 7834     es disk 0: %0.4x
    4b48:	0a0d 0000 7453 7461 7365 6420 7369 206b     ....States disk 
    4b58:	3a31 2520 2e30 7834 0a0d 0000 7453 7461     1: %0.4x....Stat
    4b68:	7365 6420 7369 206b 3a32 2520 2e30 7834     es disk 2: %0.4x
    4b78:	0a0d 0000 7453 7461 7365 6420 7369 206b     ....States disk 
    4b88:	3a33 2520 2e30 7834 0a0d 0000 7453 7461     3: %0.4x....Stat
    4b98:	7365 6f20 2066 6964 6b73 3a73 2520 2e30     es of disks: %0.
    4ba8:	7834 0a0d 0000 0000 6e75 6f6c 6461 0a0d     4x......unload..
    4bb8:	0000 0000 6553 656c 7463 6465 6420 6972     ....Selected dri
    4bc8:	6576 2520 0d64 530a 6c65 6365 6574 2064     ve %d..Selected 
    4bd8:	7274 6361 206b 6425 0a0d 0000 4e55 5553     track %d....UNSU
    4be8:	5050 524f 4554 2044 4441 2046 4953 455a     PPORTED ADF SIZE
    4bf8:	2121 2021 6f54 206f 616d 796e 7420 6172     !!! Too many tra
    4c08:	6b63 3a73 2520 756c 000a 0000 6966 656c     cks: %lu....file
    4c18:	7720 6972 6174 6c62 3a65 2520 0d64 000a      writable: %d...
    4c28:	6966 656c 7320 7a69 3a65 2520 756c 2820     file size: %lu (
    4c38:	6c25 2075 424b 0d29 000a 0000 7264 7669     %lu KB).....driv
    4c48:	2065 7274 6361 736b 203a 7525 0a0d 0000     e tracks: %u....
    4c58:	7264 7669 2065 7274 6361 5f6b 7270 7665     drive track_prev
    4c68:	203a 7525 0a0d 0000 7264 7669 2065 7473     : %u....drive st
    4c78:	7461 7375 203a 7830 3025 5832 0a0d 0000     atus: 0x%02X....
    4c88:	3604 0000 3508 0000 3508 0000 35fc 0000     .6...5...5...5..
    4c98:	3508 0000 3508 0000 3508 0000 3508 0000     .5...5...5...5..
    4ca8:	3508 0000 3508 0000 3508 0000 35f4 0000     .5...5...5...5..
    4cb8:	3508 0000 35ec 0000 3508 0000 3508 0000     .5...5...5...5..
    4cc8:	35e4 0000 3130 3332 3534 3736 3938 4241     .5..0123456789AB
    4cd8:	4443 4645 0000 0000 3130 3332 3534 3736     CDEF....01234567
    4ce8:	3938 6261 6463 6665 0000 0000 3d74 0000     89abcdef....t=..
    4cf8:	3fd8 0000 3cf6 0000 3cf6 0000 3cf6 0000     .?...<...<...<..
    4d08:	3cf6 0000 3cf6 0000 3cf6 0000 3cf6 0000     .<...<...<...<..
    4d18:	3fee 0000 3cf6 0000 3cf6 0000 3cf6 0000     .?...<...<...<..
    4d28:	3fae 0000 3cf6 0000 3cf6 0000 3d90 0000     .?...<...<...=..
    4d38:	3cf6 0000 3fd4 0000 3cf6 0000 3cf6 0000     .<...?...<...<..
    4d48:	3fae 0000 3e96 0000 3cf6 0000 3cf6 0000     .?...>...<...<..
    4d58:	3cf6 0000 3cf6 0000 3cf6 0000 3cf6 0000     .<...<...<...<..
    4d68:	3cf6 0000 3e8e 0000 4016 0000 3cf6 0000     .<...>...@...<..
    4d78:	3cf6 0000 3cf6 0000 3cf6 0000 3cf6 0000     .<...<...<...<..
    4d88:	3cf6 0000 3cf6 0000 3cf6 0000 3cf6 0000     .<...<...<...<..
    4d98:	3cf6 0000 3cf6 0000 3cf6 0000 3cf6 0000     .<...<...<...<..
    4da8:	3cf6 0000 3cf6 0000 3cf6 0000 3cf6 0000     .<...<...<...<..
    4db8:	3cf6 0000 3cf6 0000 3cf6 0000 3cf6 0000     .<...<...<...<..
    4dc8:	3cf6 0000 3cf6 0000 3cf6 0000 3cf6 0000     .<...<...<...<..
    4dd8:	3cf6 0000 3cf6 0000 3cf6 0000 3cf6 0000     .<...<...<...<..
    4de8:	3cf6 0000 3cf6 0000 3cf6 0000 3cf6 0000     .<...<...<...<..
    4df8:	3cf6 0000 3cf6 0000 3cf6 0000 3cf6 0000     .<...<...<...<..
    4e08:	3cf6 0000 3cf6 0000 3cf6 0000 3cf6 0000     .<...<...<...<..
    4e18:	3cf6 0000 3cf6 0000 3cf6 0000 3cf6 0000     .<...<...<...<..
    4e28:	3ff2 0000 3cf6 0000 3cf6 0000 3cf6 0000     .?...<...<...<..
    4e38:	3cf6 0000 3cf6 0000 3cf6 0000 3d74 0000     .<...<...<..t=..
    4e48:	3fd8 0000 3cf6 0000 3cf6 0000 3cf6 0000     .?...<...<...<..
    4e58:	3cf6 0000 3cf6 0000 3cf6 0000 3cf6 0000     .<...<...<...<..
    4e68:	3fee 0000 3cf6 0000 3cf6 0000 3cf6 0000     .?...<...<...<..
    4e78:	3fae 0000 3cf6 0000 3cf6 0000 3d90 0000     .?...<...<...=..
    4e88:	3cf6 0000 3fd4 0000 3cf6 0000 3cf6 0000     .<...?...<...<..
    4e98:	3fae 0000                                   .?..
